
C:/Users/20235607/Downloads/BAS_System/pico-projects/build/freertos_blink.elf:     file format elf32-littlearm

Sections:
Idx Name          Size      VMA       LMA       File off  Algn
  0 .text         00006a5c  10000000  10000000  00001000  2**3
                  CONTENTS, ALLOC, LOAD, READONLY, CODE
  1 .rodata       000003b0  10006a5c  10006a5c  00007a5c  2**2
                  CONTENTS, ALLOC, LOAD, READONLY, DATA
  2 .ARM.exidx    00000008  10006e0c  10006e0c  00007e0c  2**2
                  CONTENTS, ALLOC, LOAD, READONLY, DATA
  3 .binary_info  00000020  10006e14  10006e14  00007e14  2**2
                  CONTENTS, ALLOC, LOAD, READONLY, DATA
  4 .ram_vector_table 00000110  20000000  20000000  0000a000  2**2
                  ALLOC
  5 .uninitialized_data 00000000  20000110  20000110  00009fbc  2**0
                  CONTENTS
  6 .data         00001174  20000110  10006e34  00008110  2**3
                  CONTENTS, ALLOC, LOAD, READONLY, CODE
  7 .tdata        00000000  20001284  20001284  00009fbc  2**0
                  CONTENTS, ALLOC, LOAD, DATA, THREAD_LOCAL
  8 .tbss         00000000  20001284  20001284  00000000  2**0
                  ALLOC, THREAD_LOCAL
  9 .bss          00004da4  20001288  10007fa8  0000a288  2**3
                  ALLOC
 10 .heap         00000800  2000602c  10007fa8  0000a02c  2**2
                  ALLOC, READONLY
 11 .scratch_x    00000000  20080000  20080000  00009fbc  2**0
                  CONTENTS
 12 .scratch_y    00000000  20081000  20081000  00009fbc  2**0
                  CONTENTS
 13 .stack1_dummy 00000800  20080000  20080000  0000a000  2**2
                  ALLOC
 14 .stack_dummy  00000800  20081000  20081000  0000a000  2**5
                  ALLOC, READONLY
 15 .flash_end    00000014  10007fa8  10007fa8  00009fa8  2**2
                  CONTENTS, ALLOC, LOAD, READONLY, DATA
 16 .ARM.attributes 00000034  00000000  00000000  00009fbc  2**0
                  CONTENTS, READONLY
 17 .comment      00000049  00000000  00000000  00009ff0  2**0
                  CONTENTS, READONLY
 18 .debug_info   000410d7  00000000  00000000  0000a039  2**0
                  CONTENTS, READONLY, DEBUGGING, OCTETS
 19 .debug_abbrev 0000a4ce  00000000  00000000  0004b110  2**0
                  CONTENTS, READONLY, DEBUGGING, OCTETS
 20 .debug_loc    0002f423  00000000  00000000  000555de  2**0
                  CONTENTS, READONLY, DEBUGGING, OCTETS
 21 .debug_aranges 000017b8  00000000  00000000  00084a08  2**3
                  CONTENTS, READONLY, DEBUGGING, OCTETS
 22 .debug_ranges 0000f1d8  00000000  00000000  000861c0  2**3
                  CONTENTS, READONLY, DEBUGGING, OCTETS
 23 .debug_line   0002b6cc  00000000  00000000  00095398  2**0
                  CONTENTS, READONLY, DEBUGGING, OCTETS
 24 .debug_str    0000bf64  00000000  00000000  000c0a64  2**0
                  CONTENTS, READONLY, DEBUGGING, OCTETS
 25 .debug_frame  00004824  00000000  00000000  000cc9c8  2**2
                  CONTENTS, READONLY, DEBUGGING, OCTETS

C:/Users/20235607/Downloads/BAS_System/pico-projects/build/freertos_blink.elf:     file format elf32-littlearm


Disassembly of section .text:

10000000 <__VECTOR_TABLE>:
10000000:	20082000 	.word	0x20082000
10000004:	1000015d 	.word	0x1000015d
10000008:	1000011b 	.word	0x1000011b
1000000c:	1000011d 	.word	0x1000011d
10000010:	10000111 	.word	0x10000111
10000014:	10000111 	.word	0x10000111
10000018:	10000111 	.word	0x10000111
1000001c:	10000111 	.word	0x10000111
10000020:	10000119 	.word	0x10000119
10000024:	10000119 	.word	0x10000119
10000028:	10000119 	.word	0x10000119
1000002c:	1000011f 	.word	0x1000011f
10000030:	10000111 	.word	0x10000111
10000034:	10000119 	.word	0x10000119
10000038:	10000121 	.word	0x10000121
1000003c:	10000123 	.word	0x10000123
10000040:	10000111 	.word	0x10000111
10000044:	10000111 	.word	0x10000111
10000048:	10000111 	.word	0x10000111
1000004c:	10000111 	.word	0x10000111
10000050:	10000111 	.word	0x10000111
10000054:	10000111 	.word	0x10000111
10000058:	10000111 	.word	0x10000111
1000005c:	10000111 	.word	0x10000111
10000060:	10000111 	.word	0x10000111
10000064:	10000111 	.word	0x10000111
10000068:	10000111 	.word	0x10000111
1000006c:	10000111 	.word	0x10000111
10000070:	10000111 	.word	0x10000111
10000074:	10000111 	.word	0x10000111
10000078:	10000111 	.word	0x10000111
1000007c:	10000111 	.word	0x10000111
10000080:	10000111 	.word	0x10000111
10000084:	10000111 	.word	0x10000111
10000088:	10000111 	.word	0x10000111
1000008c:	10000111 	.word	0x10000111
10000090:	10000111 	.word	0x10000111
10000094:	10000111 	.word	0x10000111
10000098:	10000111 	.word	0x10000111
1000009c:	10000111 	.word	0x10000111
100000a0:	10000111 	.word	0x10000111
100000a4:	10000111 	.word	0x10000111
100000a8:	10000111 	.word	0x10000111
100000ac:	10000111 	.word	0x10000111
100000b0:	10000111 	.word	0x10000111
100000b4:	10000111 	.word	0x10000111
100000b8:	10000111 	.word	0x10000111
100000bc:	10000111 	.word	0x10000111
100000c0:	10000111 	.word	0x10000111
100000c4:	10000111 	.word	0x10000111
100000c8:	10000111 	.word	0x10000111
100000cc:	10000111 	.word	0x10000111
100000d0:	10000111 	.word	0x10000111
100000d4:	10000111 	.word	0x10000111
100000d8:	10000111 	.word	0x10000111
100000dc:	10000111 	.word	0x10000111
100000e0:	10000111 	.word	0x10000111
100000e4:	10000111 	.word	0x10000111
100000e8:	10000111 	.word	0x10000111
100000ec:	10000111 	.word	0x10000111
100000f0:	10000111 	.word	0x10000111
100000f4:	10000111 	.word	0x10000111
100000f8:	10000111 	.word	0x10000111
100000fc:	10000111 	.word	0x10000111
10000100:	10000111 	.word	0x10000111
10000104:	10000111 	.word	0x10000111
10000108:	10000111 	.word	0x10000111
1000010c:	10000111 	.word	0x10000111

10000110 <__unhandled_user_irq>:
10000110:	f3ef 8005 	mrs	r0, IPSR
10000114:	3810      	subs	r0, #16

10000116 <unhandled_user_irq_num_in_r0>:
10000116:	be00      	bkpt	0x0000

10000118 <isr_invalid>:
10000118:	be00      	bkpt	0x0000

1000011a <isr_nmi>:
1000011a:	be00      	bkpt	0x0000

1000011c <isr_hardfault>:
1000011c:	be00      	bkpt	0x0000

1000011e <isr_svcall>:
1000011e:	be00      	bkpt	0x0000

10000120 <isr_pendsv>:
10000120:	be00      	bkpt	0x0000

10000122 <isr_systick>:
10000122:	be00      	bkpt	0x0000

10000124 <__default_isrs_end>:
10000124:	7188ebf2 	.word	0x7188ebf2
10000128:	10006e14 	.word	0x10006e14
1000012c:	10006e34 	.word	0x10006e34
10000130:	100001a0 	.word	0x100001a0
10000134:	e71aa390 	.word	0xe71aa390

10000138 <__binary_info_header_end>:
10000138:	ffffded3 	.word	0xffffded3
1000013c:	10210142 	.word	0x10210142
10000140:	000001ff 	.word	0x000001ff
10000144:	00007e70 	.word	0x00007e70
10000148:	ab123579 	.word	0xab123579

1000014c <_entry_point>:
1000014c:	f04f 0000 	mov.w	r0, #0

10000150 <_enter_vtable_in_r0>:
10000150:	491e      	ldr	r1, [pc, #120]	; (100001cc <data_cpy_table+0x2c>)
10000152:	6008      	str	r0, [r1, #0]
10000154:	c806      	ldmia	r0!, {r1, r2}
10000156:	f381 8808 	msr	MSP, r1
1000015a:	4710      	bx	r2

1000015c <_reset_handler>:
1000015c:	f04f 4050 	mov.w	r0, #3489660928	; 0xd0000000
10000160:	6800      	ldr	r0, [r0, #0]
10000162:	b110      	cbz	r0, 1000016a <hold_non_core0_in_bootrom+0x6>

10000164 <hold_non_core0_in_bootrom>:
10000164:	f04f 0000 	mov.w	r0, #0
10000168:	e7f2      	b.n	10000150 <_enter_vtable_in_r0>
1000016a:	a40d      	add	r4, pc, #52	; (adr r4, 100001a0 <data_cpy_table>)
1000016c:	cc0e      	ldmia	r4!, {r1, r2, r3}
1000016e:	2900      	cmp	r1, #0
10000170:	d002      	beq.n	10000178 <hold_non_core0_in_bootrom+0x14>
10000172:	f000 f812 	bl	1000019a <data_cpy>
10000176:	e7f9      	b.n	1000016c <hold_non_core0_in_bootrom+0x8>
10000178:	4915      	ldr	r1, [pc, #84]	; (100001d0 <data_cpy_table+0x30>)
1000017a:	4a16      	ldr	r2, [pc, #88]	; (100001d4 <data_cpy_table+0x34>)
1000017c:	2000      	movs	r0, #0
1000017e:	e000      	b.n	10000182 <bss_fill_test>

10000180 <bss_fill_loop>:
10000180:	c101      	stmia	r1!, {r0}

10000182 <bss_fill_test>:
10000182:	4291      	cmp	r1, r2
10000184:	d1fc      	bne.n	10000180 <bss_fill_loop>

10000186 <platform_entry>:
10000186:	4914      	ldr	r1, [pc, #80]	; (100001d8 <data_cpy_table+0x38>)
10000188:	4788      	blx	r1
1000018a:	4914      	ldr	r1, [pc, #80]	; (100001dc <data_cpy_table+0x3c>)
1000018c:	4788      	blx	r1
1000018e:	4914      	ldr	r1, [pc, #80]	; (100001e0 <data_cpy_table+0x40>)
10000190:	4788      	blx	r1
10000192:	be00      	bkpt	0x0000
10000194:	e7fd      	b.n	10000192 <platform_entry+0xc>

10000196 <data_cpy_loop>:
10000196:	c901      	ldmia	r1!, {r0}
10000198:	c201      	stmia	r2!, {r0}

1000019a <data_cpy>:
1000019a:	429a      	cmp	r2, r3
1000019c:	d3fb      	bcc.n	10000196 <data_cpy_loop>
1000019e:	4770      	bx	lr

100001a0 <data_cpy_table>:
100001a0:	10006e34 	.word	0x10006e34
100001a4:	20000110 	.word	0x20000110
100001a8:	20001284 	.word	0x20001284
100001ac:	10007fa8 	.word	0x10007fa8
100001b0:	20080000 	.word	0x20080000
100001b4:	20080000 	.word	0x20080000
100001b8:	10007fa8 	.word	0x10007fa8
100001bc:	20081000 	.word	0x20081000
100001c0:	20081000 	.word	0x20081000
100001c4:	00000000 	.word	0x00000000
100001c8:	4770      	bx	lr
100001ca:	0000      	.short	0x0000
100001cc:	e000ed08 	.word	0xe000ed08
100001d0:	20001284 	.word	0x20001284
100001d4:	2000602c 	.word	0x2000602c
100001d8:	10001725 	.word	0x10001725
100001dc:	100002ad 	.word	0x100002ad
100001e0:	1000171d 	.word	0x1000171d

100001e4 <_init>:
100001e4:	b5f8      	push	{r3, r4, r5, r6, r7, lr}
100001e6:	bf00      	nop

100001e8 <__do_global_dtors_aux>:
100001e8:	b510      	push	{r4, lr}
100001ea:	4c05      	ldr	r4, [pc, #20]	; (10000200 <__do_global_dtors_aux+0x18>)
100001ec:	7823      	ldrb	r3, [r4, #0]
100001ee:	b933      	cbnz	r3, 100001fe <__do_global_dtors_aux+0x16>
100001f0:	4b04      	ldr	r3, [pc, #16]	; (10000204 <__do_global_dtors_aux+0x1c>)
100001f2:	b113      	cbz	r3, 100001fa <__do_global_dtors_aux+0x12>
100001f4:	4804      	ldr	r0, [pc, #16]	; (10000208 <__do_global_dtors_aux+0x20>)
100001f6:	e000      	b.n	100001fa <__do_global_dtors_aux+0x12>
100001f8:	bf00      	nop
100001fa:	2301      	movs	r3, #1
100001fc:	7023      	strb	r3, [r4, #0]
100001fe:	bd10      	pop	{r4, pc}
10000200:	20001410 	.word	0x20001410
10000204:	00000000 	.word	0x00000000
10000208:	10006a5c 	.word	0x10006a5c

1000020c <frame_dummy>:
1000020c:	b508      	push	{r3, lr}
1000020e:	4b03      	ldr	r3, [pc, #12]	; (1000021c <frame_dummy+0x10>)
10000210:	b11b      	cbz	r3, 1000021a <frame_dummy+0xe>
10000212:	4903      	ldr	r1, [pc, #12]	; (10000220 <frame_dummy+0x14>)
10000214:	4803      	ldr	r0, [pc, #12]	; (10000224 <frame_dummy+0x18>)
10000216:	e000      	b.n	1000021a <frame_dummy+0xe>
10000218:	bf00      	nop
1000021a:	bd08      	pop	{r3, pc}
1000021c:	00000000 	.word	0x00000000
10000220:	20001414 	.word	0x20001414
10000224:	10006a5c 	.word	0x10006a5c

10000228 <blink_task>:
10000228:	b570      	push	{r4, r5, r6, lr}
1000022a:	2019      	movs	r0, #25
1000022c:	b082      	sub	sp, #8
1000022e:	f000 f86b 	bl	10000308 <gpio_init>
10000232:	2419      	movs	r4, #25
10000234:	2301      	movs	r3, #1
10000236:	ec43 4044 	gpioc_bit_oe_put r4, r3
1000023a:	2600      	movs	r6, #0
1000023c:	4d0d      	ldr	r5, [pc, #52]	; (10000274 <blink_task+0x4c>)
1000023e:	2201      	movs	r2, #1
10000240:	ec42 4040 	gpioc_bit_out_put r4, r2
10000244:	2300      	movs	r3, #0
10000246:	a901      	add	r1, sp, #4
10000248:	9201      	str	r2, [sp, #4]
1000024a:	6828      	ldr	r0, [r5, #0]
1000024c:	461a      	mov	r2, r3
1000024e:	f004 fc4d 	bl	10004aec <xQueueGenericSend>
10000252:	2064      	movs	r0, #100	; 0x64
10000254:	f005 fb10 	bl	10005878 <vTaskDelay>
10000258:	ec46 4040 	gpioc_bit_out_put r4, r6
1000025c:	2300      	movs	r3, #0
1000025e:	6828      	ldr	r0, [r5, #0]
10000260:	461a      	mov	r2, r3
10000262:	a901      	add	r1, sp, #4
10000264:	9601      	str	r6, [sp, #4]
10000266:	f004 fc41 	bl	10004aec <xQueueGenericSend>
1000026a:	2064      	movs	r0, #100	; 0x64
1000026c:	f005 fb04 	bl	10005878 <vTaskDelay>
10000270:	e7e5      	b.n	1000023e <blink_task+0x16>
10000272:	bf00      	nop
10000274:	20001f1c 	.word	0x20001f1c

10000278 <print_task>:
10000278:	b500      	push	{lr}
1000027a:	4c09      	ldr	r4, [pc, #36]	; (100002a0 <print_task+0x28>)
1000027c:	4e09      	ldr	r6, [pc, #36]	; (100002a4 <print_task+0x2c>)
1000027e:	4d0a      	ldr	r5, [pc, #40]	; (100002a8 <print_task+0x30>)
10000280:	b083      	sub	sp, #12
10000282:	f04f 32ff 	mov.w	r2, #4294967295
10000286:	6820      	ldr	r0, [r4, #0]
10000288:	a901      	add	r1, sp, #4
1000028a:	f004 fdcf 	bl	10004e2c <xQueueReceive>
1000028e:	9b01      	ldr	r3, [sp, #4]
10000290:	2b01      	cmp	r3, #1
10000292:	bf0c      	ite	eq
10000294:	4628      	moveq	r0, r5
10000296:	4630      	movne	r0, r6
10000298:	f001 fb78 	bl	1000198c <__wrap_puts>
1000029c:	e7f1      	b.n	10000282 <print_task+0xa>
1000029e:	bf00      	nop
100002a0:	20001f1c 	.word	0x20001f1c
100002a4:	10006a64 	.word	0x10006a64
100002a8:	10006a5c 	.word	0x10006a5c

100002ac <main>:
100002ac:	2400      	movs	r4, #0
100002ae:	2501      	movs	r5, #1
100002b0:	b580      	push	{r7, lr}
100002b2:	b082      	sub	sp, #8
100002b4:	f001 fb2a 	bl	1000190c <stdio_init_all>
100002b8:	4622      	mov	r2, r4
100002ba:	2104      	movs	r1, #4
100002bc:	4628      	mov	r0, r5
100002be:	f004 fbd5 	bl	10004a6c <xQueueGenericCreate>
100002c2:	4606      	mov	r6, r0
100002c4:	4f0b      	ldr	r7, [pc, #44]	; (100002f4 <main+0x48>)
100002c6:	f44f 7280 	mov.w	r2, #256	; 0x100
100002ca:	4623      	mov	r3, r4
100002cc:	490a      	ldr	r1, [pc, #40]	; (100002f8 <main+0x4c>)
100002ce:	e9cd 5400 	strd	r5, r4, [sp]
100002d2:	480a      	ldr	r0, [pc, #40]	; (100002fc <main+0x50>)
100002d4:	603e      	str	r6, [r7, #0]
100002d6:	f005 fa23 	bl	10005720 <xTaskCreate>
100002da:	4623      	mov	r3, r4
100002dc:	f44f 7280 	mov.w	r2, #256	; 0x100
100002e0:	4907      	ldr	r1, [pc, #28]	; (10000300 <main+0x54>)
100002e2:	e9cd 5400 	strd	r5, r4, [sp]
100002e6:	4807      	ldr	r0, [pc, #28]	; (10000304 <main+0x58>)
100002e8:	f005 fa1a 	bl	10005720 <xTaskCreate>
100002ec:	f005 fae2 	bl	100058b4 <vTaskStartScheduler>
100002f0:	e7fe      	b.n	100002f0 <main+0x44>
100002f2:	bf00      	nop
100002f4:	20001f1c 	.word	0x20001f1c
100002f8:	10006a6c 	.word	0x10006a6c
100002fc:	10000229 	.word	0x10000229
10000300:	10006a78 	.word	0x10006a78
10000304:	10000279 	.word	0x10000279

10000308 <gpio_init>:
10000308:	b430      	push	{r4, r5}
1000030a:	2300      	movs	r3, #0
1000030c:	ec43 0044 	gpioc_bit_oe_put r0, r3
10000310:	ec43 0040 	gpioc_bit_out_put r0, r3
10000314:	2505      	movs	r5, #5
10000316:	f44f 7480 	mov.w	r4, #256	; 0x100
1000031a:	4b0b      	ldr	r3, [pc, #44]	; (10000348 <gpio_init+0x40>)
1000031c:	00c2      	lsls	r2, r0, #3
1000031e:	f853 1020 	ldr.w	r1, [r3, r0, lsl #2]
10000322:	eb03 0080 	add.w	r0, r3, r0, lsl #2
10000326:	f081 0140 	eor.w	r1, r1, #64	; 0x40
1000032a:	f102 4380 	add.w	r3, r2, #1073741824	; 0x40000000
1000032e:	f503 3320 	add.w	r3, r3, #163840	; 0x28000
10000332:	f001 02c0 	and.w	r2, r1, #192	; 0xc0
10000336:	f500 5180 	add.w	r1, r0, #4096	; 0x1000
1000033a:	f500 5040 	add.w	r0, r0, #12288	; 0x3000
1000033e:	600a      	str	r2, [r1, #0]
10000340:	605d      	str	r5, [r3, #4]
10000342:	6004      	str	r4, [r0, #0]
10000344:	bc30      	pop	{r4, r5}
10000346:	4770      	bx	lr
10000348:	40038004 	.word	0x40038004

1000034c <panic>:
1000034c:	b40f      	push	{r0, r1, r2, r3}
1000034e:	b500      	push	{lr}
10000350:	b083      	sub	sp, #12
10000352:	9c04      	ldr	r4, [sp, #16]
10000354:	4807      	ldr	r0, [pc, #28]	; (10000374 <panic+0x28>)
10000356:	f001 fb19 	bl	1000198c <__wrap_puts>
1000035a:	b13c      	cbz	r4, 1000036c <panic+0x20>
1000035c:	a905      	add	r1, sp, #20
1000035e:	4620      	mov	r0, r4
10000360:	9101      	str	r1, [sp, #4]
10000362:	f001 f9c1 	bl	100016e8 <weak_raw_vprintf>
10000366:	4804      	ldr	r0, [pc, #16]	; (10000378 <panic+0x2c>)
10000368:	f001 fb10 	bl	1000198c <__wrap_puts>
1000036c:	2001      	movs	r0, #1
1000036e:	f001 f9d3 	bl	10001718 <_exit>
10000372:	bf00      	nop
10000374:	10006a84 	.word	0x10006a84
10000378:	10006a94 	.word	0x10006a94

1000037c <hw_claim_lock>:
1000037c:	f3ef 8010 	mrs	r0, PRIMASK
10000380:	b672      	cpsid	i
10000382:	4b06      	ldr	r3, [pc, #24]	; (1000039c <hw_claim_lock+0x20>)
10000384:	e8d3 1fcf 	ldaexb	r1, [r3]
10000388:	2201      	movs	r2, #1
1000038a:	2900      	cmp	r1, #0
1000038c:	d1fa      	bne.n	10000384 <hw_claim_lock+0x8>
1000038e:	e8c3 2f41 	strexb	r1, r2, [r3]
10000392:	2900      	cmp	r1, #0
10000394:	d1f6      	bne.n	10000384 <hw_claim_lock+0x8>
10000396:	f3bf 8f5f 	dmb	sy
1000039a:	4770      	bx	lr
1000039c:	200015db 	.word	0x200015db

100003a0 <hw_claim_unlock>:
100003a0:	2300      	movs	r3, #0
100003a2:	4a03      	ldr	r2, [pc, #12]	; (100003b0 <hw_claim_unlock+0x10>)
100003a4:	e8c2 3f8f 	stlb	r3, [r2]
100003a8:	f380 8810 	msr	PRIMASK, r0
100003ac:	4770      	bx	lr
100003ae:	bf00      	nop
100003b0:	200015db 	.word	0x200015db

100003b4 <hw_claim_or_assert>:
100003b4:	b570      	push	{r4, r5, r6, lr}
100003b6:	f3ef 8510 	mrs	r5, PRIMASK
100003ba:	b672      	cpsid	i
100003bc:	4c13      	ldr	r4, [pc, #76]	; (1000040c <hw_claim_or_assert+0x58>)
100003be:	e8d4 cfcf 	ldaexb	ip, [r4]
100003c2:	2601      	movs	r6, #1
100003c4:	f1bc 0f00 	cmp.w	ip, #0
100003c8:	d1f9      	bne.n	100003be <hw_claim_or_assert+0xa>
100003ca:	e8c4 6f4c 	strexb	ip, r6, [r4]
100003ce:	f1bc 0f00 	cmp.w	ip, #0
100003d2:	d1f4      	bne.n	100003be <hw_claim_or_assert+0xa>
100003d4:	f3bf 8f5f 	dmb	sy
100003d8:	f04f 0c01 	mov.w	ip, #1
100003dc:	ea4f 0ed1 	mov.w	lr, r1, lsr #3
100003e0:	f001 0307 	and.w	r3, r1, #7
100003e4:	fa0c f303 	lsl.w	r3, ip, r3
100003e8:	f810 c00e 	ldrb.w	ip, [r0, lr]
100003ec:	ea1c 0603 	ands.w	r6, ip, r3
100003f0:	d108      	bne.n	10000404 <hw_claim_or_assert+0x50>
100003f2:	ea4c 0303 	orr.w	r3, ip, r3
100003f6:	f800 300e 	strb.w	r3, [r0, lr]
100003fa:	e8c4 6f8f 	stlb	r6, [r4]
100003fe:	f385 8810 	msr	PRIMASK, r5
10000402:	bd70      	pop	{r4, r5, r6, pc}
10000404:	4610      	mov	r0, r2
10000406:	f7ff ffa1 	bl	1000034c <panic>
1000040a:	bf00      	nop
1000040c:	200015db 	.word	0x200015db

10000410 <hw_claim_unused_from_range>:
10000410:	b5f8      	push	{r3, r4, r5, r6, r7, lr}
10000412:	f3ef 8510 	mrs	r5, PRIMASK
10000416:	b672      	cpsid	i
10000418:	4c23      	ldr	r4, [pc, #140]	; (100004a8 <hw_claim_unused_from_range+0x98>)
1000041a:	e8d4 7fcf 	ldaexb	r7, [r4]
1000041e:	2601      	movs	r6, #1
10000420:	2f00      	cmp	r7, #0
10000422:	d1fa      	bne.n	1000041a <hw_claim_unused_from_range+0xa>
10000424:	e8c4 6f47 	strexb	r7, r6, [r4]
10000428:	2f00      	cmp	r7, #0
1000042a:	d1f6      	bne.n	1000041a <hw_claim_unused_from_range+0xa>
1000042c:	f3bf 8f5f 	dmb	sy
10000430:	429a      	cmp	r2, r3
10000432:	d827      	bhi.n	10000484 <hw_claim_unused_from_range+0x74>
10000434:	2601      	movs	r6, #1
10000436:	08d7      	lsrs	r7, r2, #3
10000438:	f810 e007 	ldrb.w	lr, [r0, r7]
1000043c:	f002 0c07 	and.w	ip, r2, #7
10000440:	fa06 fc0c 	lsl.w	ip, r6, ip
10000444:	ea1e 0f0c 	tst.w	lr, ip
10000448:	eb00 07d2 	add.w	r7, r0, r2, lsr #3
1000044c:	d10d      	bne.n	1000046a <hw_claim_unused_from_range+0x5a>
1000044e:	e025      	b.n	1000049c <hw_claim_unused_from_range+0x8c>
10000450:	ea4f 0ed2 	mov.w	lr, r2, lsr #3
10000454:	f810 e00e 	ldrb.w	lr, [r0, lr]
10000458:	f002 0c07 	and.w	ip, r2, #7
1000045c:	fa06 fc0c 	lsl.w	ip, r6, ip
10000460:	ea1e 0f0c 	tst.w	lr, ip
10000464:	eb00 07d2 	add.w	r7, r0, r2, lsr #3
10000468:	d018      	beq.n	1000049c <hw_claim_unused_from_range+0x8c>
1000046a:	3201      	adds	r2, #1
1000046c:	4293      	cmp	r3, r2
1000046e:	d2ef      	bcs.n	10000450 <hw_claim_unused_from_range+0x40>
10000470:	f04f 30ff 	mov.w	r0, #4294967295
10000474:	2300      	movs	r3, #0
10000476:	e8c4 3f8f 	stlb	r3, [r4]
1000047a:	f385 8810 	msr	PRIMASK, r5
1000047e:	4298      	cmp	r0, r3
10000480:	db07      	blt.n	10000492 <hw_claim_unused_from_range+0x82>
10000482:	bdf8      	pop	{r3, r4, r5, r6, r7, pc}
10000484:	2300      	movs	r3, #0
10000486:	e8c4 3f8f 	stlb	r3, [r4]
1000048a:	f385 8810 	msr	PRIMASK, r5
1000048e:	f04f 30ff 	mov.w	r0, #4294967295
10000492:	2900      	cmp	r1, #0
10000494:	d0f5      	beq.n	10000482 <hw_claim_unused_from_range+0x72>
10000496:	9806      	ldr	r0, [sp, #24]
10000498:	f7ff ff58 	bl	1000034c <panic>
1000049c:	ea4e 0c0c 	orr.w	ip, lr, ip
100004a0:	4610      	mov	r0, r2
100004a2:	f887 c000 	strb.w	ip, [r7]
100004a6:	e7e5      	b.n	10000474 <hw_claim_unused_from_range+0x64>
100004a8:	200015db 	.word	0x200015db

100004ac <next_striped_spin_lock_num>:
100004ac:	4a04      	ldr	r2, [pc, #16]	; (100004c0 <next_striped_spin_lock_num+0x14>)
100004ae:	7810      	ldrb	r0, [r2, #0]
100004b0:	1c43      	adds	r3, r0, #1
100004b2:	b2db      	uxtb	r3, r3
100004b4:	2b17      	cmp	r3, #23
100004b6:	bf88      	it	hi
100004b8:	2310      	movhi	r3, #16
100004ba:	7013      	strb	r3, [r2, #0]
100004bc:	4770      	bx	lr
100004be:	bf00      	nop
100004c0:	200011d0 	.word	0x200011d0

100004c4 <spin_lock_claim_unused>:
100004c4:	b510      	push	{r4, lr}
100004c6:	4c05      	ldr	r4, [pc, #20]	; (100004dc <spin_lock_claim_unused+0x18>)
100004c8:	b082      	sub	sp, #8
100004ca:	4601      	mov	r1, r0
100004cc:	231f      	movs	r3, #31
100004ce:	2218      	movs	r2, #24
100004d0:	9400      	str	r4, [sp, #0]
100004d2:	4803      	ldr	r0, [pc, #12]	; (100004e0 <spin_lock_claim_unused+0x1c>)
100004d4:	f7ff ff9c 	bl	10000410 <hw_claim_unused_from_range>
100004d8:	b002      	add	sp, #8
100004da:	bd10      	pop	{r4, pc}
100004dc:	10006a98 	.word	0x10006a98
100004e0:	200019ec 	.word	0x200019ec

100004e4 <spinlock_set_extexclall>:
100004e4:	f04f 22e0 	mov.w	r2, #3758153728	; 0xe000e000
100004e8:	6893      	ldr	r3, [r2, #8]
100004ea:	f043 5300 	orr.w	r3, r3, #536870912	; 0x20000000
100004ee:	6093      	str	r3, [r2, #8]
100004f0:	4770      	bx	lr
100004f2:	bf00      	nop

100004f4 <spin_locks_reset>:
100004f4:	2100      	movs	r1, #0
100004f6:	4b04      	ldr	r3, [pc, #16]	; (10000508 <spin_locks_reset+0x14>)
100004f8:	f103 0220 	add.w	r2, r3, #32
100004fc:	e8c3 1f8f 	stlb	r1, [r3]
10000500:	3301      	adds	r3, #1
10000502:	4293      	cmp	r3, r2
10000504:	d1fa      	bne.n	100004fc <spin_locks_reset+0x8>
10000506:	4770      	bx	lr
10000508:	200015d0 	.word	0x200015d0

1000050c <runtime_init_per_core_irq_priorities>:
1000050c:	f04f 23e0 	mov.w	r3, #3758153728	; 0xe000e000
10000510:	f04f 3280 	mov.w	r2, #2155905152	; 0x80808080
10000514:	f8c3 2400 	str.w	r2, [r3, #1024]	; 0x400
10000518:	f8c3 2404 	str.w	r2, [r3, #1028]	; 0x404
1000051c:	f8c3 2408 	str.w	r2, [r3, #1032]	; 0x408
10000520:	f8c3 240c 	str.w	r2, [r3, #1036]	; 0x40c
10000524:	f8c3 2410 	str.w	r2, [r3, #1040]	; 0x410
10000528:	f8c3 2414 	str.w	r2, [r3, #1044]	; 0x414
1000052c:	f8c3 2418 	str.w	r2, [r3, #1048]	; 0x418
10000530:	f8c3 241c 	str.w	r2, [r3, #1052]	; 0x41c
10000534:	f8c3 2420 	str.w	r2, [r3, #1056]	; 0x420
10000538:	f8c3 2424 	str.w	r2, [r3, #1060]	; 0x424
1000053c:	f8c3 2428 	str.w	r2, [r3, #1064]	; 0x428
10000540:	f8c3 242c 	str.w	r2, [r3, #1068]	; 0x42c
10000544:	f8c3 2430 	str.w	r2, [r3, #1072]	; 0x430
10000548:	b662      	cpsie	i
1000054a:	4770      	bx	lr

1000054c <irq_set_enabled>:
1000054c:	2301      	movs	r3, #1
1000054e:	f000 021f 	and.w	r2, r0, #31
10000552:	4093      	lsls	r3, r2
10000554:	0940      	lsrs	r0, r0, #5
10000556:	b141      	cbz	r1, 1000056a <irq_set_enabled+0x1e>
10000558:	0080      	lsls	r0, r0, #2
1000055a:	f100 4060 	add.w	r0, r0, #3758096384	; 0xe0000000
1000055e:	f500 4061 	add.w	r0, r0, #57600	; 0xe100
10000562:	f8c0 3180 	str.w	r3, [r0, #384]	; 0x180
10000566:	6003      	str	r3, [r0, #0]
10000568:	4770      	bx	lr
1000056a:	4a02      	ldr	r2, [pc, #8]	; (10000574 <irq_set_enabled+0x28>)
1000056c:	3020      	adds	r0, #32
1000056e:	f842 3020 	str.w	r3, [r2, r0, lsl #2]
10000572:	4770      	bx	lr
10000574:	e000e100 	.word	0xe000e100

10000578 <irq_is_enabled>:
10000578:	2301      	movs	r3, #1
1000057a:	4a06      	ldr	r2, [pc, #24]	; (10000594 <irq_is_enabled+0x1c>)
1000057c:	0941      	lsrs	r1, r0, #5
1000057e:	f852 2021 	ldr.w	r2, [r2, r1, lsl #2]
10000582:	f000 001f 	and.w	r0, r0, #31
10000586:	fa03 f000 	lsl.w	r0, r3, r0
1000058a:	4210      	tst	r0, r2
1000058c:	bf14      	ite	ne
1000058e:	4618      	movne	r0, r3
10000590:	2000      	moveq	r0, #0
10000592:	4770      	bx	lr
10000594:	e000e100 	.word	0xe000e100

10000598 <irq_set_pending>:
10000598:	2201      	movs	r2, #1
1000059a:	0943      	lsrs	r3, r0, #5
1000059c:	4904      	ldr	r1, [pc, #16]	; (100005b0 <irq_set_pending+0x18>)
1000059e:	f000 001f 	and.w	r0, r0, #31
100005a2:	fa02 f000 	lsl.w	r0, r2, r0
100005a6:	3340      	adds	r3, #64	; 0x40
100005a8:	f841 0023 	str.w	r0, [r1, r3, lsl #2]
100005ac:	4770      	bx	lr
100005ae:	bf00      	nop
100005b0:	e000e100 	.word	0xe000e100

100005b4 <irq_has_shared_handler>:
100005b4:	4a05      	ldr	r2, [pc, #20]	; (100005cc <irq_has_shared_handler+0x18>)
100005b6:	3010      	adds	r0, #16
100005b8:	6892      	ldr	r2, [r2, #8]
100005ba:	4b05      	ldr	r3, [pc, #20]	; (100005d0 <irq_has_shared_handler+0x1c>)
100005bc:	f852 0020 	ldr.w	r0, [r2, r0, lsl #2]
100005c0:	1ac0      	subs	r0, r0, r3
100005c2:	282f      	cmp	r0, #47	; 0x2f
100005c4:	bf8c      	ite	hi
100005c6:	2000      	movhi	r0, #0
100005c8:	2001      	movls	r0, #1
100005ca:	4770      	bx	lr
100005cc:	e000ed00 	.word	0xe000ed00
100005d0:	200011d4 	.word	0x200011d4

100005d4 <irq_set_exclusive_handler>:
100005d4:	b5f8      	push	{r3, r4, r5, r6, r7, lr}
100005d6:	460d      	mov	r5, r1
100005d8:	f3ef 8710 	mrs	r7, PRIMASK
100005dc:	b672      	cpsid	i
100005de:	4e12      	ldr	r6, [pc, #72]	; (10000628 <irq_set_exclusive_handler+0x54>)
100005e0:	e8d6 2fcf 	ldaexb	r2, [r6]
100005e4:	2301      	movs	r3, #1
100005e6:	2a00      	cmp	r2, #0
100005e8:	d1fa      	bne.n	100005e0 <irq_set_exclusive_handler+0xc>
100005ea:	e8c6 3f42 	strexb	r2, r3, [r6]
100005ee:	2a00      	cmp	r2, #0
100005f0:	d1f6      	bne.n	100005e0 <irq_set_exclusive_handler+0xc>
100005f2:	f3bf 8f5f 	dmb	sy
100005f6:	4b0d      	ldr	r3, [pc, #52]	; (1000062c <irq_set_exclusive_handler+0x58>)
100005f8:	f100 0410 	add.w	r4, r0, #16
100005fc:	689b      	ldr	r3, [r3, #8]
100005fe:	4a0c      	ldr	r2, [pc, #48]	; (10000630 <irq_set_exclusive_handler+0x5c>)
10000600:	f853 3024 	ldr.w	r3, [r3, r4, lsl #2]
10000604:	4293      	cmp	r3, r2
10000606:	d003      	beq.n	10000610 <irq_set_exclusive_handler+0x3c>
10000608:	4299      	cmp	r1, r3
1000060a:	d001      	beq.n	10000610 <irq_set_exclusive_handler+0x3c>
1000060c:	f000 ff20 	bl	10001450 <hard_assertion_failure>
10000610:	4b06      	ldr	r3, [pc, #24]	; (1000062c <irq_set_exclusive_handler+0x58>)
10000612:	689b      	ldr	r3, [r3, #8]
10000614:	f843 5024 	str.w	r5, [r3, r4, lsl #2]
10000618:	f3bf 8f5f 	dmb	sy
1000061c:	2300      	movs	r3, #0
1000061e:	e8c6 3f8f 	stlb	r3, [r6]
10000622:	f387 8810 	msr	PRIMASK, r7
10000626:	bdf8      	pop	{r3, r4, r5, r6, r7, pc}
10000628:	200015d9 	.word	0x200015d9
1000062c:	e000ed00 	.word	0xe000ed00
10000630:	10000111 	.word	0x10000111

10000634 <irq_add_shared_handler>:
10000634:	e92d 4ff0 	stmdb	sp!, {r4, r5, r6, r7, r8, r9, sl, fp, lr}
10000638:	4680      	mov	r8, r0
1000063a:	468b      	mov	fp, r1
1000063c:	4617      	mov	r7, r2
1000063e:	b083      	sub	sp, #12
10000640:	f3ef 8310 	mrs	r3, PRIMASK
10000644:	b672      	cpsid	i
10000646:	f8df a1d0 	ldr.w	sl, [pc, #464]	; 10000818 <irq_add_shared_handler+0x1e4>
1000064a:	9300      	str	r3, [sp, #0]
1000064c:	e8da 1fcf 	ldaexb	r1, [sl]
10000650:	2301      	movs	r3, #1
10000652:	2900      	cmp	r1, #0
10000654:	d1fa      	bne.n	1000064c <irq_add_shared_handler+0x18>
10000656:	e8ca 3f41 	strexb	r1, r3, [sl]
1000065a:	2900      	cmp	r1, #0
1000065c:	d1f6      	bne.n	1000064c <irq_add_shared_handler+0x18>
1000065e:	f3bf 8f5f 	dmb	sy
10000662:	4e66      	ldr	r6, [pc, #408]	; (100007fc <irq_add_shared_handler+0x1c8>)
10000664:	f996 5000 	ldrsb.w	r5, [r6]
10000668:	2d00      	cmp	r5, #0
1000066a:	f2c0 80a0 	blt.w	100007ae <irq_add_shared_handler+0x17a>
1000066e:	4c64      	ldr	r4, [pc, #400]	; (10000800 <irq_add_shared_handler+0x1cc>)
10000670:	eb05 0345 	add.w	r3, r5, r5, lsl #1
10000674:	eb04 0083 	add.w	r0, r4, r3, lsl #2
10000678:	7981      	ldrb	r1, [r0, #6]
1000067a:	f108 0810 	add.w	r8, r8, #16
1000067e:	7031      	strb	r1, [r6, #0]
10000680:	4960      	ldr	r1, [pc, #384]	; (10000804 <irq_add_shared_handler+0x1d0>)
10000682:	009b      	lsls	r3, r3, #2
10000684:	6889      	ldr	r1, [r1, #8]
10000686:	4699      	mov	r9, r3
10000688:	f851 e028 	ldr.w	lr, [r1, r8, lsl #2]
1000068c:	4606      	mov	r6, r0
1000068e:	ebae 0104 	sub.w	r1, lr, r4
10000692:	292f      	cmp	r1, #47	; 0x2f
10000694:	ea4f 0245 	mov.w	r2, r5, lsl #1
10000698:	d931      	bls.n	100006fe <irq_add_shared_handler+0xca>
1000069a:	4b5b      	ldr	r3, [pc, #364]	; (10000808 <irq_add_shared_handler+0x1d4>)
1000069c:	459e      	cmp	lr, r3
1000069e:	f040 80a2 	bne.w	100007e6 <irq_add_shared_handler+0x1b2>
100006a2:	4b5a      	ldr	r3, [pc, #360]	; (1000080c <irq_add_shared_handler+0x1d8>)
100006a4:	f109 0902 	add.w	r9, r9, #2
100006a8:	44a1      	add	r9, r4
100006aa:	3b04      	subs	r3, #4
100006ac:	eba3 0309 	sub.w	r3, r3, r9
100006b0:	f3c3 034a 	ubfx	r3, r3, #1, #11
100006b4:	ea6f 43c3 	mvn.w	r3, r3, lsl #19
100006b8:	f44f 4121 	mov.w	r1, #41216	; 0xa100
100006bc:	ea6f 43d3 	mvn.w	r3, r3, lsr #19
100006c0:	4415      	add	r5, r2
100006c2:	f824 1025 	strh.w	r1, [r4, r5, lsl #2]
100006c6:	eb04 0585 	add.w	r5, r4, r5, lsl #2
100006ca:	806b      	strh	r3, [r5, #2]
100006cc:	f64b 5301 	movw	r3, #48385	; 0xbd01
100006d0:	80ab      	strh	r3, [r5, #4]
100006d2:	23ff      	movs	r3, #255	; 0xff
100006d4:	f046 0e01 	orr.w	lr, r6, #1
100006d8:	71ef      	strb	r7, [r5, #7]
100006da:	f8c5 b008 	str.w	fp, [r5, #8]
100006de:	71ab      	strb	r3, [r5, #6]
100006e0:	4b48      	ldr	r3, [pc, #288]	; (10000804 <irq_add_shared_handler+0x1d0>)
100006e2:	689b      	ldr	r3, [r3, #8]
100006e4:	f843 e028 	str.w	lr, [r3, r8, lsl #2]
100006e8:	f3bf 8f5f 	dmb	sy
100006ec:	2300      	movs	r3, #0
100006ee:	e8ca 3f8f 	stlb	r3, [sl]
100006f2:	9b00      	ldr	r3, [sp, #0]
100006f4:	f383 8810 	msr	PRIMASK, r3
100006f8:	b003      	add	sp, #12
100006fa:	e8bd 8ff0 	ldmia.w	sp!, {r4, r5, r6, r7, r8, r9, sl, fp, pc}
100006fe:	f02e 0101 	bic.w	r1, lr, #1
10000702:	f891 c007 	ldrb.w	ip, [r1, #7]
10000706:	45bc      	cmp	ip, r7
10000708:	d82b      	bhi.n	10000762 <irq_add_shared_handler+0x12e>
1000070a:	f44f 4621 	mov.w	r6, #41216	; 0xa100
1000070e:	52e6      	strh	r6, [r4, r3]
10000710:	4b3e      	ldr	r3, [pc, #248]	; (1000080c <irq_add_shared_handler+0x1d8>)
10000712:	f109 0602 	add.w	r6, r9, #2
10000716:	4426      	add	r6, r4
10000718:	3b04      	subs	r3, #4
1000071a:	f109 0904 	add.w	r9, r9, #4
1000071e:	1b9b      	subs	r3, r3, r6
10000720:	44a1      	add	r9, r4
10000722:	1f0e      	subs	r6, r1, #4
10000724:	71c7      	strb	r7, [r0, #7]
10000726:	eba6 0609 	sub.w	r6, r6, r9
1000072a:	4f39      	ldr	r7, [pc, #228]	; (10000810 <irq_add_shared_handler+0x1dc>)
1000072c:	f3c6 064a 	ubfx	r6, r6, #1, #11
10000730:	433e      	orrs	r6, r7
10000732:	8086      	strh	r6, [r0, #4]
10000734:	f3c3 034a 	ubfx	r3, r3, #1, #11
10000738:	4e36      	ldr	r6, [pc, #216]	; (10000814 <irq_add_shared_handler+0x1e0>)
1000073a:	433b      	orrs	r3, r7
1000073c:	8043      	strh	r3, [r0, #2]
1000073e:	f64a 25aa 	movw	r5, #43690	; 0xaaaa
10000742:	460b      	mov	r3, r1
10000744:	1b1b      	subs	r3, r3, r4
10000746:	415b      	adcs	r3, r3
10000748:	435d      	muls	r5, r3
1000074a:	0d2d      	lsrs	r5, r5, #20
1000074c:	f8c0 b008 	str.w	fp, [r0, #8]
10000750:	7185      	strb	r5, [r0, #6]
10000752:	f040 0e01 	orr.w	lr, r0, #1
10000756:	600e      	str	r6, [r1, #0]
10000758:	e7c2      	b.n	100006e0 <irq_add_shared_handler+0xac>
1000075a:	79c0      	ldrb	r0, [r0, #7]
1000075c:	42b8      	cmp	r0, r7
1000075e:	d92b      	bls.n	100007b8 <irq_add_shared_handler+0x184>
10000760:	4661      	mov	r1, ip
10000762:	f991 3006 	ldrsb.w	r3, [r1, #6]
10000766:	eb03 0043 	add.w	r0, r3, r3, lsl #1
1000076a:	eb04 0080 	add.w	r0, r4, r0, lsl #2
1000076e:	2b00      	cmp	r3, #0
10000770:	4684      	mov	ip, r0
10000772:	daf2      	bge.n	1000075a <irq_add_shared_handler+0x126>
10000774:	f64b 5001 	movw	r0, #48385	; 0xbd01
10000778:	9301      	str	r3, [sp, #4]
1000077a:	1d0b      	adds	r3, r1, #4
1000077c:	3e04      	subs	r6, #4
1000077e:	1af6      	subs	r6, r6, r3
10000780:	f3c6 064a 	ubfx	r6, r6, #1, #11
10000784:	ea6f 46c6 	mvn.w	r6, r6, lsl #19
10000788:	ea6f 46d6 	mvn.w	r6, r6, lsr #19
1000078c:	eb02 0c05 	add.w	ip, r2, r5
10000790:	f8df 9080 	ldr.w	r9, [pc, #128]	; 10000814 <irq_add_shared_handler+0x1e0>
10000794:	9b01      	ldr	r3, [sp, #4]
10000796:	718d      	strb	r5, [r1, #6]
10000798:	eb04 058c 	add.w	r5, r4, ip, lsl #2
1000079c:	808e      	strh	r6, [r1, #4]
1000079e:	f844 902c 	str.w	r9, [r4, ip, lsl #2]
100007a2:	80a8      	strh	r0, [r5, #4]
100007a4:	71ab      	strb	r3, [r5, #6]
100007a6:	71ef      	strb	r7, [r5, #7]
100007a8:	f8c5 b008 	str.w	fp, [r5, #8]
100007ac:	e798      	b.n	100006e0 <irq_add_shared_handler+0xac>
100007ae:	f000 fe4f 	bl	10001450 <hard_assertion_failure>
100007b2:	f996 5000 	ldrsb.w	r5, [r6]
100007b6:	e75a      	b.n	1000066e <irq_add_shared_handler+0x3a>
100007b8:	8888      	ldrh	r0, [r1, #4]
100007ba:	9301      	str	r3, [sp, #4]
100007bc:	0540      	lsls	r0, r0, #21
100007be:	f101 0304 	add.w	r3, r1, #4
100007c2:	d415      	bmi.n	100007f0 <irq_add_shared_handler+0x1bc>
100007c4:	ea4f 5c60 	mov.w	ip, r0, asr #21
100007c8:	f06f 0007 	mvn.w	r0, #7
100007cc:	f10c 0c02 	add.w	ip, ip, #2
100007d0:	eba0 0009 	sub.w	r0, r0, r9
100007d4:	eb03 0c4c 	add.w	ip, r3, ip, lsl #1
100007d8:	1b00      	subs	r0, r0, r4
100007da:	4460      	add	r0, ip
100007dc:	f3c0 004a 	ubfx	r0, r0, #1, #11
100007e0:	f440 4060 	orr.w	r0, r0, #57344	; 0xe000
100007e4:	e7ca      	b.n	1000077c <irq_add_shared_handler+0x148>
100007e6:	9201      	str	r2, [sp, #4]
100007e8:	f000 fe32 	bl	10001450 <hard_assertion_failure>
100007ec:	9a01      	ldr	r2, [sp, #4]
100007ee:	e758      	b.n	100006a2 <irq_add_shared_handler+0x6e>
100007f0:	f500 10ff 	add.w	r0, r0, #2088960	; 0x1fe000
100007f4:	f500 50ff 	add.w	r0, r0, #8160	; 0x1fe0
100007f8:	301f      	adds	r0, #31
100007fa:	e7e3      	b.n	100007c4 <irq_add_shared_handler+0x190>
100007fc:	20006023 	.word	0x20006023
10000800:	200011d4 	.word	0x200011d4
10000804:	e000ed00 	.word	0xe000ed00
10000808:	10000111 	.word	0x10000111
1000080c:	20001204 	.word	0x20001204
10000810:	ffffe000 	.word	0xffffe000
10000814:	47804801 	.word	0x47804801
10000818:	200015d9 	.word	0x200015d9

1000081c <irq_set_priority>:
1000081c:	f04f 0cff 	mov.w	ip, #255	; 0xff
10000820:	f020 0303 	bic.w	r3, r0, #3
10000824:	f103 4360 	add.w	r3, r3, #3758096384	; 0xe0000000
10000828:	f503 4364 	add.w	r3, r3, #58368	; 0xe400
1000082c:	f000 0003 	and.w	r0, r0, #3
10000830:	681a      	ldr	r2, [r3, #0]
10000832:	00c0      	lsls	r0, r0, #3
10000834:	fa0c fc00 	lsl.w	ip, ip, r0
10000838:	ea22 020c 	bic.w	r2, r2, ip
1000083c:	4081      	lsls	r1, r0
1000083e:	430a      	orrs	r2, r1
10000840:	601a      	str	r2, [r3, #0]
10000842:	4770      	bx	lr

10000844 <irq_add_tail_to_free_list>:
10000844:	b5f0      	push	{r4, r5, r6, r7, lr}
10000846:	f3ef 8505 	mrs	r5, IPSR
1000084a:	b2ed      	uxtb	r5, r5
1000084c:	f3ef 8c10 	mrs	ip, PRIMASK
10000850:	b672      	cpsid	i
10000852:	4926      	ldr	r1, [pc, #152]	; (100008ec <irq_add_tail_to_free_list+0xa8>)
10000854:	e8d1 2fcf 	ldaexb	r2, [r1]
10000858:	2301      	movs	r3, #1
1000085a:	2a00      	cmp	r2, #0
1000085c:	d1fa      	bne.n	10000854 <irq_add_tail_to_free_list+0x10>
1000085e:	e8c1 3f42 	strexb	r2, r3, [r1]
10000862:	2a00      	cmp	r2, #0
10000864:	d1f6      	bne.n	10000854 <irq_add_tail_to_free_list+0x10>
10000866:	f3bf 8f5f 	dmb	sy
1000086a:	4e21      	ldr	r6, [pc, #132]	; (100008f0 <irq_add_tail_to_free_list+0xac>)
1000086c:	f040 0e01 	orr.w	lr, r0, #1
10000870:	68b4      	ldr	r4, [r6, #8]
10000872:	f64a 23aa 	movw	r3, #43690	; 0xaaaa
10000876:	f854 7025 	ldr.w	r7, [r4, r5, lsl #2]
1000087a:	4a1e      	ldr	r2, [pc, #120]	; (100008f4 <irq_add_tail_to_free_list+0xb0>)
1000087c:	4604      	mov	r4, r0
1000087e:	1aa4      	subs	r4, r4, r2
10000880:	4164      	adcs	r4, r4
10000882:	4363      	muls	r3, r4
10000884:	0d1b      	lsrs	r3, r3, #20
10000886:	4577      	cmp	r7, lr
10000888:	b25b      	sxtb	r3, r3
1000088a:	d01b      	beq.n	100008c4 <irq_add_tail_to_free_list+0x80>
1000088c:	f992 4006 	ldrsb.w	r4, [r2, #6]
10000890:	429c      	cmp	r4, r3
10000892:	d01c      	beq.n	100008ce <irq_add_tail_to_free_list+0x8a>
10000894:	f992 4012 	ldrsb.w	r4, [r2, #18]
10000898:	429c      	cmp	r4, r3
1000089a:	d023      	beq.n	100008e4 <irq_add_tail_to_free_list+0xa0>
1000089c:	f992 401e 	ldrsb.w	r4, [r2, #30]
100008a0:	429c      	cmp	r4, r3
100008a2:	d021      	beq.n	100008e8 <irq_add_tail_to_free_list+0xa4>
100008a4:	f992 402a 	ldrsb.w	r4, [r2, #42]	; 0x2a
100008a8:	429c      	cmp	r4, r3
100008aa:	bf08      	it	eq
100008ac:	2403      	moveq	r4, #3
100008ae:	d00f      	beq.n	100008d0 <irq_add_tail_to_free_list+0x8c>
100008b0:	4a11      	ldr	r2, [pc, #68]	; (100008f8 <irq_add_tail_to_free_list+0xb4>)
100008b2:	2400      	movs	r4, #0
100008b4:	7815      	ldrb	r5, [r2, #0]
100008b6:	7013      	strb	r3, [r2, #0]
100008b8:	7185      	strb	r5, [r0, #6]
100008ba:	e8c1 4f8f 	stlb	r4, [r1]
100008be:	f38c 8810 	msr	PRIMASK, ip
100008c2:	bdf0      	pop	{r4, r5, r6, r7, pc}
100008c4:	68b2      	ldr	r2, [r6, #8]
100008c6:	4c0d      	ldr	r4, [pc, #52]	; (100008fc <irq_add_tail_to_free_list+0xb8>)
100008c8:	f842 4025 	str.w	r4, [r2, r5, lsl #2]
100008cc:	e7f0      	b.n	100008b0 <irq_add_tail_to_free_list+0x6c>
100008ce:	2400      	movs	r4, #0
100008d0:	eb04 0444 	add.w	r4, r4, r4, lsl #1
100008d4:	eb02 0284 	add.w	r2, r2, r4, lsl #2
100008d8:	24ff      	movs	r4, #255	; 0xff
100008da:	7194      	strb	r4, [r2, #6]
100008dc:	f64b 5401 	movw	r4, #48385	; 0xbd01
100008e0:	8094      	strh	r4, [r2, #4]
100008e2:	e7e5      	b.n	100008b0 <irq_add_tail_to_free_list+0x6c>
100008e4:	2401      	movs	r4, #1
100008e6:	e7f3      	b.n	100008d0 <irq_add_tail_to_free_list+0x8c>
100008e8:	2402      	movs	r4, #2
100008ea:	e7f1      	b.n	100008d0 <irq_add_tail_to_free_list+0x8c>
100008ec:	200015d9 	.word	0x200015d9
100008f0:	e000ed00 	.word	0xe000ed00
100008f4:	200011d4 	.word	0x200011d4
100008f8:	20006023 	.word	0x20006023
100008fc:	10000111 	.word	0x10000111

10000900 <user_irq_claim_unused>:
10000900:	b510      	push	{r4, lr}
10000902:	4c07      	ldr	r4, [pc, #28]	; (10000920 <user_irq_claim_unused+0x20>)
10000904:	b082      	sub	sp, #8
10000906:	4601      	mov	r1, r0
10000908:	2305      	movs	r3, #5
1000090a:	2200      	movs	r2, #0
1000090c:	9400      	str	r4, [sp, #0]
1000090e:	4805      	ldr	r0, [pc, #20]	; (10000924 <user_irq_claim_unused+0x24>)
10000910:	f7ff fd7e 	bl	10000410 <hw_claim_unused_from_range>
10000914:	2800      	cmp	r0, #0
10000916:	bfa8      	it	ge
10000918:	f1c0 0033 	rsbge	r0, r0, #51	; 0x33
1000091c:	b002      	add	sp, #8
1000091e:	bd10      	pop	{r4, pc}
10000920:	10006ab4 	.word	0x10006ab4
10000924:	20006028 	.word	0x20006028

10000928 <lock_init>:
10000928:	4b01      	ldr	r3, [pc, #4]	; (10000930 <lock_init+0x8>)
1000092a:	4419      	add	r1, r3
1000092c:	6001      	str	r1, [r0, #0]
1000092e:	4770      	bx	lr
10000930:	200015d0 	.word	0x200015d0

10000934 <runtime_init_mutex>:
10000934:	e92d 41f0 	stmdb	sp!, {r4, r5, r6, r7, r8, lr}
10000938:	4d15      	ldr	r5, [pc, #84]	; (10000990 <runtime_init_mutex+0x5c>)
1000093a:	4e16      	ldr	r6, [pc, #88]	; (10000994 <runtime_init_mutex+0x60>)
1000093c:	42b5      	cmp	r5, r6
1000093e:	d224      	bcs.n	1000098a <runtime_init_mutex+0x56>
10000940:	462c      	mov	r4, r5
10000942:	6823      	ldr	r3, [r4, #0]
10000944:	f04f 37ff 	mov.w	r7, #4294967295
10000948:	f04f 0800 	mov.w	r8, #0
1000094c:	b18b      	cbz	r3, 10000972 <runtime_init_mutex+0x3e>
1000094e:	f7ff fdad 	bl	100004ac <next_striped_spin_lock_num>
10000952:	4601      	mov	r1, r0
10000954:	4628      	mov	r0, r5
10000956:	f7ff ffe7 	bl	10000928 <lock_init>
1000095a:	6067      	str	r7, [r4, #4]
1000095c:	f884 8008 	strb.w	r8, [r4, #8]
10000960:	f3bf 8f5f 	dmb	sy
10000964:	340c      	adds	r4, #12
10000966:	42b4      	cmp	r4, r6
10000968:	d20f      	bcs.n	1000098a <runtime_init_mutex+0x56>
1000096a:	6823      	ldr	r3, [r4, #0]
1000096c:	4625      	mov	r5, r4
1000096e:	2b00      	cmp	r3, #0
10000970:	d1ed      	bne.n	1000094e <runtime_init_mutex+0x1a>
10000972:	f7ff fd9b 	bl	100004ac <next_striped_spin_lock_num>
10000976:	4601      	mov	r1, r0
10000978:	4628      	mov	r0, r5
1000097a:	f7ff ffd5 	bl	10000928 <lock_init>
1000097e:	6067      	str	r7, [r4, #4]
10000980:	f3bf 8f5f 	dmb	sy
10000984:	3408      	adds	r4, #8
10000986:	42b4      	cmp	r4, r6
10000988:	d3ef      	bcc.n	1000096a <runtime_init_mutex+0x36>
1000098a:	e8bd 81f0 	ldmia.w	sp!, {r4, r5, r6, r7, r8, pc}
1000098e:	bf00      	nop
10000990:	20001274 	.word	0x20001274
10000994:	20001284 	.word	0x20001284

10000998 <mutex_init>:
10000998:	b510      	push	{r4, lr}
1000099a:	4604      	mov	r4, r0
1000099c:	f7ff fd86 	bl	100004ac <next_striped_spin_lock_num>
100009a0:	4601      	mov	r1, r0
100009a2:	4620      	mov	r0, r4
100009a4:	f7ff ffc0 	bl	10000928 <lock_init>
100009a8:	f04f 33ff 	mov.w	r3, #4294967295
100009ac:	6063      	str	r3, [r4, #4]
100009ae:	f3bf 8f5f 	dmb	sy
100009b2:	bd10      	pop	{r4, pc}

100009b4 <critical_section_init>:
100009b4:	b510      	push	{r4, lr}
100009b6:	4604      	mov	r4, r0
100009b8:	2001      	movs	r0, #1
100009ba:	f7ff fd83 	bl	100004c4 <spin_lock_claim_unused>
100009be:	4b03      	ldr	r3, [pc, #12]	; (100009cc <critical_section_init+0x18>)
100009c0:	4418      	add	r0, r3
100009c2:	6020      	str	r0, [r4, #0]
100009c4:	f3bf 8f5f 	dmb	sy
100009c8:	bd10      	pop	{r4, pc}
100009ca:	bf00      	nop
100009cc:	200015d0 	.word	0x200015d0

100009d0 <critical_section_init_with_lock_num>:
100009d0:	4b02      	ldr	r3, [pc, #8]	; (100009dc <critical_section_init_with_lock_num+0xc>)
100009d2:	4419      	add	r1, r3
100009d4:	6001      	str	r1, [r0, #0]
100009d6:	f3bf 8f5f 	dmb	sy
100009da:	4770      	bx	lr
100009dc:	200015d0 	.word	0x200015d0

100009e0 <alarm_pool_irq_handler>:
100009e0:	e92d 4ff0 	stmdb	sp!, {r4, r5, r6, r7, r8, r9, sl, fp, lr}
100009e4:	ed2d 8b02 	vpush	{d8}
100009e8:	b085      	sub	sp, #20
100009ea:	f3ef 8305 	mrs	r3, IPSR
100009ee:	b2db      	uxtb	r3, r3
100009f0:	3b10      	subs	r3, #16
100009f2:	089a      	lsrs	r2, r3, #2
100009f4:	bf18      	it	ne
100009f6:	2201      	movne	r2, #1
100009f8:	f04f 0101 	mov.w	r1, #1
100009fc:	f003 0003 	and.w	r0, r3, #3
10000a00:	4bad      	ldr	r3, [pc, #692]	; (10000cb8 <alarm_pool_irq_handler+0x2d8>)
10000a02:	eb00 0282 	add.w	r2, r0, r2, lsl #2
10000a06:	bf0c      	ite	eq
10000a08:	4fac      	ldreq	r7, [pc, #688]	; (10000cbc <alarm_pool_irq_handler+0x2dc>)
10000a0a:	4fad      	ldrne	r7, [pc, #692]	; (10000cc0 <alarm_pool_irq_handler+0x2e0>)
10000a0c:	f853 6022 	ldr.w	r6, [r3, r2, lsl #2]
10000a10:	fa01 f200 	lsl.w	r2, r1, r0
10000a14:	f507 5341 	add.w	r3, r7, #12352	; 0x3040
10000a18:	ed9f 8ba5 	vldr	d8, [pc, #660]	; 10000cb0 <alarm_pool_irq_handler+0x2d0>
10000a1c:	46b0      	mov	r8, r6
10000a1e:	9001      	str	r0, [sp, #4]
10000a20:	9200      	str	r2, [sp, #0]
10000a22:	605a      	str	r2, [r3, #4]
10000a24:	e035      	b.n	10000a92 <alarm_pool_irq_handler+0xb2>
10000a26:	f8b8 3004 	ldrh.w	r3, [r8, #4]
10000a2a:	041b      	lsls	r3, r3, #16
10000a2c:	f140 8092 	bpl.w	10000b54 <alarm_pool_irq_handler+0x174>
10000a30:	f898 3006 	ldrb.w	r3, [r8, #6]
10000a34:	2b00      	cmp	r3, #0
10000a36:	f040 80df 	bne.w	10000bf8 <alarm_pool_irq_handler+0x218>
10000a3a:	f9b8 2008 	ldrsh.w	r2, [r8, #8]
10000a3e:	2a00      	cmp	r2, #0
10000a40:	f2c0 8125 	blt.w	10000c8e <alarm_pool_irq_handler+0x2ae>
10000a44:	f8d8 3014 	ldr.w	r3, [r8, #20]
10000a48:	eb02 0242 	add.w	r2, r2, r2, lsl #1
10000a4c:	eb03 02c2 	add.w	r2, r3, r2, lsl #3
10000a50:	e9d2 4502 	ldrd	r4, r5, [r2, #8]
10000a54:	f1b5 3fff 	cmp.w	r5, #4294967295
10000a58:	bf08      	it	eq
10000a5a:	f1b4 3fff 	cmpeq.w	r4, #4294967295
10000a5e:	d00d      	beq.n	10000a7c <alarm_pool_irq_handler+0x9c>
10000a60:	9b01      	ldr	r3, [sp, #4]
10000a62:	eb07 0183 	add.w	r1, r7, r3, lsl #2
10000a66:	6abb      	ldr	r3, [r7, #40]	; 0x28
10000a68:	690a      	ldr	r2, [r1, #16]
10000a6a:	1ad2      	subs	r2, r2, r3
10000a6c:	1ae3      	subs	r3, r4, r3
10000a6e:	4293      	cmp	r3, r2
10000a70:	d303      	bcc.n	10000a7a <alarm_pool_irq_handler+0x9a>
10000a72:	6a3b      	ldr	r3, [r7, #32]
10000a74:	9a00      	ldr	r2, [sp, #0]
10000a76:	4213      	tst	r3, r2
10000a78:	d100      	bne.n	10000a7c <alarm_pool_irq_handler+0x9c>
10000a7a:	610c      	str	r4, [r1, #16]
10000a7c:	4638      	mov	r0, r7
10000a7e:	f000 fb5f 	bl	10001140 <timer_time_us_64>
10000a82:	1a20      	subs	r0, r4, r0
10000a84:	eb65 0501 	sbc.w	r5, r5, r1
10000a88:	2801      	cmp	r0, #1
10000a8a:	f175 0300 	sbcs.w	r3, r5, #0
10000a8e:	f280 80fe 	bge.w	10000c8e <alarm_pool_irq_handler+0x2ae>
10000a92:	f9b8 4008 	ldrsh.w	r4, [r8, #8]
10000a96:	9b00      	ldr	r3, [sp, #0]
10000a98:	2c00      	cmp	r4, #0
10000a9a:	63fb      	str	r3, [r7, #60]	; 0x3c
10000a9c:	dbc3      	blt.n	10000a26 <alarm_pool_irq_handler+0x46>
10000a9e:	f8d8 a014 	ldr.w	sl, [r8, #20]
10000aa2:	eb04 0b44 	add.w	fp, r4, r4, lsl #1
10000aa6:	4638      	mov	r0, r7
10000aa8:	eb0a 05cb 	add.w	r5, sl, fp, lsl #3
10000aac:	e9d5 9602 	ldrd	r9, r6, [r5, #8]
10000ab0:	f000 fb46 	bl	10001140 <timer_time_us_64>
10000ab4:	4548      	cmp	r0, r9
10000ab6:	eb61 0106 	sbc.w	r1, r1, r6
10000aba:	2900      	cmp	r1, #0
10000abc:	dbb3      	blt.n	10000a26 <alarm_pool_irq_handler+0x46>
10000abe:	2e00      	cmp	r6, #0
10000ac0:	f2c0 80c3 	blt.w	10000c4a <alarm_pool_irq_handler+0x26a>
10000ac4:	692b      	ldr	r3, [r5, #16]
10000ac6:	4a7f      	ldr	r2, [pc, #508]	; (10000cc4 <alarm_pool_irq_handler+0x2e4>)
10000ac8:	4293      	cmp	r3, r2
10000aca:	f000 80fd 	beq.w	10000cc8 <alarm_pool_irq_handler+0x2e8>
10000ace:	886a      	ldrh	r2, [r5, #2]
10000ad0:	f9b8 0008 	ldrsh.w	r0, [r8, #8]
10000ad4:	b292      	uxth	r2, r2
10000ad6:	ea42 4000 	orr.w	r0, r2, r0, lsl #16
10000ada:	6969      	ldr	r1, [r5, #20]
10000adc:	4798      	blx	r3
10000ade:	4602      	mov	r2, r0
10000ae0:	460b      	mov	r3, r1
10000ae2:	ea52 0103 	orrs.w	r1, r2, r3
10000ae6:	f000 80b0 	beq.w	10000c4a <alarm_pool_irq_handler+0x26a>
10000aea:	2b00      	cmp	r3, #0
10000aec:	f280 80d5 	bge.w	10000c9a <alarm_pool_irq_handler+0x2ba>
10000af0:	ebb9 0002 	subs.w	r0, r9, r2
10000af4:	eb66 0303 	sbc.w	r3, r6, r3
10000af8:	e9c5 0302 	strd	r0, r3, [r5, #8]
10000afc:	f93a 503b 	ldrsh.w	r5, [sl, fp, lsl #3]
10000b00:	2d00      	cmp	r5, #0
10000b02:	db90      	blt.n	10000a26 <alarm_pool_irq_handler+0x46>
10000b04:	f8d8 c014 	ldr.w	ip, [r8, #20]
10000b08:	eb05 0145 	add.w	r1, r5, r5, lsl #1
10000b0c:	eb0c 01c1 	add.w	r1, ip, r1, lsl #3
10000b10:	688a      	ldr	r2, [r1, #8]
10000b12:	1a82      	subs	r2, r0, r2
10000b14:	68ca      	ldr	r2, [r1, #12]
10000b16:	eb63 0202 	sbc.w	r2, r3, r2
10000b1a:	2a00      	cmp	r2, #0
10000b1c:	db83      	blt.n	10000a26 <alarm_pool_irq_handler+0x46>
10000b1e:	f8a8 5008 	strh.w	r5, [r8, #8]
10000b22:	e007      	b.n	10000b34 <alarm_pool_irq_handler+0x154>
10000b24:	6895      	ldr	r5, [r2, #8]
10000b26:	1b45      	subs	r5, r0, r5
10000b28:	68d5      	ldr	r5, [r2, #12]
10000b2a:	eb63 0505 	sbc.w	r5, r3, r5
10000b2e:	2d00      	cmp	r5, #0
10000b30:	db08      	blt.n	10000b44 <alarm_pool_irq_handler+0x164>
10000b32:	4611      	mov	r1, r2
10000b34:	f9b1 6000 	ldrsh.w	r6, [r1]
10000b38:	eb06 0246 	add.w	r2, r6, r6, lsl #1
10000b3c:	2e00      	cmp	r6, #0
10000b3e:	eb0c 02c2 	add.w	r2, ip, r2, lsl #3
10000b42:	daef      	bge.n	10000b24 <alarm_pool_irq_handler+0x144>
10000b44:	f82a 603b 	strh.w	r6, [sl, fp, lsl #3]
10000b48:	800c      	strh	r4, [r1, #0]
10000b4a:	f8b8 3004 	ldrh.w	r3, [r8, #4]
10000b4e:	041b      	lsls	r3, r3, #16
10000b50:	f53f af6e 	bmi.w	10000a30 <alarm_pool_irq_handler+0x50>
10000b54:	f8d8 3010 	ldr.w	r3, [r8, #16]
10000b58:	f3ef 8210 	mrs	r2, PRIMASK
10000b5c:	b672      	cpsid	i
10000b5e:	e8d3 0fcf 	ldaexb	r0, [r3]
10000b62:	2101      	movs	r1, #1
10000b64:	2800      	cmp	r0, #0
10000b66:	d1fa      	bne.n	10000b5e <alarm_pool_irq_handler+0x17e>
10000b68:	e8c3 1f40 	strexb	r0, r1, [r3]
10000b6c:	2800      	cmp	r0, #0
10000b6e:	d1f6      	bne.n	10000b5e <alarm_pool_irq_handler+0x17e>
10000b70:	f3bf 8f5f 	dmb	sy
10000b74:	f64f 70ff 	movw	r0, #65535	; 0xffff
10000b78:	f8b8 9004 	ldrh.w	r9, [r8, #4]
10000b7c:	2300      	movs	r3, #0
10000b7e:	f8d8 1010 	ldr.w	r1, [r8, #16]
10000b82:	fa0f f989 	sxth.w	r9, r9
10000b86:	f8a8 0004 	strh.w	r0, [r8, #4]
10000b8a:	e8c1 3f8f 	stlb	r3, [r1]
10000b8e:	f382 8810 	msr	PRIMASK, r2
10000b92:	4599      	cmp	r9, r3
10000b94:	f6ff af4c 	blt.w	10000a30 <alarm_pool_irq_handler+0x50>
10000b98:	46ba      	mov	sl, r7
10000b9a:	f8d8 5014 	ldr.w	r5, [r8, #20]
10000b9e:	f108 0b08 	add.w	fp, r8, #8
10000ba2:	eb09 0e49 	add.w	lr, r9, r9, lsl #1
10000ba6:	eb05 03ce 	add.w	r3, r5, lr, lsl #3
10000baa:	e9d3 6702 	ldrd	r6, r7, [r3, #8]
10000bae:	f9b8 3008 	ldrsh.w	r3, [r8, #8]
10000bb2:	46dc      	mov	ip, fp
10000bb4:	2b00      	cmp	r3, #0
10000bb6:	da05      	bge.n	10000bc4 <alarm_pool_irq_handler+0x1e4>
10000bb8:	e00f      	b.n	10000bda <alarm_pool_irq_handler+0x1fa>
10000bba:	f935 3034 	ldrsh.w	r3, [r5, r4, lsl #3]
10000bbe:	4684      	mov	ip, r0
10000bc0:	2b00      	cmp	r3, #0
10000bc2:	db0a      	blt.n	10000bda <alarm_pool_irq_handler+0x1fa>
10000bc4:	eb03 0443 	add.w	r4, r3, r3, lsl #1
10000bc8:	eb05 00c4 	add.w	r0, r5, r4, lsl #3
10000bcc:	e9d0 1202 	ldrd	r1, r2, [r0, #8]
10000bd0:	1a71      	subs	r1, r6, r1
10000bd2:	eb67 0202 	sbc.w	r2, r7, r2
10000bd6:	2a00      	cmp	r2, #0
10000bd8:	daef      	bge.n	10000bba <alarm_pool_irq_handler+0x1da>
10000bda:	f8ac 9000 	strh.w	r9, [ip]
10000bde:	f935 903e 	ldrsh.w	r9, [r5, lr, lsl #3]
10000be2:	f825 303e 	strh.w	r3, [r5, lr, lsl #3]
10000be6:	f1b9 0f00 	cmp.w	r9, #0
10000bea:	dada      	bge.n	10000ba2 <alarm_pool_irq_handler+0x1c2>
10000bec:	f898 3006 	ldrb.w	r3, [r8, #6]
10000bf0:	4657      	mov	r7, sl
10000bf2:	2b00      	cmp	r3, #0
10000bf4:	f43f af21 	beq.w	10000a3a <alarm_pool_irq_handler+0x5a>
10000bf8:	2300      	movs	r3, #0
10000bfa:	f888 3006 	strb.w	r3, [r8, #6]
10000bfe:	f9b8 3008 	ldrsh.w	r3, [r8, #8]
10000c02:	f108 0c08 	add.w	ip, r8, #8
10000c06:	1c5e      	adds	r6, r3, #1
10000c08:	d041      	beq.n	10000c8e <alarm_pool_irq_handler+0x2ae>
10000c0a:	461a      	mov	r2, r3
10000c0c:	f8d8 4014 	ldr.w	r4, [r8, #20]
10000c10:	e003      	b.n	10000c1a <alarm_pool_irq_handler+0x23a>
10000c12:	4684      	mov	ip, r0
10000c14:	1c59      	adds	r1, r3, #1
10000c16:	f43f af12 	beq.w	10000a3e <alarm_pool_irq_handler+0x5e>
10000c1a:	eb03 0143 	add.w	r1, r3, r3, lsl #1
10000c1e:	eb04 00c1 	add.w	r0, r4, r1, lsl #3
10000c22:	8845      	ldrh	r5, [r0, #2]
10000c24:	461e      	mov	r6, r3
10000c26:	042d      	lsls	r5, r5, #16
10000c28:	f934 3031 	ldrsh.w	r3, [r4, r1, lsl #3]
10000c2c:	d5f1      	bpl.n	10000c12 <alarm_pool_irq_handler+0x232>
10000c2e:	4296      	cmp	r6, r2
10000c30:	ed80 8b02 	vstr	d8, [r0, #8]
10000c34:	d0ee      	beq.n	10000c14 <alarm_pool_irq_handler+0x234>
10000c36:	f8ac 3000 	strh.w	r3, [ip]
10000c3a:	f8b8 2008 	ldrh.w	r2, [r8, #8]
10000c3e:	f824 2031 	strh.w	r2, [r4, r1, lsl #3]
10000c42:	4632      	mov	r2, r6
10000c44:	f8a8 6008 	strh.w	r6, [r8, #8]
10000c48:	e7e4      	b.n	10000c14 <alarm_pool_irq_handler+0x234>
10000c4a:	f83a 303b 	ldrh.w	r3, [sl, fp, lsl #3]
10000c4e:	f8a8 3008 	strh.w	r3, [r8, #8]
10000c52:	f8d8 3010 	ldr.w	r3, [r8, #16]
10000c56:	f3ef 8210 	mrs	r2, PRIMASK
10000c5a:	b672      	cpsid	i
10000c5c:	e8d3 0fcf 	ldaexb	r0, [r3]
10000c60:	2101      	movs	r1, #1
10000c62:	2800      	cmp	r0, #0
10000c64:	d1fa      	bne.n	10000c5c <alarm_pool_irq_handler+0x27c>
10000c66:	e8c3 1f40 	strexb	r0, r1, [r3]
10000c6a:	2800      	cmp	r0, #0
10000c6c:	d1f6      	bne.n	10000c5c <alarm_pool_irq_handler+0x27c>
10000c6e:	f3bf 8f5f 	dmb	sy
10000c72:	f8b8 3002 	ldrh.w	r3, [r8, #2]
10000c76:	f8d8 1010 	ldr.w	r1, [r8, #16]
10000c7a:	f82a 303b 	strh.w	r3, [sl, fp, lsl #3]
10000c7e:	2300      	movs	r3, #0
10000c80:	f8a8 4002 	strh.w	r4, [r8, #2]
10000c84:	e8c1 3f8f 	stlb	r3, [r1]
10000c88:	f382 8810 	msr	PRIMASK, r2
10000c8c:	e6cb      	b.n	10000a26 <alarm_pool_irq_handler+0x46>
10000c8e:	bf40      	sev
10000c90:	b005      	add	sp, #20
10000c92:	ecbd 8b02 	vpop	{d8}
10000c96:	e8bd 8ff0 	ldmia.w	sp!, {r4, r5, r6, r7, r8, r9, sl, fp, pc}
10000c9a:	4638      	mov	r0, r7
10000c9c:	e9cd 2302 	strd	r2, r3, [sp, #8]
10000ca0:	f000 fa4e 	bl	10001140 <timer_time_us_64>
10000ca4:	9a02      	ldr	r2, [sp, #8]
10000ca6:	9b03      	ldr	r3, [sp, #12]
10000ca8:	1880      	adds	r0, r0, r2
10000caa:	eb43 0301 	adc.w	r3, r3, r1
10000cae:	e723      	b.n	10000af8 <alarm_pool_irq_handler+0x118>
10000cb0:	ffffffff 	.word	0xffffffff
10000cb4:	ffffffff 	.word	0xffffffff
10000cb8:	20001e68 	.word	0x20001e68
10000cbc:	400b0000 	.word	0x400b0000
10000cc0:	400b8000 	.word	0x400b8000
10000cc4:	100009e1 	.word	0x100009e1
10000cc8:	696b      	ldr	r3, [r5, #20]
10000cca:	4618      	mov	r0, r3
10000ccc:	691a      	ldr	r2, [r3, #16]
10000cce:	9302      	str	r3, [sp, #8]
10000cd0:	4790      	blx	r2
10000cd2:	2800      	cmp	r0, #0
10000cd4:	d0b9      	beq.n	10000c4a <alarm_pool_irq_handler+0x26a>
10000cd6:	9b02      	ldr	r3, [sp, #8]
10000cd8:	e9d3 2300 	ldrd	r2, r3, [r3]
10000cdc:	e701      	b.n	10000ae2 <alarm_pool_irq_handler+0x102>
10000cde:	bf00      	nop

10000ce0 <sleep_until_callback>:
10000ce0:	480b      	ldr	r0, [pc, #44]	; (10000d10 <sleep_until_callback+0x30>)
10000ce2:	b508      	push	{r3, lr}
10000ce4:	6803      	ldr	r3, [r0, #0]
10000ce6:	f3ef 8110 	mrs	r1, PRIMASK
10000cea:	b672      	cpsid	i
10000cec:	e8d3 cfcf 	ldaexb	ip, [r3]
10000cf0:	2201      	movs	r2, #1
10000cf2:	f1bc 0f00 	cmp.w	ip, #0
10000cf6:	d1f9      	bne.n	10000cec <sleep_until_callback+0xc>
10000cf8:	e8c3 2f4c 	strexb	ip, r2, [r3]
10000cfc:	f1bc 0f00 	cmp.w	ip, #0
10000d00:	d1f4      	bne.n	10000cec <sleep_until_callback+0xc>
10000d02:	f3bf 8f5f 	dmb	sy
10000d06:	f003 fbdd 	bl	100044c4 <vPortLockInternalSpinUnlockWithNotify>
10000d0a:	2000      	movs	r0, #0
10000d0c:	2100      	movs	r1, #0
10000d0e:	bd08      	pop	{r3, pc}
10000d10:	20001f10 	.word	0x20001f10

10000d14 <runtime_init_default_alarm_pool>:
10000d14:	e92d 4ff8 	stmdb	sp!, {r3, r4, r5, r6, r7, r8, r9, sl, fp, lr}
10000d18:	4c36      	ldr	r4, [pc, #216]	; (10000df4 <runtime_init_default_alarm_pool+0xe0>)
10000d1a:	6925      	ldr	r5, [r4, #16]
10000d1c:	b12d      	cbz	r5, 10000d2a <runtime_init_default_alarm_pool+0x16>
10000d1e:	e8bd 4ff8 	ldmia.w	sp!, {r3, r4, r5, r6, r7, r8, r9, sl, fp, lr}
10000d22:	210a      	movs	r1, #10
10000d24:	4834      	ldr	r0, [pc, #208]	; (10000df8 <runtime_init_default_alarm_pool+0xe4>)
10000d26:	f7ff bdff 	b.w	10000928 <lock_init>
10000d2a:	f8df 80e4 	ldr.w	r8, [pc, #228]	; 10000e10 <runtime_init_default_alarm_pool+0xfc>
10000d2e:	2603      	movs	r6, #3
10000d30:	2103      	movs	r1, #3
10000d32:	4640      	mov	r0, r8
10000d34:	f000 f9f2 	bl	1000111c <timer_hardware_alarm_claim>
10000d38:	f8c4 800c 	str.w	r8, [r4, #12]
10000d3c:	f7ff fbb6 	bl	100004ac <next_striped_spin_lock_num>
10000d40:	f04f 4c50 	mov.w	ip, #3489660928	; 0xd0000000
10000d44:	4b2d      	ldr	r3, [pc, #180]	; (10000dfc <runtime_init_default_alarm_pool+0xe8>)
10000d46:	7026      	strb	r6, [r4, #0]
10000d48:	4418      	add	r0, r3
10000d4a:	f8dc 3000 	ldr.w	r3, [ip]
10000d4e:	210f      	movs	r1, #15
10000d50:	7063      	strb	r3, [r4, #1]
10000d52:	6963      	ldr	r3, [r4, #20]
10000d54:	8061      	strh	r1, [r4, #2]
10000d56:	831d      	strh	r5, [r3, #24]
10000d58:	f04f 0504 	mov.w	r5, #4
10000d5c:	f8a3 5078 	strh.w	r5, [r3, #120]	; 0x78
10000d60:	f04f 0505 	mov.w	r5, #5
10000d64:	f8a3 5090 	strh.w	r5, [r3, #144]	; 0x90
10000d68:	f04f 0506 	mov.w	r5, #6
10000d6c:	f8a3 50a8 	strh.w	r5, [r3, #168]	; 0xa8
10000d70:	f04f 0507 	mov.w	r5, #7
10000d74:	210e      	movs	r1, #14
10000d76:	6120      	str	r0, [r4, #16]
10000d78:	2708      	movs	r7, #8
10000d7a:	f64f 72ff 	movw	r2, #65535	; 0xffff
10000d7e:	f04f 0e0a 	mov.w	lr, #10
10000d82:	f8a3 50c0 	strh.w	r5, [r3, #192]	; 0xc0
10000d86:	f04f 0901 	mov.w	r9, #1
10000d8a:	f04f 0c0c 	mov.w	ip, #12
10000d8e:	f04f 0b02 	mov.w	fp, #2
10000d92:	f04f 0a09 	mov.w	sl, #9
10000d96:	200d      	movs	r0, #13
10000d98:	f04f 050b 	mov.w	r5, #11
10000d9c:	f8a3 1168 	strh.w	r1, [r3, #360]	; 0x168
10000da0:	4917      	ldr	r1, [pc, #92]	; (10000e00 <runtime_init_default_alarm_pool+0xec>)
10000da2:	80a2      	strh	r2, [r4, #4]
10000da4:	f8a3 e108 	strh.w	lr, [r3, #264]	; 0x108
10000da8:	60a1      	str	r1, [r4, #8]
10000daa:	f8a3 b048 	strh.w	fp, [r3, #72]	; 0x48
10000dae:	f8a3 a0f0 	strh.w	sl, [r3, #240]	; 0xf0
10000db2:	f8a3 5120 	strh.w	r5, [r3, #288]	; 0x120
10000db6:	f8a3 c138 	strh.w	ip, [r3, #312]	; 0x138
10000dba:	f8a3 0150 	strh.w	r0, [r3, #336]	; 0x150
10000dbe:	f8a3 9030 	strh.w	r9, [r3, #48]	; 0x30
10000dc2:	f8a3 6060 	strh.w	r6, [r3, #96]	; 0x60
10000dc6:	f8a3 70d8 	strh.w	r7, [r3, #216]	; 0xd8
10000dca:	801a      	strh	r2, [r3, #0]
10000dcc:	4b0d      	ldr	r3, [pc, #52]	; (10000e04 <runtime_init_default_alarm_pool+0xf0>)
10000dce:	4630      	mov	r0, r6
10000dd0:	f8c8 7020 	str.w	r7, [r8, #32]
10000dd4:	490c      	ldr	r1, [pc, #48]	; (10000e08 <runtime_init_default_alarm_pool+0xf4>)
10000dd6:	60dc      	str	r4, [r3, #12]
10000dd8:	f7ff fbfc 	bl	100005d4 <irq_set_exclusive_handler>
10000ddc:	4649      	mov	r1, r9
10000dde:	4630      	mov	r0, r6
10000de0:	f7ff fbb4 	bl	1000054c <irq_set_enabled>
10000de4:	4b09      	ldr	r3, [pc, #36]	; (10000e0c <runtime_init_default_alarm_pool+0xf8>)
10000de6:	210a      	movs	r1, #10
10000de8:	601f      	str	r7, [r3, #0]
10000dea:	4803      	ldr	r0, [pc, #12]	; (10000df8 <runtime_init_default_alarm_pool+0xe4>)
10000dec:	e8bd 4ff8 	ldmia.w	sp!, {r3, r4, r5, r6, r7, r8, r9, sl, fp, lr}
10000df0:	f7ff bd9a 	b.w	10000928 <lock_init>
10000df4:	2000121c 	.word	0x2000121c
10000df8:	20001f10 	.word	0x20001f10
10000dfc:	200015d0 	.word	0x200015d0
10000e00:	0010ffff 	.word	0x0010ffff
10000e04:	20001e68 	.word	0x20001e68
10000e08:	100009e1 	.word	0x100009e1
10000e0c:	400b2040 	.word	0x400b2040
10000e10:	400b0000 	.word	0x400b0000

10000e14 <alarm_pool_get_default>:
10000e14:	4800      	ldr	r0, [pc, #0]	; (10000e18 <alarm_pool_get_default+0x4>)
10000e16:	4770      	bx	lr
10000e18:	2000121c 	.word	0x2000121c

10000e1c <alarm_pool_add_alarm_at>:
10000e1c:	e92d 41f0 	stmdb	sp!, {r4, r5, r6, r7, r8, lr}
10000e20:	f89d 5020 	ldrb.w	r5, [sp, #32]
10000e24:	4604      	mov	r4, r0
10000e26:	4617      	mov	r7, r2
10000e28:	461e      	mov	r6, r3
10000e2a:	b935      	cbnz	r5, 10000e3a <alarm_pool_add_alarm_at+0x1e>
10000e2c:	f000 f990 	bl	10001150 <time_us_64>
10000e30:	4287      	cmp	r7, r0
10000e32:	eb66 0101 	sbc.w	r1, r6, r1
10000e36:	2900      	cmp	r1, #0
10000e38:	db57      	blt.n	10000eea <alarm_pool_add_alarm_at+0xce>
10000e3a:	6921      	ldr	r1, [r4, #16]
10000e3c:	f3ef 8010 	mrs	r0, PRIMASK
10000e40:	b672      	cpsid	i
10000e42:	e8d1 2fcf 	ldaexb	r2, [r1]
10000e46:	2301      	movs	r3, #1
10000e48:	2a00      	cmp	r2, #0
10000e4a:	d1fa      	bne.n	10000e42 <alarm_pool_add_alarm_at+0x26>
10000e4c:	e8c1 3f42 	strexb	r2, r3, [r1]
10000e50:	2a00      	cmp	r2, #0
10000e52:	d1f6      	bne.n	10000e42 <alarm_pool_add_alarm_at+0x26>
10000e54:	f3bf 8f5f 	dmb	sy
10000e58:	f9b4 2002 	ldrsh.w	r2, [r4, #2]
10000e5c:	f8d4 c014 	ldr.w	ip, [r4, #20]
10000e60:	eb02 0142 	add.w	r1, r2, r2, lsl #1
10000e64:	2a00      	cmp	r2, #0
10000e66:	ea4f 0ec1 	mov.w	lr, r1, lsl #3
10000e6a:	eb0c 01c1 	add.w	r1, ip, r1, lsl #3
10000e6e:	db02      	blt.n	10000e76 <alarm_pool_add_alarm_at+0x5a>
10000e70:	f83c 300e 	ldrh.w	r3, [ip, lr]
10000e74:	8063      	strh	r3, [r4, #2]
10000e76:	f04f 0800 	mov.w	r8, #0
10000e7a:	6923      	ldr	r3, [r4, #16]
10000e7c:	e8c3 8f8f 	stlb	r8, [r3]
10000e80:	f380 8810 	msr	PRIMASK, r0
10000e84:	4542      	cmp	r2, r8
10000e86:	db33      	blt.n	10000ef0 <alarm_pool_add_alarm_at+0xd4>
10000e88:	8848      	ldrh	r0, [r1, #2]
10000e8a:	9b06      	ldr	r3, [sp, #24]
10000e8c:	3001      	adds	r0, #1
10000e8e:	f3c0 000e 	ubfx	r0, r0, #0, #15
10000e92:	2801      	cmp	r0, #1
10000e94:	bf38      	it	cc
10000e96:	2001      	movcc	r0, #1
10000e98:	610b      	str	r3, [r1, #16]
10000e9a:	9b07      	ldr	r3, [sp, #28]
10000e9c:	8048      	strh	r0, [r1, #2]
10000e9e:	614b      	str	r3, [r1, #20]
10000ea0:	e9c1 7602 	strd	r7, r6, [r1, #8]
10000ea4:	ea40 4002 	orr.w	r0, r0, r2, lsl #16
10000ea8:	6923      	ldr	r3, [r4, #16]
10000eaa:	f3ef 8110 	mrs	r1, PRIMASK
10000eae:	b672      	cpsid	i
10000eb0:	e8d3 6fcf 	ldaexb	r6, [r3]
10000eb4:	2501      	movs	r5, #1
10000eb6:	2e00      	cmp	r6, #0
10000eb8:	d1fa      	bne.n	10000eb0 <alarm_pool_add_alarm_at+0x94>
10000eba:	e8c3 5f46 	strexb	r6, r5, [r3]
10000ebe:	2e00      	cmp	r6, #0
10000ec0:	d1f6      	bne.n	10000eb0 <alarm_pool_add_alarm_at+0x94>
10000ec2:	f3bf 8f5f 	dmb	sy
10000ec6:	88a3      	ldrh	r3, [r4, #4]
10000ec8:	f82c 300e 	strh.w	r3, [ip, lr]
10000ecc:	80a2      	strh	r2, [r4, #4]
10000ece:	6923      	ldr	r3, [r4, #16]
10000ed0:	e8c3 8f8f 	stlb	r8, [r3]
10000ed4:	f381 8810 	msr	PRIMASK, r1
10000ed8:	2201      	movs	r2, #1
10000eda:	68e3      	ldr	r3, [r4, #12]
10000edc:	7821      	ldrb	r1, [r4, #0]
10000ede:	f503 5301 	add.w	r3, r3, #8256	; 0x2040
10000ee2:	408a      	lsls	r2, r1
10000ee4:	605a      	str	r2, [r3, #4]
10000ee6:	e8bd 81f0 	ldmia.w	sp!, {r4, r5, r6, r7, r8, pc}
10000eea:	4628      	mov	r0, r5
10000eec:	e8bd 81f0 	ldmia.w	sp!, {r4, r5, r6, r7, r8, pc}
10000ef0:	f04f 30ff 	mov.w	r0, #4294967295
10000ef4:	e7f7      	b.n	10000ee6 <alarm_pool_add_alarm_at+0xca>
10000ef6:	bf00      	nop

10000ef8 <alarm_pool_add_alarm_at_force_in_context>:
10000ef8:	4601      	mov	r1, r0
10000efa:	b5f0      	push	{r4, r5, r6, r7, lr}
10000efc:	6900      	ldr	r0, [r0, #16]
10000efe:	f3ef 8710 	mrs	r7, PRIMASK
10000f02:	b672      	cpsid	i
10000f04:	e8d0 5fcf 	ldaexb	r5, [r0]
10000f08:	2401      	movs	r4, #1
10000f0a:	2d00      	cmp	r5, #0
10000f0c:	d1fa      	bne.n	10000f04 <alarm_pool_add_alarm_at_force_in_context+0xc>
10000f0e:	e8c0 4f45 	strexb	r5, r4, [r0]
10000f12:	2d00      	cmp	r5, #0
10000f14:	d1f6      	bne.n	10000f04 <alarm_pool_add_alarm_at_force_in_context+0xc>
10000f16:	f3bf 8f5f 	dmb	sy
10000f1a:	f9b1 e002 	ldrsh.w	lr, [r1, #2]
10000f1e:	694c      	ldr	r4, [r1, #20]
10000f20:	eb0e 0c4e 	add.w	ip, lr, lr, lsl #1
10000f24:	ea4f 06cc 	mov.w	r6, ip, lsl #3
10000f28:	f1be 0f00 	cmp.w	lr, #0
10000f2c:	bfa8      	it	ge
10000f2e:	5ba0      	ldrhge	r0, [r4, r6]
10000f30:	f04f 0500 	mov.w	r5, #0
10000f34:	bfa8      	it	ge
10000f36:	8048      	strhge	r0, [r1, #2]
10000f38:	eb04 0ccc 	add.w	ip, r4, ip, lsl #3
10000f3c:	6908      	ldr	r0, [r1, #16]
10000f3e:	e8c0 5f8f 	stlb	r5, [r0]
10000f42:	f387 8810 	msr	PRIMASK, r7
10000f46:	45ae      	cmp	lr, r5
10000f48:	db35      	blt.n	10000fb6 <alarm_pool_add_alarm_at_force_in_context+0xbe>
10000f4a:	f8bc 0002 	ldrh.w	r0, [ip, #2]
10000f4e:	e9cc 2302 	strd	r2, r3, [ip, #8]
10000f52:	3001      	adds	r0, #1
10000f54:	f3c0 000e 	ubfx	r0, r0, #0, #15
10000f58:	2801      	cmp	r0, #1
10000f5a:	bf38      	it	cc
10000f5c:	2001      	movcc	r0, #1
10000f5e:	9b05      	ldr	r3, [sp, #20]
10000f60:	f8ac 0002 	strh.w	r0, [ip, #2]
10000f64:	f8cc 3010 	str.w	r3, [ip, #16]
10000f68:	9b06      	ldr	r3, [sp, #24]
10000f6a:	ea40 400e 	orr.w	r0, r0, lr, lsl #16
10000f6e:	f8cc 3014 	str.w	r3, [ip, #20]
10000f72:	690b      	ldr	r3, [r1, #16]
10000f74:	f3ef 8210 	mrs	r2, PRIMASK
10000f78:	b672      	cpsid	i
10000f7a:	e8d3 cfcf 	ldaexb	ip, [r3]
10000f7e:	2701      	movs	r7, #1
10000f80:	f1bc 0f00 	cmp.w	ip, #0
10000f84:	d1f9      	bne.n	10000f7a <alarm_pool_add_alarm_at_force_in_context+0x82>
10000f86:	e8c3 7f4c 	strexb	ip, r7, [r3]
10000f8a:	f1bc 0f00 	cmp.w	ip, #0
10000f8e:	d1f4      	bne.n	10000f7a <alarm_pool_add_alarm_at_force_in_context+0x82>
10000f90:	f3bf 8f5f 	dmb	sy
10000f94:	888b      	ldrh	r3, [r1, #4]
10000f96:	53a3      	strh	r3, [r4, r6]
10000f98:	f8a1 e004 	strh.w	lr, [r1, #4]
10000f9c:	690b      	ldr	r3, [r1, #16]
10000f9e:	e8c3 5f8f 	stlb	r5, [r3]
10000fa2:	f382 8810 	msr	PRIMASK, r2
10000fa6:	2201      	movs	r2, #1
10000fa8:	68cb      	ldr	r3, [r1, #12]
10000faa:	7809      	ldrb	r1, [r1, #0]
10000fac:	f503 5301 	add.w	r3, r3, #8256	; 0x2040
10000fb0:	408a      	lsls	r2, r1
10000fb2:	605a      	str	r2, [r3, #4]
10000fb4:	bdf0      	pop	{r4, r5, r6, r7, pc}
10000fb6:	f04f 30ff 	mov.w	r0, #4294967295
10000fba:	bdf0      	pop	{r4, r5, r6, r7, pc}

10000fbc <alarm_pool_cancel_alarm>:
10000fbc:	8942      	ldrh	r2, [r0, #10]
10000fbe:	ebb2 4f21 	cmp.w	r2, r1, asr #16
10000fc2:	dd38      	ble.n	10001036 <alarm_pool_cancel_alarm+0x7a>
10000fc4:	6942      	ldr	r2, [r0, #20]
10000fc6:	140b      	asrs	r3, r1, #16
10000fc8:	eb03 0343 	add.w	r3, r3, r3, lsl #1
10000fcc:	b510      	push	{r4, lr}
10000fce:	eb02 03c3 	add.w	r3, r2, r3, lsl #3
10000fd2:	6904      	ldr	r4, [r0, #16]
10000fd4:	f3ef 8c10 	mrs	ip, PRIMASK
10000fd8:	b672      	cpsid	i
10000fda:	e8d4 efcf 	ldaexb	lr, [r4]
10000fde:	2201      	movs	r2, #1
10000fe0:	f1be 0f00 	cmp.w	lr, #0
10000fe4:	d1f9      	bne.n	10000fda <alarm_pool_cancel_alarm+0x1e>
10000fe6:	e8c4 2f4e 	strexb	lr, r2, [r4]
10000fea:	f1be 0f00 	cmp.w	lr, #0
10000fee:	d1f4      	bne.n	10000fda <alarm_pool_cancel_alarm+0x1e>
10000ff0:	f3bf 8f5f 	dmb	sy
10000ff4:	885a      	ldrh	r2, [r3, #2]
10000ff6:	b289      	uxth	r1, r1
10000ff8:	b292      	uxth	r2, r2
10000ffa:	428a      	cmp	r2, r1
10000ffc:	d007      	beq.n	1000100e <alarm_pool_cancel_alarm+0x52>
10000ffe:	2300      	movs	r3, #0
10001000:	6902      	ldr	r2, [r0, #16]
10001002:	e8c2 3f8f 	stlb	r3, [r2]
10001006:	f38c 8810 	msr	PRIMASK, ip
1000100a:	4618      	mov	r0, r3
1000100c:	bd10      	pop	{r4, pc}
1000100e:	f442 4200 	orr.w	r2, r2, #32768	; 0x8000
10001012:	805a      	strh	r2, [r3, #2]
10001014:	2301      	movs	r3, #1
10001016:	2200      	movs	r2, #0
10001018:	6901      	ldr	r1, [r0, #16]
1000101a:	7183      	strb	r3, [r0, #6]
1000101c:	e8c1 2f8f 	stlb	r2, [r1]
10001020:	f38c 8810 	msr	PRIMASK, ip
10001024:	68c2      	ldr	r2, [r0, #12]
10001026:	7801      	ldrb	r1, [r0, #0]
10001028:	f502 5201 	add.w	r2, r2, #8256	; 0x2040
1000102c:	fa03 f101 	lsl.w	r1, r3, r1
10001030:	4618      	mov	r0, r3
10001032:	6051      	str	r1, [r2, #4]
10001034:	bd10      	pop	{r4, pc}
10001036:	2000      	movs	r0, #0
10001038:	4770      	bx	lr
1000103a:	bf00      	nop

1000103c <alarm_pool_core_num>:
1000103c:	7840      	ldrb	r0, [r0, #1]
1000103e:	4770      	bx	lr

10001040 <best_effort_wfe_or_timeout>:
10001040:	e92d 43f0 	stmdb	sp!, {r4, r5, r6, r7, r8, r9, lr}
10001044:	4607      	mov	r7, r0
10001046:	460e      	mov	r6, r1
10001048:	b083      	sub	sp, #12
1000104a:	f3ef 8405 	mrs	r4, IPSR
1000104e:	b2e4      	uxtb	r4, r4
10001050:	b174      	cbz	r4, 10001070 <best_effort_wfe_or_timeout+0x30>
10001052:	4b2f      	ldr	r3, [pc, #188]	; (10001110 <best_effort_wfe_or_timeout+0xd0>)
10001054:	6a58      	ldr	r0, [r3, #36]	; 0x24
10001056:	4288      	cmp	r0, r1
10001058:	d203      	bcs.n	10001062 <best_effort_wfe_or_timeout+0x22>
1000105a:	2000      	movs	r0, #0
1000105c:	b003      	add	sp, #12
1000105e:	e8bd 83f0 	ldmia.w	sp!, {r4, r5, r6, r7, r8, r9, pc}
10001062:	6a9b      	ldr	r3, [r3, #40]	; 0x28
10001064:	42bb      	cmp	r3, r7
10001066:	d348      	bcc.n	100010fa <best_effort_wfe_or_timeout+0xba>
10001068:	2001      	movs	r0, #1
1000106a:	b003      	add	sp, #12
1000106c:	e8bd 83f0 	ldmia.w	sp!, {r4, r5, r6, r7, r8, r9, pc}
10001070:	4d28      	ldr	r5, [pc, #160]	; (10001114 <best_effort_wfe_or_timeout+0xd4>)
10001072:	f8d5 900c 	ldr.w	r9, [r5, #12]
10001076:	f895 8000 	ldrb.w	r8, [r5]
1000107a:	4648      	mov	r0, r9
1000107c:	f000 f860 	bl	10001140 <timer_time_us_64>
10001080:	f108 0804 	add.w	r8, r8, #4
10001084:	f859 3028 	ldr.w	r3, [r9, r8, lsl #2]
10001088:	1a1b      	subs	r3, r3, r0
1000108a:	1a38      	subs	r0, r7, r0
1000108c:	eb66 0101 	sbc.w	r1, r6, r1
10001090:	4298      	cmp	r0, r3
10001092:	f171 0300 	sbcs.w	r3, r1, #0
10001096:	db0d      	blt.n	100010b4 <best_effort_wfe_or_timeout+0x74>
10001098:	bf20      	wfe
1000109a:	4b1d      	ldr	r3, [pc, #116]	; (10001110 <best_effort_wfe_or_timeout+0xd0>)
1000109c:	6a58      	ldr	r0, [r3, #36]	; 0x24
1000109e:	4286      	cmp	r6, r0
100010a0:	d8db      	bhi.n	1000105a <best_effort_wfe_or_timeout+0x1a>
100010a2:	6a9b      	ldr	r3, [r3, #40]	; 0x28
100010a4:	42bb      	cmp	r3, r7
100010a6:	d2df      	bcs.n	10001068 <best_effort_wfe_or_timeout+0x28>
100010a8:	1a30      	subs	r0, r6, r0
100010aa:	bf18      	it	ne
100010ac:	2001      	movne	r0, #1
100010ae:	b003      	add	sp, #12
100010b0:	e8bd 83f0 	ldmia.w	sp!, {r4, r5, r6, r7, r8, r9, pc}
100010b4:	f000 f84c 	bl	10001150 <time_us_64>
100010b8:	4287      	cmp	r7, r0
100010ba:	eb66 0101 	sbc.w	r1, r6, r1
100010be:	2900      	cmp	r1, #0
100010c0:	db13      	blt.n	100010ea <best_effort_wfe_or_timeout+0xaa>
100010c2:	4b15      	ldr	r3, [pc, #84]	; (10001118 <best_effort_wfe_or_timeout+0xd8>)
100010c4:	4628      	mov	r0, r5
100010c6:	e9cd 3400 	strd	r3, r4, [sp]
100010ca:	463a      	mov	r2, r7
100010cc:	4633      	mov	r3, r6
100010ce:	f7ff ff13 	bl	10000ef8 <alarm_pool_add_alarm_at_force_in_context>
100010d2:	1e01      	subs	r1, r0, #0
100010d4:	dd09      	ble.n	100010ea <best_effort_wfe_or_timeout+0xaa>
100010d6:	4b0e      	ldr	r3, [pc, #56]	; (10001110 <best_effort_wfe_or_timeout+0xd0>)
100010d8:	6a5a      	ldr	r2, [r3, #36]	; 0x24
100010da:	4296      	cmp	r6, r2
100010dc:	d815      	bhi.n	1000110a <best_effort_wfe_or_timeout+0xca>
100010de:	6a9b      	ldr	r3, [r3, #40]	; 0x28
100010e0:	42bb      	cmp	r3, r7
100010e2:	d310      	bcc.n	10001106 <best_effort_wfe_or_timeout+0xc6>
100010e4:	480b      	ldr	r0, [pc, #44]	; (10001114 <best_effort_wfe_or_timeout+0xd4>)
100010e6:	f7ff ff69 	bl	10000fbc <alarm_pool_cancel_alarm>
100010ea:	4b09      	ldr	r3, [pc, #36]	; (10001110 <best_effort_wfe_or_timeout+0xd0>)
100010ec:	6a58      	ldr	r0, [r3, #36]	; 0x24
100010ee:	4286      	cmp	r6, r0
100010f0:	d8b3      	bhi.n	1000105a <best_effort_wfe_or_timeout+0x1a>
100010f2:	6a9b      	ldr	r3, [r3, #40]	; 0x28
100010f4:	42bb      	cmp	r3, r7
100010f6:	d2b7      	bcs.n	10001068 <best_effort_wfe_or_timeout+0x28>
100010f8:	e7d6      	b.n	100010a8 <best_effort_wfe_or_timeout+0x68>
100010fa:	1a40      	subs	r0, r0, r1
100010fc:	bf18      	it	ne
100010fe:	2001      	movne	r0, #1
10001100:	b003      	add	sp, #12
10001102:	e8bd 83f0 	ldmia.w	sp!, {r4, r5, r6, r7, r8, r9, pc}
10001106:	4296      	cmp	r6, r2
10001108:	d1ec      	bne.n	100010e4 <best_effort_wfe_or_timeout+0xa4>
1000110a:	bf20      	wfe
1000110c:	e7ea      	b.n	100010e4 <best_effort_wfe_or_timeout+0xa4>
1000110e:	bf00      	nop
10001110:	400b0000 	.word	0x400b0000
10001114:	2000121c 	.word	0x2000121c
10001118:	10000ce1 	.word	0x10000ce1

1000111c <timer_hardware_alarm_claim>:
1000111c:	b410      	push	{r4}
1000111e:	4b05      	ldr	r3, [pc, #20]	; (10001134 <timer_hardware_alarm_claim+0x18>)
10001120:	4c05      	ldr	r4, [pc, #20]	; (10001138 <timer_hardware_alarm_claim+0x1c>)
10001122:	4a06      	ldr	r2, [pc, #24]	; (1000113c <timer_hardware_alarm_claim+0x20>)
10001124:	42a0      	cmp	r0, r4
10001126:	bf14      	ite	ne
10001128:	4618      	movne	r0, r3
1000112a:	1c58      	addeq	r0, r3, #1
1000112c:	f85d 4b04 	ldr.w	r4, [sp], #4
10001130:	f7ff b940 	b.w	100003b4 <hw_claim_or_assert>
10001134:	200019f0 	.word	0x200019f0
10001138:	400b8000 	.word	0x400b8000
1000113c:	10006ad0 	.word	0x10006ad0

10001140 <timer_time_us_64>:
10001140:	6a41      	ldr	r1, [r0, #36]	; 0x24
10001142:	460b      	mov	r3, r1
10001144:	6a82      	ldr	r2, [r0, #40]	; 0x28
10001146:	6a41      	ldr	r1, [r0, #36]	; 0x24
10001148:	428b      	cmp	r3, r1
1000114a:	d1fa      	bne.n	10001142 <timer_time_us_64+0x2>
1000114c:	4610      	mov	r0, r2
1000114e:	4770      	bx	lr

10001150 <time_us_64>:
10001150:	4b03      	ldr	r3, [pc, #12]	; (10001160 <time_us_64+0x10>)
10001152:	6a59      	ldr	r1, [r3, #36]	; 0x24
10001154:	460a      	mov	r2, r1
10001156:	6a98      	ldr	r0, [r3, #40]	; 0x28
10001158:	6a59      	ldr	r1, [r3, #36]	; 0x24
1000115a:	4291      	cmp	r1, r2
1000115c:	d1fa      	bne.n	10001154 <time_us_64+0x4>
1000115e:	4770      	bx	lr
10001160:	400b0000 	.word	0x400b0000

10001164 <clock_configure_undivided>:
10001164:	eb00 0c40 	add.w	ip, r0, r0, lsl #1
10001168:	ea4f 0c8c 	mov.w	ip, ip, lsl #2
1000116c:	f10c 4c80 	add.w	ip, ip, #1073741824	; 0x40000000
10001170:	f50c 3c80 	add.w	ip, ip, #65536	; 0x10000
10001174:	b570      	push	{r4, r5, r6, lr}
10001176:	f8dc 4004 	ldr.w	r4, [ip, #4]
1000117a:	f1a0 0e04 	sub.w	lr, r0, #4
1000117e:	f5b4 3f80 	cmp.w	r4, #65536	; 0x10000
10001182:	bf38      	it	cc
10001184:	f44f 3480 	movcc.w	r4, #65536	; 0x10000
10001188:	fa5f fe8e 	uxtb.w	lr, lr
1000118c:	bf38      	it	cc
1000118e:	f8cc 4004 	strcc.w	r4, [ip, #4]
10001192:	f1be 0f01 	cmp.w	lr, #1
10001196:	d929      	bls.n	100011ec <clock_configure_undivided+0x88>
10001198:	f44f 6600 	mov.w	r6, #2048	; 0x800
1000119c:	4d24      	ldr	r5, [pc, #144]	; (10001230 <clock_configure_undivided+0xcc>)
1000119e:	f50c 5440 	add.w	r4, ip, #12288	; 0x3000
100011a2:	6026      	str	r6, [r4, #0]
100011a4:	f855 6020 	ldr.w	r6, [r5, r0, lsl #2]
100011a8:	b9be      	cbnz	r6, 100011da <clock_configure_undivided+0x76>
100011aa:	f8dc 4000 	ldr.w	r4, [ip]
100011ae:	f50c 5680 	add.w	r6, ip, #4096	; 0x1000
100011b2:	ea84 1242 	eor.w	r2, r4, r2, lsl #5
100011b6:	f002 02e0 	and.w	r2, r2, #224	; 0xe0
100011ba:	f1be 0f01 	cmp.w	lr, #1
100011be:	6032      	str	r2, [r6, #0]
100011c0:	d928      	bls.n	10001214 <clock_configure_undivided+0xb0>
100011c2:	f44f 6100 	mov.w	r1, #2048	; 0x800
100011c6:	f845 3020 	str.w	r3, [r5, r0, lsl #2]
100011ca:	f44f 3380 	mov.w	r3, #65536	; 0x10000
100011ce:	f50c 5200 	add.w	r2, ip, #8192	; 0x2000
100011d2:	6011      	str	r1, [r2, #0]
100011d4:	f8cc 3004 	str.w	r3, [ip, #4]
100011d8:	bd70      	pop	{r4, r5, r6, pc}
100011da:	696c      	ldr	r4, [r5, #20]
100011dc:	fbb4 f4f6 	udiv	r4, r4, r6
100011e0:	3401      	adds	r4, #1
100011e2:	eb04 0444 	add.w	r4, r4, r4, lsl #1
100011e6:	3c03      	subs	r4, #3
100011e8:	d2fd      	bcs.n	100011e6 <clock_configure_undivided+0x82>
100011ea:	e7de      	b.n	100011aa <clock_configure_undivided+0x46>
100011ec:	2901      	cmp	r1, #1
100011ee:	d1d3      	bne.n	10001198 <clock_configure_undivided+0x34>
100011f0:	2503      	movs	r5, #3
100011f2:	f50c 5440 	add.w	r4, ip, #12288	; 0x3000
100011f6:	6025      	str	r5, [r4, #0]
100011f8:	f8dc 4008 	ldr.w	r4, [ip, #8]
100011fc:	07e4      	lsls	r4, r4, #31
100011fe:	d5fb      	bpl.n	100011f8 <clock_configure_undivided+0x94>
10001200:	f8dc 4000 	ldr.w	r4, [ip]
10001204:	f50c 5680 	add.w	r6, ip, #4096	; 0x1000
10001208:	ea84 1242 	eor.w	r2, r4, r2, lsl #5
1000120c:	f002 02e0 	and.w	r2, r2, #224	; 0xe0
10001210:	4d07      	ldr	r5, [pc, #28]	; (10001230 <clock_configure_undivided+0xcc>)
10001212:	6032      	str	r2, [r6, #0]
10001214:	2201      	movs	r2, #1
10001216:	f8dc 4000 	ldr.w	r4, [ip]
1000121a:	404c      	eors	r4, r1
1000121c:	f004 0403 	and.w	r4, r4, #3
10001220:	6034      	str	r4, [r6, #0]
10001222:	fa02 f101 	lsl.w	r1, r2, r1
10001226:	f8dc 2008 	ldr.w	r2, [ip, #8]
1000122a:	420a      	tst	r2, r1
1000122c:	d0fb      	beq.n	10001226 <clock_configure_undivided+0xc2>
1000122e:	e7c8      	b.n	100011c2 <clock_configure_undivided+0x5e>
10001230:	200019f4 	.word	0x200019f4

10001234 <clock_get_hz>:
10001234:	4b01      	ldr	r3, [pc, #4]	; (1000123c <clock_get_hz+0x8>)
10001236:	f853 0020 	ldr.w	r0, [r3, r0, lsl #2]
1000123a:	4770      	bx	lr
1000123c:	200019f4 	.word	0x200019f4

10001240 <pll_init>:
10001240:	b470      	push	{r4, r5, r6}
10001242:	9c03      	ldr	r4, [sp, #12]
10001244:	6805      	ldr	r5, [r0, #0]
10001246:	0324      	lsls	r4, r4, #12
10001248:	ea44 4303 	orr.w	r3, r4, r3, lsl #16
1000124c:	4c1b      	ldr	r4, [pc, #108]	; (100012bc <pll_init+0x7c>)
1000124e:	2d00      	cmp	r5, #0
10001250:	fbb4 f4f1 	udiv	r4, r4, r1
10001254:	fbb2 f2f4 	udiv	r2, r2, r4
10001258:	db1f      	blt.n	1000129a <pll_init+0x5a>
1000125a:	4d19      	ldr	r5, [pc, #100]	; (100012c0 <pll_init+0x80>)
1000125c:	4c19      	ldr	r4, [pc, #100]	; (100012c4 <pll_init+0x84>)
1000125e:	42a8      	cmp	r0, r5
10001260:	bf0c      	ite	eq
10001262:	f44f 4500 	moveq.w	r5, #32768	; 0x8000
10001266:	f44f 4580 	movne.w	r5, #16384	; 0x4000
1000126a:	4e17      	ldr	r6, [pc, #92]	; (100012c8 <pll_init+0x88>)
1000126c:	6025      	str	r5, [r4, #0]
1000126e:	f504 5480 	add.w	r4, r4, #4096	; 0x1000
10001272:	6025      	str	r5, [r4, #0]
10001274:	68b4      	ldr	r4, [r6, #8]
10001276:	ea35 0404 	bics.w	r4, r5, r4
1000127a:	d1fb      	bne.n	10001274 <pll_init+0x34>
1000127c:	2521      	movs	r5, #33	; 0x21
1000127e:	f500 5440 	add.w	r4, r0, #12288	; 0x3000
10001282:	3404      	adds	r4, #4
10001284:	6001      	str	r1, [r0, #0]
10001286:	6082      	str	r2, [r0, #8]
10001288:	6025      	str	r5, [r4, #0]
1000128a:	6802      	ldr	r2, [r0, #0]
1000128c:	2a00      	cmp	r2, #0
1000128e:	dafc      	bge.n	1000128a <pll_init+0x4a>
10001290:	2208      	movs	r2, #8
10001292:	60c3      	str	r3, [r0, #12]
10001294:	6022      	str	r2, [r4, #0]
10001296:	bc70      	pop	{r4, r5, r6}
10001298:	4770      	bx	lr
1000129a:	6804      	ldr	r4, [r0, #0]
1000129c:	f004 043f 	and.w	r4, r4, #63	; 0x3f
100012a0:	428c      	cmp	r4, r1
100012a2:	d1da      	bne.n	1000125a <pll_init+0x1a>
100012a4:	6884      	ldr	r4, [r0, #8]
100012a6:	f3c4 040b 	ubfx	r4, r4, #0, #12
100012aa:	4294      	cmp	r4, r2
100012ac:	d1d5      	bne.n	1000125a <pll_init+0x1a>
100012ae:	68c4      	ldr	r4, [r0, #12]
100012b0:	f404 24ee 	and.w	r4, r4, #487424	; 0x77000
100012b4:	429c      	cmp	r4, r3
100012b6:	d1d0      	bne.n	1000125a <pll_init+0x1a>
100012b8:	e7ed      	b.n	10001296 <pll_init+0x56>
100012ba:	bf00      	nop
100012bc:	00b71b00 	.word	0x00b71b00
100012c0:	40058000 	.word	0x40058000
100012c4:	40022000 	.word	0x40022000
100012c8:	40020000 	.word	0x40020000

100012cc <watchdog_reboot>:
100012cc:	b430      	push	{r4, r5}
100012ce:	f04f 4480 	mov.w	r4, #1073741824	; 0x40000000
100012d2:	4b1d      	ldr	r3, [pc, #116]	; (10001348 <watchdog_reboot+0x7c>)
100012d4:	601c      	str	r4, [r3, #0]
100012d6:	b1e0      	cbz	r0, 10001312 <watchdog_reboot+0x46>
100012d8:	4c1c      	ldr	r4, [pc, #112]	; (1000134c <watchdog_reboot+0x80>)
100012da:	f5a3 5340 	sub.w	r3, r3, #12288	; 0x3000
100012de:	61dc      	str	r4, [r3, #28]
100012e0:	4c1b      	ldr	r4, [pc, #108]	; (10001350 <watchdog_reboot+0x84>)
100012e2:	f040 0001 	orr.w	r0, r0, #1
100012e6:	4044      	eors	r4, r0
100012e8:	621c      	str	r4, [r3, #32]
100012ea:	6259      	str	r1, [r3, #36]	; 0x24
100012ec:	6298      	str	r0, [r3, #40]	; 0x28
100012ee:	f04f 4580 	mov.w	r5, #1073741824	; 0x40000000
100012f2:	f04f 61e0 	mov.w	r1, #117440512	; 0x7000000
100012f6:	4b14      	ldr	r3, [pc, #80]	; (10001348 <watchdog_reboot+0x7c>)
100012f8:	4816      	ldr	r0, [pc, #88]	; (10001354 <watchdog_reboot+0x88>)
100012fa:	4c17      	ldr	r4, [pc, #92]	; (10001358 <watchdog_reboot+0x8c>)
100012fc:	601d      	str	r5, [r3, #0]
100012fe:	6084      	str	r4, [r0, #8]
10001300:	6019      	str	r1, [r3, #0]
10001302:	b94a      	cbnz	r2, 10001318 <watchdog_reboot+0x4c>
10001304:	bc30      	pop	{r4, r5}
10001306:	f04f 4200 	mov.w	r2, #2147483648	; 0x80000000
1000130a:	f5a3 5380 	sub.w	r3, r3, #4096	; 0x1000
1000130e:	601a      	str	r2, [r3, #0]
10001310:	4770      	bx	lr
10001312:	4b12      	ldr	r3, [pc, #72]	; (1000135c <watchdog_reboot+0x90>)
10001314:	61d8      	str	r0, [r3, #28]
10001316:	e7ea      	b.n	100012ee <watchdog_reboot+0x22>
10001318:	f44f 737a 	mov.w	r3, #1000	; 0x3e8
1000131c:	fb03 f202 	mul.w	r2, r3, r2
10001320:	f1b2 7f80 	cmp.w	r2, #16777216	; 0x1000000
10001324:	d209      	bcs.n	1000133a <watchdog_reboot+0x6e>
10001326:	4b0e      	ldr	r3, [pc, #56]	; (10001360 <watchdog_reboot+0x94>)
10001328:	601a      	str	r2, [r3, #0]
1000132a:	f04f 4180 	mov.w	r1, #1073741824	; 0x40000000
1000132e:	bc30      	pop	{r4, r5}
10001330:	480a      	ldr	r0, [pc, #40]	; (1000135c <watchdog_reboot+0x90>)
10001332:	4b0c      	ldr	r3, [pc, #48]	; (10001364 <watchdog_reboot+0x98>)
10001334:	6042      	str	r2, [r0, #4]
10001336:	6019      	str	r1, [r3, #0]
10001338:	4770      	bx	lr
1000133a:	f06f 437f 	mvn.w	r3, #4278190080	; 0xff000000
1000133e:	4908      	ldr	r1, [pc, #32]	; (10001360 <watchdog_reboot+0x94>)
10001340:	461a      	mov	r2, r3
10001342:	600b      	str	r3, [r1, #0]
10001344:	e7f1      	b.n	1000132a <watchdog_reboot+0x5e>
10001346:	bf00      	nop
10001348:	400db000 	.word	0x400db000
1000134c:	b007c0d3 	.word	0xb007c0d3
10001350:	4ff83f2d 	.word	0x4ff83f2d
10001354:	4001a000 	.word	0x4001a000
10001358:	01fffff3 	.word	0x01fffff3
1000135c:	400d8000 	.word	0x400d8000
10001360:	20001e58 	.word	0x20001e58
10001364:	400da000 	.word	0x400da000

10001368 <tick_start>:
10001368:	2301      	movs	r3, #1
1000136a:	eb00 0040 	add.w	r0, r0, r0, lsl #1
1000136e:	0080      	lsls	r0, r0, #2
10001370:	f100 4080 	add.w	r0, r0, #1073741824	; 0x40000000
10001374:	f500 1084 	add.w	r0, r0, #1081344	; 0x108000
10001378:	6041      	str	r1, [r0, #4]
1000137a:	6003      	str	r3, [r0, #0]
1000137c:	4770      	bx	lr
1000137e:	bf00      	nop

10001380 <rom_reboot.constprop.0.isra.0>:
10001380:	b510      	push	{r4, lr}
10001382:	2400      	movs	r4, #0
10001384:	b082      	sub	sp, #8
10001386:	460b      	mov	r3, r1
10001388:	8ae4      	ldrh	r4, [r4, #22]
1000138a:	2100      	movs	r1, #0
1000138c:	e841 f100 	tt	r1, r1
10001390:	e9cd 0300 	strd	r0, r3, [sp]
10001394:	024b      	lsls	r3, r1, #9
10001396:	bf54      	ite	pl
10001398:	2110      	movpl	r1, #16
1000139a:	2104      	movmi	r1, #4
1000139c:	f244 2052 	movw	r0, #16978	; 0x4252
100013a0:	47a0      	blx	r4
100013a2:	e9dd 2300 	ldrd	r2, r3, [sp]
100013a6:	4686      	mov	lr, r0
100013a8:	210a      	movs	r1, #10
100013aa:	f44f 7081 	mov.w	r0, #258	; 0x102
100013ae:	46f4      	mov	ip, lr
100013b0:	b002      	add	sp, #8
100013b2:	e8bd 4010 	ldmia.w	sp!, {r4, lr}
100013b6:	4760      	bx	ip

100013b8 <rom_func_lookup>:
100013b8:	2300      	movs	r3, #0
100013ba:	8adb      	ldrh	r3, [r3, #22]
100013bc:	2200      	movs	r2, #0
100013be:	e842 f200 	tt	r2, r2
100013c2:	0252      	lsls	r2, r2, #9
100013c4:	d401      	bmi.n	100013ca <rom_func_lookup+0x12>
100013c6:	2110      	movs	r1, #16
100013c8:	4718      	bx	r3
100013ca:	2104      	movs	r1, #4
100013cc:	4718      	bx	r3
100013ce:	bf00      	nop

100013d0 <rom_reset_usb_boot_extra>:
100013d0:	b508      	push	{r3, lr}
100013d2:	460b      	mov	r3, r1
100013d4:	1e01      	subs	r1, r0, #0
100013d6:	db02      	blt.n	100013de <rom_reset_usb_boot_extra+0xe>
100013d8:	b122      	cbz	r2, 100013e4 <rom_reset_usb_boot_extra+0x14>
100013da:	f043 0330 	orr.w	r3, r3, #48	; 0x30
100013de:	4618      	mov	r0, r3
100013e0:	f7ff ffce 	bl	10001380 <rom_reboot.constprop.0.isra.0>
100013e4:	f043 0320 	orr.w	r3, r3, #32
100013e8:	e7f9      	b.n	100013de <rom_reset_usb_boot_extra+0xe>
100013ea:	bf00      	nop

100013ec <runtime_init_bootrom_locking_enable>:
100013ec:	4a03      	ldr	r2, [pc, #12]	; (100013fc <runtime_init_bootrom_locking_enable+0x10>)
100013ee:	f8d2 3828 	ldr.w	r3, [r2, #2088]	; 0x828
100013f2:	2b00      	cmp	r3, #0
100013f4:	d0fb      	beq.n	100013ee <runtime_init_bootrom_locking_enable+0x2>
100013f6:	f3bf 8f5f 	dmb	sy
100013fa:	4770      	bx	lr
100013fc:	400e0000 	.word	0x400e0000

10001400 <runtime_init_boot_locks_reset>:
10001400:	2100      	movs	r1, #0
10001402:	4b04      	ldr	r3, [pc, #16]	; (10001414 <runtime_init_boot_locks_reset+0x14>)
10001404:	4a04      	ldr	r2, [pc, #16]	; (10001418 <runtime_init_boot_locks_reset+0x18>)
10001406:	f3bf 8f5f 	dmb	sy
1000140a:	f843 1b04 	str.w	r1, [r3], #4
1000140e:	4293      	cmp	r3, r2
10001410:	d1f9      	bne.n	10001406 <runtime_init_boot_locks_reset+0x6>
10001412:	4770      	bx	lr
10001414:	400e080c 	.word	0x400e080c
10001418:	400e082c 	.word	0x400e082c

1000141c <xosc_init>:
1000141c:	b410      	push	{r4}
1000141e:	f44f 708d 	mov.w	r0, #282	; 0x11a
10001422:	f44f 642a 	mov.w	r4, #2720	; 0xaa0
10001426:	4a06      	ldr	r2, [pc, #24]	; (10001440 <xosc_init+0x24>)
10001428:	4b06      	ldr	r3, [pc, #24]	; (10001444 <xosc_init+0x28>)
1000142a:	4907      	ldr	r1, [pc, #28]	; (10001448 <xosc_init+0x2c>)
1000142c:	6014      	str	r4, [r2, #0]
1000142e:	60d0      	str	r0, [r2, #12]
10001430:	6019      	str	r1, [r3, #0]
10001432:	6853      	ldr	r3, [r2, #4]
10001434:	2b00      	cmp	r3, #0
10001436:	dafc      	bge.n	10001432 <xosc_init+0x16>
10001438:	f85d 4b04 	ldr.w	r4, [sp], #4
1000143c:	4770      	bx	lr
1000143e:	bf00      	nop
10001440:	40048000 	.word	0x40048000
10001444:	4004a000 	.word	0x4004a000
10001448:	00fab000 	.word	0x00fab000

1000144c <first_per_core_initializer>:
1000144c:	4770      	bx	lr
1000144e:	bf00      	nop

10001450 <hard_assertion_failure>:
10001450:	b508      	push	{r3, lr}
10001452:	4801      	ldr	r0, [pc, #4]	; (10001458 <hard_assertion_failure+0x8>)
10001454:	f7fe ff7a 	bl	1000034c <panic>
10001458:	10006af4 	.word	0x10006af4

1000145c <runtime_run_initializers>:
1000145c:	b538      	push	{r3, r4, r5, lr}
1000145e:	4c05      	ldr	r4, [pc, #20]	; (10001474 <runtime_run_initializers+0x18>)
10001460:	4d05      	ldr	r5, [pc, #20]	; (10001478 <runtime_run_initializers+0x1c>)
10001462:	42ac      	cmp	r4, r5
10001464:	d204      	bcs.n	10001470 <runtime_run_initializers+0x14>
10001466:	f854 3b04 	ldr.w	r3, [r4], #4
1000146a:	4798      	blx	r3
1000146c:	42ac      	cmp	r4, r5
1000146e:	d3fa      	bcc.n	10001466 <runtime_run_initializers+0xa>
10001470:	bd38      	pop	{r3, r4, r5, pc}
10001472:	bf00      	nop
10001474:	10006a10 	.word	0x10006a10
10001478:	10006a50 	.word	0x10006a50

1000147c <runtime_init_early_resets>:
1000147c:	b410      	push	{r4}
1000147e:	4807      	ldr	r0, [pc, #28]	; (1000149c <runtime_init_early_resets+0x20>)
10001480:	4c07      	ldr	r4, [pc, #28]	; (100014a0 <runtime_init_early_resets+0x24>)
10001482:	4b08      	ldr	r3, [pc, #32]	; (100014a4 <runtime_init_early_resets+0x28>)
10001484:	4a08      	ldr	r2, [pc, #32]	; (100014a8 <runtime_init_early_resets+0x2c>)
10001486:	4909      	ldr	r1, [pc, #36]	; (100014ac <runtime_init_early_resets+0x30>)
10001488:	6004      	str	r4, [r0, #0]
1000148a:	601a      	str	r2, [r3, #0]
1000148c:	688b      	ldr	r3, [r1, #8]
1000148e:	ea32 0303 	bics.w	r3, r2, r3
10001492:	d1fb      	bne.n	1000148c <runtime_init_early_resets+0x10>
10001494:	f85d 4b04 	ldr.w	r4, [sp], #4
10001498:	4770      	bx	lr
1000149a:	bf00      	nop
1000149c:	40022000 	.word	0x40022000
100014a0:	efef3b7f 	.word	0xefef3b7f
100014a4:	40023000 	.word	0x40023000
100014a8:	03f3fff6 	.word	0x03f3fff6
100014ac:	40020000 	.word	0x40020000

100014b0 <runtime_init_usb_power_down>:
100014b0:	4b04      	ldr	r3, [pc, #16]	; (100014c4 <runtime_init_usb_power_down+0x14>)
100014b2:	6cdb      	ldr	r3, [r3, #76]	; 0x4c
100014b4:	f5b3 4f00 	cmp.w	r3, #32768	; 0x8000
100014b8:	d103      	bne.n	100014c2 <runtime_init_usb_power_down+0x12>
100014ba:	f44f 2280 	mov.w	r2, #262144	; 0x40000
100014be:	4b02      	ldr	r3, [pc, #8]	; (100014c8 <runtime_init_usb_power_down+0x18>)
100014c0:	64da      	str	r2, [r3, #76]	; 0x4c
100014c2:	4770      	bx	lr
100014c4:	50110000 	.word	0x50110000
100014c8:	50112000 	.word	0x50112000

100014cc <runtime_init_per_core_enable_coprocessors>:
100014cc:	f04f 22e0 	mov.w	r2, #3758153728	; 0xe000e000
100014d0:	4b04      	ldr	r3, [pc, #16]	; (100014e4 <runtime_init_per_core_enable_coprocessors+0x18>)
100014d2:	f8d2 1d88 	ldr.w	r1, [r2, #3464]	; 0xd88
100014d6:	430b      	orrs	r3, r1
100014d8:	f8c2 3d88 	str.w	r3, [r2, #3464]	; 0xd88
100014dc:	ee10 0430 	dcp_rcmp r0
100014e0:	4770      	bx	lr
100014e2:	bf00      	nop
100014e4:	00300303 	.word	0x00300303

100014e8 <runtime_init_post_clock_resets>:
100014e8:	f06f 4160 	mvn.w	r1, #3758096384	; 0xe0000000
100014ec:	4b04      	ldr	r3, [pc, #16]	; (10001500 <runtime_init_post_clock_resets+0x18>)
100014ee:	4a05      	ldr	r2, [pc, #20]	; (10001504 <runtime_init_post_clock_resets+0x1c>)
100014f0:	6019      	str	r1, [r3, #0]
100014f2:	6893      	ldr	r3, [r2, #8]
100014f4:	43db      	mvns	r3, r3
100014f6:	f033 4360 	bics.w	r3, r3, #3758096384	; 0xe0000000
100014fa:	d1fa      	bne.n	100014f2 <runtime_init_post_clock_resets+0xa>
100014fc:	4770      	bx	lr
100014fe:	bf00      	nop
10001500:	40023000 	.word	0x40023000
10001504:	40020000 	.word	0x40020000

10001508 <runtime_init_bootrom_reset>:
10001508:	b510      	push	{r4, lr}
1000150a:	f245 2053 	movw	r0, #21075	; 0x5253
1000150e:	f7ff ff53 	bl	100013b8 <rom_func_lookup>
10001512:	e8bd 4010 	ldmia.w	sp!, {r4, lr}
10001516:	4603      	mov	r3, r0
10001518:	2004      	movs	r0, #4
1000151a:	4718      	bx	r3

1000151c <runtime_init_per_core_bootrom_reset>:
1000151c:	b510      	push	{r4, lr}
1000151e:	f245 2053 	movw	r0, #21075	; 0x5253
10001522:	f7ff ff49 	bl	100013b8 <rom_func_lookup>
10001526:	e8bd 4010 	ldmia.w	sp!, {r4, lr}
1000152a:	4603      	mov	r3, r0
1000152c:	2001      	movs	r0, #1
1000152e:	4718      	bx	r3

10001530 <runtime_init_spin_locks_reset>:
10001530:	f7fe bfe0 	b.w	100004f4 <spin_locks_reset>

10001534 <runtime_init_install_ram_vector_table>:
10001534:	b570      	push	{r4, r5, r6, lr}
10001536:	492e      	ldr	r1, [pc, #184]	; (100015f0 <runtime_init_install_ram_vector_table+0xbc>)
10001538:	4c2e      	ldr	r4, [pc, #184]	; (100015f4 <runtime_init_install_ram_vector_table+0xc0>)
1000153a:	4e2f      	ldr	r6, [pc, #188]	; (100015f8 <runtime_init_install_ram_vector_table+0xc4>)
1000153c:	1a64      	subs	r4, r4, r1
1000153e:	10a5      	asrs	r5, r4, #2
10001540:	2d44      	cmp	r5, #68	; 0x44
10001542:	462a      	mov	r2, r5
10001544:	bf28      	it	cs
10001546:	2244      	movcs	r2, #68	; 0x44
10001548:	4630      	mov	r0, r6
1000154a:	0092      	lsls	r2, r2, #2
1000154c:	f005 f90e 	bl	1000676c <memcpy>
10001550:	f5b4 7f86 	cmp.w	r4, #268	; 0x10c
10001554:	d847      	bhi.n	100015e6 <runtime_init_install_ram_vector_table+0xb2>
10001556:	f105 0c01 	add.w	ip, r5, #1
1000155a:	f1bc 0f44 	cmp.w	ip, #68	; 0x44
1000155e:	f1c5 0143 	rsb	r1, r5, #67	; 0x43
10001562:	4434      	add	r4, r6
10001564:	f1c5 0044 	rsb	r0, r5, #68	; 0x44
10001568:	bf88      	it	hi
1000156a:	2001      	movhi	r0, #1
1000156c:	2905      	cmp	r1, #5
1000156e:	4663      	mov	r3, ip
10001570:	4a22      	ldr	r2, [pc, #136]	; (100015fc <runtime_init_install_ram_vector_table+0xc8>)
10001572:	f3c4 0480 	ubfx	r4, r4, #2, #1
10001576:	d918      	bls.n	100015aa <runtime_init_install_ram_vector_table+0x76>
10001578:	f1bc 0f44 	cmp.w	ip, #68	; 0x44
1000157c:	d815      	bhi.n	100015aa <runtime_init_install_ram_vector_table+0x76>
1000157e:	b3ac      	cbz	r4, 100015ec <runtime_init_install_ram_vector_table+0xb8>
10001580:	f846 2025 	str.w	r2, [r6, r5, lsl #2]
10001584:	1b00      	subs	r0, r0, r4
10001586:	442c      	add	r4, r5
10001588:	eb06 0384 	add.w	r3, r6, r4, lsl #2
1000158c:	0841      	lsrs	r1, r0, #1
1000158e:	eb03 01c1 	add.w	r1, r3, r1, lsl #3
10001592:	e9c3 2200 	strd	r2, r2, [r3]
10001596:	3308      	adds	r3, #8
10001598:	4299      	cmp	r1, r3
1000159a:	d1fa      	bne.n	10001592 <runtime_init_install_ram_vector_table+0x5e>
1000159c:	f020 0301 	bic.w	r3, r0, #1
100015a0:	4298      	cmp	r0, r3
100015a2:	eb0c 0503 	add.w	r5, ip, r3
100015a6:	d01e      	beq.n	100015e6 <runtime_init_install_ram_vector_table+0xb2>
100015a8:	1c6b      	adds	r3, r5, #1
100015aa:	2b44      	cmp	r3, #68	; 0x44
100015ac:	f846 2025 	str.w	r2, [r6, r5, lsl #2]
100015b0:	d019      	beq.n	100015e6 <runtime_init_install_ram_vector_table+0xb2>
100015b2:	2d42      	cmp	r5, #66	; 0x42
100015b4:	f846 2023 	str.w	r2, [r6, r3, lsl #2]
100015b8:	f105 0302 	add.w	r3, r5, #2
100015bc:	d013      	beq.n	100015e6 <runtime_init_install_ram_vector_table+0xb2>
100015be:	2d41      	cmp	r5, #65	; 0x41
100015c0:	f846 2023 	str.w	r2, [r6, r3, lsl #2]
100015c4:	f105 0303 	add.w	r3, r5, #3
100015c8:	d00d      	beq.n	100015e6 <runtime_init_install_ram_vector_table+0xb2>
100015ca:	2d40      	cmp	r5, #64	; 0x40
100015cc:	f846 2023 	str.w	r2, [r6, r3, lsl #2]
100015d0:	f105 0304 	add.w	r3, r5, #4
100015d4:	d007      	beq.n	100015e6 <runtime_init_install_ram_vector_table+0xb2>
100015d6:	2d3f      	cmp	r5, #63	; 0x3f
100015d8:	f846 2023 	str.w	r2, [r6, r3, lsl #2]
100015dc:	f105 0305 	add.w	r3, r5, #5
100015e0:	d001      	beq.n	100015e6 <runtime_init_install_ram_vector_table+0xb2>
100015e2:	f846 2023 	str.w	r2, [r6, r3, lsl #2]
100015e6:	4b06      	ldr	r3, [pc, #24]	; (10001600 <runtime_init_install_ram_vector_table+0xcc>)
100015e8:	609e      	str	r6, [r3, #8]
100015ea:	bd70      	pop	{r4, r5, r6, pc}
100015ec:	46ac      	mov	ip, r5
100015ee:	e7c9      	b.n	10001584 <runtime_init_install_ram_vector_table+0x50>
100015f0:	10000000 	.word	0x10000000
100015f4:	10000110 	.word	0x10000110
100015f8:	20000000 	.word	0x20000000
100015fc:	10000111 	.word	0x10000111
10001600:	e000ed00 	.word	0xe000ed00

10001604 <runtime_init_clocks>:
10001604:	2300      	movs	r3, #0
10001606:	b5f0      	push	{r4, r5, r6, r7, lr}
10001608:	4c2b      	ldr	r4, [pc, #172]	; (100016b8 <runtime_init_clocks+0xb4>)
1000160a:	b083      	sub	sp, #12
1000160c:	f8c4 3084 	str.w	r3, [r4, #132]	; 0x84
10001610:	f7ff ff04 	bl	1000141c <xosc_init>
10001614:	2201      	movs	r2, #1
10001616:	4b29      	ldr	r3, [pc, #164]	; (100016bc <runtime_init_clocks+0xb8>)
10001618:	63da      	str	r2, [r3, #60]	; 0x3c
1000161a:	6c63      	ldr	r3, [r4, #68]	; 0x44
1000161c:	2b01      	cmp	r3, #1
1000161e:	d1fc      	bne.n	1000161a <runtime_init_clocks+0x16>
10001620:	2103      	movs	r1, #3
10001622:	4a26      	ldr	r2, [pc, #152]	; (100016bc <runtime_init_clocks+0xb8>)
10001624:	4b24      	ldr	r3, [pc, #144]	; (100016b8 <runtime_init_clocks+0xb4>)
10001626:	6311      	str	r1, [r2, #48]	; 0x30
10001628:	6b9d      	ldr	r5, [r3, #56]	; 0x38
1000162a:	2d01      	cmp	r5, #1
1000162c:	d1fc      	bne.n	10001628 <runtime_init_clocks+0x24>
1000162e:	2305      	movs	r3, #5
10001630:	2702      	movs	r7, #2
10001632:	461e      	mov	r6, r3
10001634:	2400      	movs	r4, #0
10001636:	4629      	mov	r1, r5
10001638:	4a21      	ldr	r2, [pc, #132]	; (100016c0 <runtime_init_clocks+0xbc>)
1000163a:	4822      	ldr	r0, [pc, #136]	; (100016c4 <runtime_init_clocks+0xc0>)
1000163c:	9700      	str	r7, [sp, #0]
1000163e:	f7ff fdff 	bl	10001240 <pll_init>
10001642:	4629      	mov	r1, r5
10001644:	4633      	mov	r3, r6
10001646:	4a20      	ldr	r2, [pc, #128]	; (100016c8 <runtime_init_clocks+0xc4>)
10001648:	4820      	ldr	r0, [pc, #128]	; (100016cc <runtime_init_clocks+0xc8>)
1000164a:	9600      	str	r6, [sp, #0]
1000164c:	f7ff fdf8 	bl	10001240 <pll_init>
10001650:	4639      	mov	r1, r7
10001652:	4622      	mov	r2, r4
10001654:	2004      	movs	r0, #4
10001656:	4b1e      	ldr	r3, [pc, #120]	; (100016d0 <runtime_init_clocks+0xcc>)
10001658:	f7ff fd84 	bl	10001164 <clock_configure_undivided>
1000165c:	4629      	mov	r1, r5
1000165e:	4622      	mov	r2, r4
10001660:	4630      	mov	r0, r6
10001662:	4b1c      	ldr	r3, [pc, #112]	; (100016d4 <runtime_init_clocks+0xd0>)
10001664:	f7ff fd7e 	bl	10001164 <clock_configure_undivided>
10001668:	4622      	mov	r2, r4
1000166a:	2008      	movs	r0, #8
1000166c:	4621      	mov	r1, r4
1000166e:	4b1a      	ldr	r3, [pc, #104]	; (100016d8 <runtime_init_clocks+0xd4>)
10001670:	f7ff fd78 	bl	10001164 <clock_configure_undivided>
10001674:	4622      	mov	r2, r4
10001676:	2009      	movs	r0, #9
10001678:	4621      	mov	r1, r4
1000167a:	4b17      	ldr	r3, [pc, #92]	; (100016d8 <runtime_init_clocks+0xd4>)
1000167c:	f7ff fd72 	bl	10001164 <clock_configure_undivided>
10001680:	4622      	mov	r2, r4
10001682:	2006      	movs	r0, #6
10001684:	4621      	mov	r1, r4
10001686:	4b13      	ldr	r3, [pc, #76]	; (100016d4 <runtime_init_clocks+0xd0>)
10001688:	f7ff fd6c 	bl	10001164 <clock_configure_undivided>
1000168c:	4b11      	ldr	r3, [pc, #68]	; (100016d4 <runtime_init_clocks+0xd0>)
1000168e:	4622      	mov	r2, r4
10001690:	2007      	movs	r0, #7
10001692:	4621      	mov	r1, r4
10001694:	f7ff fd66 	bl	10001164 <clock_configure_undivided>
10001698:	2004      	movs	r0, #4
1000169a:	f7ff fdcb 	bl	10001234 <clock_get_hz>
1000169e:	4d0f      	ldr	r5, [pc, #60]	; (100016dc <runtime_init_clocks+0xd8>)
100016a0:	fba5 3500 	umull	r3, r5, r5, r0
100016a4:	0cad      	lsrs	r5, r5, #18
100016a6:	b2e0      	uxtb	r0, r4
100016a8:	4629      	mov	r1, r5
100016aa:	3401      	adds	r4, #1
100016ac:	f7ff fe5c 	bl	10001368 <tick_start>
100016b0:	2c06      	cmp	r4, #6
100016b2:	d1f8      	bne.n	100016a6 <runtime_init_clocks+0xa2>
100016b4:	b003      	add	sp, #12
100016b6:	bdf0      	pop	{r4, r5, r6, r7, pc}
100016b8:	40010000 	.word	0x40010000
100016bc:	40013000 	.word	0x40013000
100016c0:	59682f00 	.word	0x59682f00
100016c4:	40050000 	.word	0x40050000
100016c8:	47868c00 	.word	0x47868c00
100016cc:	40058000 	.word	0x40058000
100016d0:	00b71b00 	.word	0x00b71b00
100016d4:	08f0d180 	.word	0x08f0d180
100016d8:	02dc6c00 	.word	0x02dc6c00
100016dc:	431bde83 	.word	0x431bde83

100016e0 <_out_char>:
100016e0:	b900      	cbnz	r0, 100016e4 <_out_char+0x4>
100016e2:	4770      	bx	lr
100016e4:	f000 b914 	b.w	10001910 <__wrap_putchar>

100016e8 <weak_raw_vprintf>:
100016e8:	b510      	push	{r4, lr}
100016ea:	4b09      	ldr	r3, [pc, #36]	; (10001710 <weak_raw_vprintf+0x28>)
100016ec:	b084      	sub	sp, #16
100016ee:	681c      	ldr	r4, [r3, #0]
100016f0:	b14c      	cbz	r4, 10001706 <weak_raw_vprintf+0x1e>
100016f2:	4603      	mov	r3, r0
100016f4:	9100      	str	r1, [sp, #0]
100016f6:	f04f 32ff 	mov.w	r2, #4294967295
100016fa:	a903      	add	r1, sp, #12
100016fc:	4805      	ldr	r0, [pc, #20]	; (10001714 <weak_raw_vprintf+0x2c>)
100016fe:	47a0      	blx	r4
10001700:	2001      	movs	r0, #1
10001702:	b004      	add	sp, #16
10001704:	bd10      	pop	{r4, pc}
10001706:	f000 f941 	bl	1000198c <__wrap_puts>
1000170a:	4620      	mov	r0, r4
1000170c:	b004      	add	sp, #16
1000170e:	bd10      	pop	{r4, pc}
10001710:	20001e54 	.word	0x20001e54
10001714:	100016e1 	.word	0x100016e1

10001718 <_exit>:
10001718:	be00      	bkpt	0x0000
1000171a:	e7fd      	b.n	10001718 <_exit>

1000171c <exit>:
1000171c:	b508      	push	{r3, lr}
1000171e:	f7ff fffb 	bl	10001718 <_exit>
10001722:	bf00      	nop

10001724 <runtime_init>:
10001724:	b538      	push	{r3, r4, r5, lr}
10001726:	4d06      	ldr	r5, [pc, #24]	; (10001740 <runtime_init+0x1c>)
10001728:	4c06      	ldr	r4, [pc, #24]	; (10001744 <runtime_init+0x20>)
1000172a:	f7ff fe97 	bl	1000145c <runtime_run_initializers>
1000172e:	42ac      	cmp	r4, r5
10001730:	d204      	bcs.n	1000173c <runtime_init+0x18>
10001732:	f854 3b04 	ldr.w	r3, [r4], #4
10001736:	4798      	blx	r3
10001738:	42ac      	cmp	r4, r5
1000173a:	d3fa      	bcc.n	10001732 <runtime_init+0xe>
1000173c:	bd38      	pop	{r3, r4, r5, pc}
1000173e:	bf00      	nop
10001740:	10006a5c 	.word	0x10006a5c
10001744:	10006a50 	.word	0x10006a50

10001748 <stdio_out_chars_no_crlf>:
10001748:	6803      	ldr	r3, [r0, #0]
1000174a:	4608      	mov	r0, r1
1000174c:	4611      	mov	r1, r2
1000174e:	4718      	bx	r3

10001750 <stdio_out_chars_crlf>:
10001750:	7d43      	ldrb	r3, [r0, #21]
10001752:	e92d 47f0 	stmdb	sp!, {r4, r5, r6, r7, r8, r9, sl, lr}
10001756:	4682      	mov	sl, r0
10001758:	460f      	mov	r7, r1
1000175a:	4691      	mov	r9, r2
1000175c:	2b00      	cmp	r3, #0
1000175e:	d044      	beq.n	100017ea <stdio_out_chars_crlf+0x9a>
10001760:	2a00      	cmp	r2, #0
10001762:	dd2a      	ble.n	100017ba <stdio_out_chars_crlf+0x6a>
10001764:	2400      	movs	r4, #0
10001766:	2501      	movs	r5, #1
10001768:	4620      	mov	r0, r4
1000176a:	f8df 808c 	ldr.w	r8, [pc, #140]	; 100017f8 <stdio_out_chars_crlf+0xa8>
1000176e:	1e4e      	subs	r6, r1, #1
10001770:	b32c      	cbz	r4, 100017be <stdio_out_chars_crlf+0x6e>
10001772:	7833      	ldrb	r3, [r6, #0]
10001774:	f816 2f01 	ldrb.w	r2, [r6, #1]!
10001778:	f1a3 030d 	sub.w	r3, r3, #13
1000177c:	fab3 f383 	clz	r3, r3
10001780:	2a0a      	cmp	r2, #10
10001782:	ea4f 1353 	mov.w	r3, r3, lsr #5
10001786:	d020      	beq.n	100017ca <stdio_out_chars_crlf+0x7a>
10001788:	462b      	mov	r3, r5
1000178a:	4599      	cmp	r9, r3
1000178c:	f104 0401 	add.w	r4, r4, #1
10001790:	f105 0501 	add.w	r5, r5, #1
10001794:	dcec      	bgt.n	10001770 <stdio_out_chars_crlf+0x20>
10001796:	4581      	cmp	r9, r0
10001798:	dd05      	ble.n	100017a6 <stdio_out_chars_crlf+0x56>
1000179a:	eba9 0100 	sub.w	r1, r9, r0
1000179e:	f8da 3000 	ldr.w	r3, [sl]
100017a2:	4438      	add	r0, r7
100017a4:	4798      	blx	r3
100017a6:	444f      	add	r7, r9
100017a8:	f817 3c01 	ldrb.w	r3, [r7, #-1]
100017ac:	f1a3 030d 	sub.w	r3, r3, #13
100017b0:	fab3 f383 	clz	r3, r3
100017b4:	095b      	lsrs	r3, r3, #5
100017b6:	f88a 3014 	strb.w	r3, [sl, #20]
100017ba:	e8bd 87f0 	ldmia.w	sp!, {r4, r5, r6, r7, r8, r9, sl, pc}
100017be:	f816 2f01 	ldrb.w	r2, [r6, #1]!
100017c2:	f89a 3014 	ldrb.w	r3, [sl, #20]
100017c6:	2a0a      	cmp	r2, #10
100017c8:	d1de      	bne.n	10001788 <stdio_out_chars_crlf+0x38>
100017ca:	2b00      	cmp	r3, #0
100017cc:	d1dc      	bne.n	10001788 <stdio_out_chars_crlf+0x38>
100017ce:	42a0      	cmp	r0, r4
100017d0:	da04      	bge.n	100017dc <stdio_out_chars_crlf+0x8c>
100017d2:	1a21      	subs	r1, r4, r0
100017d4:	f8da 3000 	ldr.w	r3, [sl]
100017d8:	4438      	add	r0, r7
100017da:	4798      	blx	r3
100017dc:	4640      	mov	r0, r8
100017de:	2102      	movs	r1, #2
100017e0:	f8da 3000 	ldr.w	r3, [sl]
100017e4:	4798      	blx	r3
100017e6:	4628      	mov	r0, r5
100017e8:	e7ce      	b.n	10001788 <stdio_out_chars_crlf+0x38>
100017ea:	4638      	mov	r0, r7
100017ec:	f8da 3000 	ldr.w	r3, [sl]
100017f0:	4611      	mov	r1, r2
100017f2:	e8bd 47f0 	ldmia.w	sp!, {r4, r5, r6, r7, r8, r9, sl, lr}
100017f6:	4718      	bx	r3
100017f8:	10006b98 	.word	0x10006b98

100017fc <stdio_put_string>:
100017fc:	e92d 47f0 	stmdb	sp!, {r4, r5, r6, r7, r8, r9, sl, lr}
10001800:	b082      	sub	sp, #8
10001802:	460d      	mov	r5, r1
10001804:	4692      	mov	sl, r2
10001806:	4699      	mov	r9, r3
10001808:	4607      	mov	r7, r0
1000180a:	f7ff fca1 	bl	10001150 <time_us_64>
1000180e:	4a2f      	ldr	r2, [pc, #188]	; (100018cc <stdio_put_string+0xd0>)
10001810:	1882      	adds	r2, r0, r2
10001812:	f141 0300 	adc.w	r3, r1, #0
10001816:	2b00      	cmp	r3, #0
10001818:	bfbc      	itt	lt
1000181a:	f04f 32ff 	movlt.w	r2, #4294967295
1000181e:	f06f 4300 	mvnlt.w	r3, #2147483648	; 0x80000000
10001822:	482b      	ldr	r0, [pc, #172]	; (100018d0 <stdio_put_string+0xd4>)
10001824:	f005 f8cc 	bl	100069c0 <__mutex_try_enter_block_until_veneer>
10001828:	1c6b      	adds	r3, r5, #1
1000182a:	4680      	mov	r8, r0
1000182c:	d103      	bne.n	10001836 <stdio_put_string+0x3a>
1000182e:	4638      	mov	r0, r7
10001830:	f005 f864 	bl	100068fc <strlen>
10001834:	4605      	mov	r5, r0
10001836:	4b27      	ldr	r3, [pc, #156]	; (100018d4 <stdio_put_string+0xd8>)
10001838:	4e27      	ldr	r6, [pc, #156]	; (100018d8 <stdio_put_string+0xdc>)
1000183a:	681c      	ldr	r4, [r3, #0]
1000183c:	4b27      	ldr	r3, [pc, #156]	; (100018dc <stdio_put_string+0xe0>)
1000183e:	f1b9 0f00 	cmp.w	r9, #0
10001842:	bf08      	it	eq
10001844:	461e      	moveq	r6, r3
10001846:	b1b4      	cbz	r4, 10001876 <stdio_put_string+0x7a>
10001848:	f1ba 0f00 	cmp.w	sl, #0
1000184c:	d11a      	bne.n	10001884 <stdio_put_string+0x88>
1000184e:	f8df 9090 	ldr.w	r9, [pc, #144]	; 100018e0 <stdio_put_string+0xe4>
10001852:	e001      	b.n	10001858 <stdio_put_string+0x5c>
10001854:	6924      	ldr	r4, [r4, #16]
10001856:	b174      	cbz	r4, 10001876 <stdio_put_string+0x7a>
10001858:	6823      	ldr	r3, [r4, #0]
1000185a:	2b00      	cmp	r3, #0
1000185c:	d0fa      	beq.n	10001854 <stdio_put_string+0x58>
1000185e:	f8d9 3000 	ldr.w	r3, [r9]
10001862:	b10b      	cbz	r3, 10001868 <stdio_put_string+0x6c>
10001864:	42a3      	cmp	r3, r4
10001866:	d1f5      	bne.n	10001854 <stdio_put_string+0x58>
10001868:	4620      	mov	r0, r4
1000186a:	462a      	mov	r2, r5
1000186c:	4639      	mov	r1, r7
1000186e:	47b0      	blx	r6
10001870:	6924      	ldr	r4, [r4, #16]
10001872:	2c00      	cmp	r4, #0
10001874:	d1f0      	bne.n	10001858 <stdio_put_string+0x5c>
10001876:	f1b8 0f00 	cmp.w	r8, #0
1000187a:	d11f      	bne.n	100018bc <stdio_put_string+0xc0>
1000187c:	4628      	mov	r0, r5
1000187e:	b002      	add	sp, #8
10001880:	e8bd 87f0 	ldmia.w	sp!, {r4, r5, r6, r7, r8, r9, sl, pc}
10001884:	f04f 0a0a 	mov.w	sl, #10
10001888:	f8df 9054 	ldr.w	r9, [pc, #84]	; 100018e0 <stdio_put_string+0xe4>
1000188c:	e002      	b.n	10001894 <stdio_put_string+0x98>
1000188e:	6924      	ldr	r4, [r4, #16]
10001890:	2c00      	cmp	r4, #0
10001892:	d0f0      	beq.n	10001876 <stdio_put_string+0x7a>
10001894:	6823      	ldr	r3, [r4, #0]
10001896:	2b00      	cmp	r3, #0
10001898:	d0f9      	beq.n	1000188e <stdio_put_string+0x92>
1000189a:	f8d9 3000 	ldr.w	r3, [r9]
1000189e:	b10b      	cbz	r3, 100018a4 <stdio_put_string+0xa8>
100018a0:	42a3      	cmp	r3, r4
100018a2:	d1f4      	bne.n	1000188e <stdio_put_string+0x92>
100018a4:	4620      	mov	r0, r4
100018a6:	462a      	mov	r2, r5
100018a8:	4639      	mov	r1, r7
100018aa:	47b0      	blx	r6
100018ac:	4620      	mov	r0, r4
100018ae:	2201      	movs	r2, #1
100018b0:	f10d 0107 	add.w	r1, sp, #7
100018b4:	f88d a007 	strb.w	sl, [sp, #7]
100018b8:	47b0      	blx	r6
100018ba:	e7e8      	b.n	1000188e <stdio_put_string+0x92>
100018bc:	4804      	ldr	r0, [pc, #16]	; (100018d0 <stdio_put_string+0xd4>)
100018be:	f005 f85f 	bl	10006980 <__mutex_exit_veneer>
100018c2:	4628      	mov	r0, r5
100018c4:	b002      	add	sp, #8
100018c6:	e8bd 87f0 	ldmia.w	sp!, {r4, r5, r6, r7, r8, r9, sl, pc}
100018ca:	bf00      	nop
100018cc:	000f4240 	.word	0x000f4240
100018d0:	2000127c 	.word	0x2000127c
100018d4:	20001a48 	.word	0x20001a48
100018d8:	10001751 	.word	0x10001751
100018dc:	10001749 	.word	0x10001749
100018e0:	20001a50 	.word	0x20001a50

100018e4 <stdio_set_driver_enabled>:
100018e4:	4a08      	ldr	r2, [pc, #32]	; (10001908 <stdio_set_driver_enabled+0x24>)
100018e6:	6813      	ldr	r3, [r2, #0]
100018e8:	b923      	cbnz	r3, 100018f4 <stdio_set_driver_enabled+0x10>
100018ea:	e00a      	b.n	10001902 <stdio_set_driver_enabled+0x1e>
100018ec:	f103 0210 	add.w	r2, r3, #16
100018f0:	691b      	ldr	r3, [r3, #16]
100018f2:	b133      	cbz	r3, 10001902 <stdio_set_driver_enabled+0x1e>
100018f4:	4298      	cmp	r0, r3
100018f6:	d1f9      	bne.n	100018ec <stdio_set_driver_enabled+0x8>
100018f8:	b929      	cbnz	r1, 10001906 <stdio_set_driver_enabled+0x22>
100018fa:	6903      	ldr	r3, [r0, #16]
100018fc:	6013      	str	r3, [r2, #0]
100018fe:	6101      	str	r1, [r0, #16]
10001900:	4770      	bx	lr
10001902:	b101      	cbz	r1, 10001906 <stdio_set_driver_enabled+0x22>
10001904:	6010      	str	r0, [r2, #0]
10001906:	4770      	bx	lr
10001908:	20001a48 	.word	0x20001a48

1000190c <stdio_init_all>:
1000190c:	f000 ba5c 	b.w	10001dc8 <stdio_usb_init>

10001910 <__wrap_putchar>:
10001910:	b5f0      	push	{r4, r5, r6, r7, lr}
10001912:	b083      	sub	sp, #12
10001914:	4606      	mov	r6, r0
10001916:	f88d 0007 	strb.w	r0, [sp, #7]
1000191a:	f7ff fc19 	bl	10001150 <time_us_64>
1000191e:	4a17      	ldr	r2, [pc, #92]	; (1000197c <__wrap_putchar+0x6c>)
10001920:	1882      	adds	r2, r0, r2
10001922:	f141 0300 	adc.w	r3, r1, #0
10001926:	2b00      	cmp	r3, #0
10001928:	bfbc      	itt	lt
1000192a:	f06f 4300 	mvnlt.w	r3, #2147483648	; 0x80000000
1000192e:	f04f 32ff 	movlt.w	r2, #4294967295
10001932:	4813      	ldr	r0, [pc, #76]	; (10001980 <__wrap_putchar+0x70>)
10001934:	f005 f844 	bl	100069c0 <__mutex_try_enter_block_until_veneer>
10001938:	4b12      	ldr	r3, [pc, #72]	; (10001984 <__wrap_putchar+0x74>)
1000193a:	4607      	mov	r7, r0
1000193c:	681c      	ldr	r4, [r3, #0]
1000193e:	b19c      	cbz	r4, 10001968 <__wrap_putchar+0x58>
10001940:	4d11      	ldr	r5, [pc, #68]	; (10001988 <__wrap_putchar+0x78>)
10001942:	e001      	b.n	10001948 <__wrap_putchar+0x38>
10001944:	6924      	ldr	r4, [r4, #16]
10001946:	b17c      	cbz	r4, 10001968 <__wrap_putchar+0x58>
10001948:	6823      	ldr	r3, [r4, #0]
1000194a:	2b00      	cmp	r3, #0
1000194c:	d0fa      	beq.n	10001944 <__wrap_putchar+0x34>
1000194e:	682b      	ldr	r3, [r5, #0]
10001950:	b10b      	cbz	r3, 10001956 <__wrap_putchar+0x46>
10001952:	42a3      	cmp	r3, r4
10001954:	d1f6      	bne.n	10001944 <__wrap_putchar+0x34>
10001956:	4620      	mov	r0, r4
10001958:	2201      	movs	r2, #1
1000195a:	f10d 0107 	add.w	r1, sp, #7
1000195e:	f7ff fef7 	bl	10001750 <stdio_out_chars_crlf>
10001962:	6924      	ldr	r4, [r4, #16]
10001964:	2c00      	cmp	r4, #0
10001966:	d1ef      	bne.n	10001948 <__wrap_putchar+0x38>
10001968:	b917      	cbnz	r7, 10001970 <__wrap_putchar+0x60>
1000196a:	4630      	mov	r0, r6
1000196c:	b003      	add	sp, #12
1000196e:	bdf0      	pop	{r4, r5, r6, r7, pc}
10001970:	4803      	ldr	r0, [pc, #12]	; (10001980 <__wrap_putchar+0x70>)
10001972:	f005 f805 	bl	10006980 <__mutex_exit_veneer>
10001976:	4630      	mov	r0, r6
10001978:	b003      	add	sp, #12
1000197a:	bdf0      	pop	{r4, r5, r6, r7, pc}
1000197c:	000f4240 	.word	0x000f4240
10001980:	2000127c 	.word	0x2000127c
10001984:	20001a48 	.word	0x20001a48
10001988:	20001a50 	.word	0x20001a50

1000198c <__wrap_puts>:
1000198c:	b538      	push	{r3, r4, r5, lr}
1000198e:	4604      	mov	r4, r0
10001990:	f004 ffb4 	bl	100068fc <strlen>
10001994:	2301      	movs	r3, #1
10001996:	4605      	mov	r5, r0
10001998:	461a      	mov	r2, r3
1000199a:	4620      	mov	r0, r4
1000199c:	4629      	mov	r1, r5
1000199e:	f7ff ff2d 	bl	100017fc <stdio_put_string>
100019a2:	4b08      	ldr	r3, [pc, #32]	; (100019c4 <__wrap_puts+0x38>)
100019a4:	681c      	ldr	r4, [r3, #0]
100019a6:	b12c      	cbz	r4, 100019b4 <__wrap_puts+0x28>
100019a8:	6863      	ldr	r3, [r4, #4]
100019aa:	b12b      	cbz	r3, 100019b8 <__wrap_puts+0x2c>
100019ac:	4798      	blx	r3
100019ae:	6924      	ldr	r4, [r4, #16]
100019b0:	2c00      	cmp	r4, #0
100019b2:	d1f9      	bne.n	100019a8 <__wrap_puts+0x1c>
100019b4:	4628      	mov	r0, r5
100019b6:	bd38      	pop	{r3, r4, r5, pc}
100019b8:	6924      	ldr	r4, [r4, #16]
100019ba:	2c00      	cmp	r4, #0
100019bc:	d1f4      	bne.n	100019a8 <__wrap_puts+0x1c>
100019be:	4628      	mov	r0, r5
100019c0:	bd38      	pop	{r3, r4, r5, pc}
100019c2:	bf00      	nop
100019c4:	20001a48 	.word	0x20001a48

100019c8 <resetd_init>:
100019c8:	4770      	bx	lr
100019ca:	bf00      	nop

100019cc <resetd_reset>:
100019cc:	2200      	movs	r2, #0
100019ce:	4b01      	ldr	r3, [pc, #4]	; (100019d4 <resetd_reset+0x8>)
100019d0:	701a      	strb	r2, [r3, #0]
100019d2:	4770      	bx	lr
100019d4:	20006024 	.word	0x20006024

100019d8 <resetd_open>:
100019d8:	794b      	ldrb	r3, [r1, #5]
100019da:	2bff      	cmp	r3, #255	; 0xff
100019dc:	d10b      	bne.n	100019f6 <resetd_open+0x1e>
100019de:	7988      	ldrb	r0, [r1, #6]
100019e0:	b948      	cbnz	r0, 100019f6 <resetd_open+0x1e>
100019e2:	79cb      	ldrb	r3, [r1, #7]
100019e4:	2b01      	cmp	r3, #1
100019e6:	d107      	bne.n	100019f8 <resetd_open+0x20>
100019e8:	2a08      	cmp	r2, #8
100019ea:	d905      	bls.n	100019f8 <resetd_open+0x20>
100019ec:	4b03      	ldr	r3, [pc, #12]	; (100019fc <resetd_open+0x24>)
100019ee:	788a      	ldrb	r2, [r1, #2]
100019f0:	2009      	movs	r0, #9
100019f2:	701a      	strb	r2, [r3, #0]
100019f4:	4770      	bx	lr
100019f6:	2000      	movs	r0, #0
100019f8:	4770      	bx	lr
100019fa:	bf00      	nop
100019fc:	20006024 	.word	0x20006024

10001a00 <resetd_xfer_cb>:
10001a00:	2001      	movs	r0, #1
10001a02:	4770      	bx	lr

10001a04 <resetd_control_xfer_cb>:
10001a04:	2901      	cmp	r1, #1
10001a06:	d108      	bne.n	10001a1a <resetd_control_xfer_cb+0x16>
10001a08:	b510      	push	{r4, lr}
10001a0a:	4b12      	ldr	r3, [pc, #72]	; (10001a54 <resetd_control_xfer_cb+0x50>)
10001a0c:	460c      	mov	r4, r1
10001a0e:	781b      	ldrb	r3, [r3, #0]
10001a10:	8891      	ldrh	r1, [r2, #4]
10001a12:	4299      	cmp	r1, r3
10001a14:	d003      	beq.n	10001a1e <resetd_control_xfer_cb+0x1a>
10001a16:	2000      	movs	r0, #0
10001a18:	bd10      	pop	{r4, pc}
10001a1a:	2001      	movs	r0, #1
10001a1c:	4770      	bx	lr
10001a1e:	7853      	ldrb	r3, [r2, #1]
10001a20:	2b01      	cmp	r3, #1
10001a22:	d008      	beq.n	10001a36 <resetd_control_xfer_cb+0x32>
10001a24:	2b02      	cmp	r3, #2
10001a26:	d1f6      	bne.n	10001a16 <resetd_control_xfer_cb+0x12>
10001a28:	2100      	movs	r1, #0
10001a2a:	2264      	movs	r2, #100	; 0x64
10001a2c:	4608      	mov	r0, r1
10001a2e:	f7ff fc4d 	bl	100012cc <watchdog_reboot>
10001a32:	4620      	mov	r0, r4
10001a34:	bd10      	pop	{r4, pc}
10001a36:	8851      	ldrh	r1, [r2, #2]
10001a38:	05cb      	lsls	r3, r1, #23
10001a3a:	bf4b      	itete	mi
10001a3c:	0a4a      	lsrmi	r2, r1, #9
10001a3e:	0a4a      	lsrpl	r2, r1, #9
10001a40:	4610      	movmi	r0, r2
10001a42:	f04f 30ff 	movpl.w	r0, #4294967295
10001a46:	f002 0201 	and.w	r2, r2, #1
10001a4a:	f001 017f 	and.w	r1, r1, #127	; 0x7f
10001a4e:	f7ff fcbf 	bl	100013d0 <rom_reset_usb_boot_extra>
10001a52:	bf00      	nop
10001a54:	20006024 	.word	0x20006024

10001a58 <tud_descriptor_bos_cb>:
10001a58:	4800      	ldr	r0, [pc, #0]	; (10001a5c <tud_descriptor_bos_cb+0x4>)
10001a5a:	4770      	bx	lr
10001a5c:	10006bbc 	.word	0x10006bbc

10001a60 <tud_vendor_control_xfer_cb>:
10001a60:	2901      	cmp	r1, #1
10001a62:	d107      	bne.n	10001a74 <tud_vendor_control_xfer_cb+0x14>
10001a64:	7853      	ldrb	r3, [r2, #1]
10001a66:	2b01      	cmp	r3, #1
10001a68:	d102      	bne.n	10001a70 <tud_vendor_control_xfer_cb+0x10>
10001a6a:	8893      	ldrh	r3, [r2, #4]
10001a6c:	2b07      	cmp	r3, #7
10001a6e:	d003      	beq.n	10001a78 <tud_vendor_control_xfer_cb+0x18>
10001a70:	2000      	movs	r0, #0
10001a72:	4770      	bx	lr
10001a74:	2001      	movs	r0, #1
10001a76:	4770      	bx	lr
10001a78:	4611      	mov	r1, r2
10001a7a:	23a6      	movs	r3, #166	; 0xa6
10001a7c:	4a01      	ldr	r2, [pc, #4]	; (10001a84 <tud_vendor_control_xfer_cb+0x24>)
10001a7e:	f001 ba57 	b.w	10002f30 <tud_control_xfer>
10001a82:	bf00      	nop
10001a84:	10006be0 	.word	0x10006be0

10001a88 <usbd_app_driver_get_cb>:
10001a88:	4603      	mov	r3, r0
10001a8a:	2201      	movs	r2, #1
10001a8c:	4801      	ldr	r0, [pc, #4]	; (10001a94 <usbd_app_driver_get_cb+0xc>)
10001a8e:	701a      	strb	r2, [r3, #0]
10001a90:	4770      	bx	lr
10001a92:	bf00      	nop
10001a94:	10006b9c 	.word	0x10006b9c

10001a98 <tud_cdc_line_coding_cb>:
10001a98:	b508      	push	{r3, lr}
10001a9a:	680b      	ldr	r3, [r1, #0]
10001a9c:	f5b3 6f96 	cmp.w	r3, #1200	; 0x4b0
10001aa0:	d000      	beq.n	10001aa4 <tud_cdc_line_coding_cb+0xc>
10001aa2:	bd08      	pop	{r3, pc}
10001aa4:	2200      	movs	r2, #0
10001aa6:	f04f 30ff 	mov.w	r0, #4294967295
10001aaa:	4611      	mov	r1, r2
10001aac:	f7ff fc90 	bl	100013d0 <rom_reset_usb_boot_extra>

10001ab0 <stdio_usb_set_chars_available_callback>:
10001ab0:	4a02      	ldr	r2, [pc, #8]	; (10001abc <stdio_usb_set_chars_available_callback+0xc>)
10001ab2:	4b03      	ldr	r3, [pc, #12]	; (10001ac0 <stdio_usb_set_chars_available_callback+0x10>)
10001ab4:	6010      	str	r0, [r2, #0]
10001ab6:	6019      	str	r1, [r3, #0]
10001ab8:	4770      	bx	lr
10001aba:	bf00      	nop
10001abc:	200019e4 	.word	0x200019e4
10001ac0:	200019e8 	.word	0x200019e8

10001ac4 <timer_task>:
10001ac4:	4b18      	ldr	r3, [pc, #96]	; (10001b28 <timer_task+0x64>)
10001ac6:	b570      	push	{r4, r5, r6, lr}
10001ac8:	681a      	ldr	r2, [r3, #0]
10001aca:	2a00      	cmp	r2, #0
10001acc:	d028      	beq.n	10001b20 <timer_task+0x5c>
10001ace:	f3ef 8110 	mrs	r1, PRIMASK
10001ad2:	b672      	cpsid	i
10001ad4:	e8d2 4fcf 	ldaexb	r4, [r2]
10001ad8:	2001      	movs	r0, #1
10001ada:	2c00      	cmp	r4, #0
10001adc:	d1fa      	bne.n	10001ad4 <timer_task+0x10>
10001ade:	e8c2 0f44 	strexb	r4, r0, [r2]
10001ae2:	2c00      	cmp	r4, #0
10001ae4:	d1f6      	bne.n	10001ad4 <timer_task+0x10>
10001ae6:	f3bf 8f5f 	dmb	sy
10001aea:	2200      	movs	r2, #0
10001aec:	4c0f      	ldr	r4, [pc, #60]	; (10001b2c <timer_task+0x68>)
10001aee:	6818      	ldr	r0, [r3, #0]
10001af0:	6059      	str	r1, [r3, #4]
10001af2:	7022      	strb	r2, [r4, #0]
10001af4:	e8c0 2f8f 	stlb	r2, [r0]
10001af8:	f381 8810 	msr	PRIMASK, r1
10001afc:	2400      	movs	r4, #0
10001afe:	2500      	movs	r5, #0
10001b00:	4e0b      	ldr	r6, [pc, #44]	; (10001b30 <timer_task+0x6c>)
10001b02:	7830      	ldrb	r0, [r6, #0]
10001b04:	f7fe fd38 	bl	10000578 <irq_is_enabled>
10001b08:	b920      	cbnz	r0, 10001b14 <timer_task+0x50>
10001b0a:	2400      	movs	r4, #0
10001b0c:	2500      	movs	r5, #0
10001b0e:	4620      	mov	r0, r4
10001b10:	4629      	mov	r1, r5
10001b12:	bd70      	pop	{r4, r5, r6, pc}
10001b14:	7830      	ldrb	r0, [r6, #0]
10001b16:	f7fe fd3f 	bl	10000598 <irq_set_pending>
10001b1a:	4620      	mov	r0, r4
10001b1c:	4629      	mov	r1, r5
10001b1e:	bd70      	pop	{r4, r5, r6, pc}
10001b20:	f44f 747a 	mov.w	r4, #1000	; 0x3e8
10001b24:	2500      	movs	r5, #0
10001b26:	e7eb      	b.n	10001b00 <timer_task+0x3c>
10001b28:	20001e60 	.word	0x20001e60
10001b2c:	20006026 	.word	0x20006026
10001b30:	20006025 	.word	0x20006025

10001b34 <usb_irq>:
10001b34:	4b01      	ldr	r3, [pc, #4]	; (10001b3c <usb_irq+0x8>)
10001b36:	7818      	ldrb	r0, [r3, #0]
10001b38:	f7fe bd2e 	b.w	10000598 <irq_set_pending>
10001b3c:	20006025 	.word	0x20006025

10001b40 <stdio_usb_in_chars>:
10001b40:	b538      	push	{r3, r4, r5, lr}
10001b42:	4604      	mov	r4, r0
10001b44:	2000      	movs	r0, #0
10001b46:	460d      	mov	r5, r1
10001b48:	f001 fb3a 	bl	100031c0 <tud_cdc_n_connected>
10001b4c:	b390      	cbz	r0, 10001bb4 <stdio_usb_in_chars+0x74>
10001b4e:	2000      	movs	r0, #0
10001b50:	f001 fb4c 	bl	100031ec <tud_cdc_n_available>
10001b54:	b370      	cbz	r0, 10001bb4 <stdio_usb_in_chars+0x74>
10001b56:	f7ff fafb 	bl	10001150 <time_us_64>
10001b5a:	4a18      	ldr	r2, [pc, #96]	; (10001bbc <stdio_usb_in_chars+0x7c>)
10001b5c:	1882      	adds	r2, r0, r2
10001b5e:	f141 0300 	adc.w	r3, r1, #0
10001b62:	2b00      	cmp	r3, #0
10001b64:	bfbc      	itt	lt
10001b66:	f04f 32ff 	movlt.w	r2, #4294967295
10001b6a:	f06f 4300 	mvnlt.w	r3, #2147483648	; 0x80000000
10001b6e:	4814      	ldr	r0, [pc, #80]	; (10001bc0 <stdio_usb_in_chars+0x80>)
10001b70:	f004 ff26 	bl	100069c0 <__mutex_try_enter_block_until_veneer>
10001b74:	b1f0      	cbz	r0, 10001bb4 <stdio_usb_in_chars+0x74>
10001b76:	2000      	movs	r0, #0
10001b78:	f001 fb22 	bl	100031c0 <tud_cdc_n_connected>
10001b7c:	b958      	cbnz	r0, 10001b96 <stdio_usb_in_chars+0x56>
10001b7e:	2100      	movs	r1, #0
10001b80:	f04f 30ff 	mov.w	r0, #4294967295
10001b84:	f000 fd1c 	bl	100025c0 <tud_task_ext>
10001b88:	f06f 0402 	mvn.w	r4, #2
10001b8c:	480c      	ldr	r0, [pc, #48]	; (10001bc0 <stdio_usb_in_chars+0x80>)
10001b8e:	f004 fef7 	bl	10006980 <__mutex_exit_veneer>
10001b92:	4620      	mov	r0, r4
10001b94:	bd38      	pop	{r3, r4, r5, pc}
10001b96:	2000      	movs	r0, #0
10001b98:	f001 fb28 	bl	100031ec <tud_cdc_n_available>
10001b9c:	2800      	cmp	r0, #0
10001b9e:	d0ee      	beq.n	10001b7e <stdio_usb_in_chars+0x3e>
10001ba0:	4621      	mov	r1, r4
10001ba2:	462a      	mov	r2, r5
10001ba4:	2000      	movs	r0, #0
10001ba6:	f001 fb2d 	bl	10003204 <tud_cdc_n_read>
10001baa:	1e04      	subs	r4, r0, #0
10001bac:	bf08      	it	eq
10001bae:	f06f 0402 	mvneq.w	r4, #2
10001bb2:	e7eb      	b.n	10001b8c <stdio_usb_in_chars+0x4c>
10001bb4:	f06f 0402 	mvn.w	r4, #2
10001bb8:	e7eb      	b.n	10001b92 <stdio_usb_in_chars+0x52>
10001bba:	bf00      	nop
10001bbc:	000f4240 	.word	0x000f4240
10001bc0:	20001f14 	.word	0x20001f14

10001bc4 <stdio_usb_out_flush>:
10001bc4:	b508      	push	{r3, lr}
10001bc6:	f7ff fac3 	bl	10001150 <time_us_64>
10001bca:	4a0f      	ldr	r2, [pc, #60]	; (10001c08 <stdio_usb_out_flush+0x44>)
10001bcc:	1882      	adds	r2, r0, r2
10001bce:	f141 0300 	adc.w	r3, r1, #0
10001bd2:	2b00      	cmp	r3, #0
10001bd4:	bfbc      	itt	lt
10001bd6:	f04f 32ff 	movlt.w	r2, #4294967295
10001bda:	f06f 4300 	mvnlt.w	r3, #2147483648	; 0x80000000
10001bde:	480b      	ldr	r0, [pc, #44]	; (10001c0c <stdio_usb_out_flush+0x48>)
10001be0:	f004 feee 	bl	100069c0 <__mutex_try_enter_block_until_veneer>
10001be4:	b170      	cbz	r0, 10001c04 <stdio_usb_out_flush+0x40>
10001be6:	f04f 30ff 	mov.w	r0, #4294967295
10001bea:	2100      	movs	r1, #0
10001bec:	f000 fce8 	bl	100025c0 <tud_task_ext>
10001bf0:	2000      	movs	r0, #0
10001bf2:	f001 fb4f 	bl	10003294 <tud_cdc_n_write_flush>
10001bf6:	2800      	cmp	r0, #0
10001bf8:	d1f5      	bne.n	10001be6 <stdio_usb_out_flush+0x22>
10001bfa:	e8bd 4008 	ldmia.w	sp!, {r3, lr}
10001bfe:	4803      	ldr	r0, [pc, #12]	; (10001c0c <stdio_usb_out_flush+0x48>)
10001c00:	f004 bebe 	b.w	10006980 <__mutex_exit_veneer>
10001c04:	bd08      	pop	{r3, pc}
10001c06:	bf00      	nop
10001c08:	000f4240 	.word	0x000f4240
10001c0c:	20001f14 	.word	0x20001f14

10001c10 <stdio_usb_out_chars>:
10001c10:	e92d 43f8 	stmdb	sp!, {r3, r4, r5, r6, r7, r8, r9, lr}
10001c14:	4607      	mov	r7, r0
10001c16:	460e      	mov	r6, r1
10001c18:	f7ff fa9a 	bl	10001150 <time_us_64>
10001c1c:	4a34      	ldr	r2, [pc, #208]	; (10001cf0 <stdio_usb_out_chars+0xe0>)
10001c1e:	1882      	adds	r2, r0, r2
10001c20:	f141 0300 	adc.w	r3, r1, #0
10001c24:	2b00      	cmp	r3, #0
10001c26:	bfbc      	itt	lt
10001c28:	f04f 32ff 	movlt.w	r2, #4294967295
10001c2c:	f06f 4300 	mvnlt.w	r3, #2147483648	; 0x80000000
10001c30:	4830      	ldr	r0, [pc, #192]	; (10001cf4 <stdio_usb_out_chars+0xe4>)
10001c32:	f004 fec5 	bl	100069c0 <__mutex_try_enter_block_until_veneer>
10001c36:	b908      	cbnz	r0, 10001c3c <stdio_usb_out_chars+0x2c>
10001c38:	e8bd 83f8 	ldmia.w	sp!, {r3, r4, r5, r6, r7, r8, r9, pc}
10001c3c:	2000      	movs	r0, #0
10001c3e:	f001 fabf 	bl	100031c0 <tud_cdc_n_connected>
10001c42:	2800      	cmp	r0, #0
10001c44:	d049      	beq.n	10001cda <stdio_usb_out_chars+0xca>
10001c46:	2e00      	cmp	r6, #0
10001c48:	dd42      	ble.n	10001cd0 <stdio_usb_out_chars+0xc0>
10001c4a:	2500      	movs	r5, #0
10001c4c:	f8df 80a8 	ldr.w	r8, [pc, #168]	; 10001cf8 <stdio_usb_out_chars+0xe8>
10001c50:	f8df 90a8 	ldr.w	r9, [pc, #168]	; 10001cfc <stdio_usb_out_chars+0xec>
10001c54:	e013      	b.n	10001c7e <stdio_usb_out_chars+0x6e>
10001c56:	4622      	mov	r2, r4
10001c58:	2000      	movs	r0, #0
10001c5a:	f001 fb5f 	bl	1000331c <tud_cdc_n_write>
10001c5e:	2100      	movs	r1, #0
10001c60:	4604      	mov	r4, r0
10001c62:	f04f 30ff 	mov.w	r0, #4294967295
10001c66:	f000 fcab 	bl	100025c0 <tud_task_ext>
10001c6a:	2000      	movs	r0, #0
10001c6c:	f001 fb12 	bl	10003294 <tud_cdc_n_write_flush>
10001c70:	f7ff fa6e 	bl	10001150 <time_us_64>
10001c74:	e9c8 0100 	strd	r0, r1, [r8]
10001c78:	4425      	add	r5, r4
10001c7a:	42ae      	cmp	r6, r5
10001c7c:	dd28      	ble.n	10001cd0 <stdio_usb_out_chars+0xc0>
10001c7e:	2000      	movs	r0, #0
10001c80:	f001 fb70 	bl	10003364 <tud_cdc_n_write_available>
10001c84:	1b74      	subs	r4, r6, r5
10001c86:	4284      	cmp	r4, r0
10001c88:	bfa8      	it	ge
10001c8a:	4604      	movge	r4, r0
10001c8c:	1979      	adds	r1, r7, r5
10001c8e:	2c00      	cmp	r4, #0
10001c90:	d1e1      	bne.n	10001c56 <stdio_usb_out_chars+0x46>
10001c92:	4621      	mov	r1, r4
10001c94:	f04f 30ff 	mov.w	r0, #4294967295
10001c98:	f000 fc92 	bl	100025c0 <tud_task_ext>
10001c9c:	4620      	mov	r0, r4
10001c9e:	f001 faf9 	bl	10003294 <tud_cdc_n_write_flush>
10001ca2:	4620      	mov	r0, r4
10001ca4:	f001 fa8c 	bl	100031c0 <tud_cdc_n_connected>
10001ca8:	b190      	cbz	r0, 10001cd0 <stdio_usb_out_chars+0xc0>
10001caa:	4620      	mov	r0, r4
10001cac:	f001 fb5a 	bl	10003364 <tud_cdc_n_write_available>
10001cb0:	2800      	cmp	r0, #0
10001cb2:	d1e2      	bne.n	10001c7a <stdio_usb_out_chars+0x6a>
10001cb4:	f7ff fa4c 	bl	10001150 <time_us_64>
10001cb8:	f8d8 3000 	ldr.w	r3, [r8]
10001cbc:	f8d8 2004 	ldr.w	r2, [r8, #4]
10001cc0:	eb13 0309 	adds.w	r3, r3, r9
10001cc4:	f142 0200 	adc.w	r2, r2, #0
10001cc8:	4283      	cmp	r3, r0
10001cca:	eb72 0301 	sbcs.w	r3, r2, r1
10001cce:	d2d4      	bcs.n	10001c7a <stdio_usb_out_chars+0x6a>
10001cd0:	4808      	ldr	r0, [pc, #32]	; (10001cf4 <stdio_usb_out_chars+0xe4>)
10001cd2:	e8bd 43f8 	ldmia.w	sp!, {r3, r4, r5, r6, r7, r8, r9, lr}
10001cd6:	f004 be53 	b.w	10006980 <__mutex_exit_veneer>
10001cda:	2000      	movs	r0, #0
10001cdc:	2100      	movs	r1, #0
10001cde:	4b06      	ldr	r3, [pc, #24]	; (10001cf8 <stdio_usb_out_chars+0xe8>)
10001ce0:	e9c3 0100 	strd	r0, r1, [r3]
10001ce4:	e8bd 43f8 	ldmia.w	sp!, {r3, r4, r5, r6, r7, r8, r9, lr}
10001ce8:	4802      	ldr	r0, [pc, #8]	; (10001cf4 <stdio_usb_out_chars+0xe4>)
10001cea:	f004 be49 	b.w	10006980 <__mutex_exit_veneer>
10001cee:	bf00      	nop
10001cf0:	000f4240 	.word	0x000f4240
10001cf4:	20001f14 	.word	0x20001f14
10001cf8:	20001408 	.word	0x20001408
10001cfc:	0007a120 	.word	0x0007a120

10001d00 <low_priority_worker_irq>:
10001d00:	b530      	push	{r4, r5, lr}
10001d02:	2100      	movs	r1, #0
10001d04:	b085      	sub	sp, #20
10001d06:	482a      	ldr	r0, [pc, #168]	; (10001db0 <low_priority_worker_irq+0xb0>)
10001d08:	f004 fe42 	bl	10006990 <__mutex_try_enter_veneer>
10001d0c:	b9f0      	cbnz	r0, 10001d4c <low_priority_worker_irq+0x4c>
10001d0e:	4b29      	ldr	r3, [pc, #164]	; (10001db4 <low_priority_worker_irq+0xb4>)
10001d10:	681a      	ldr	r2, [r3, #0]
10001d12:	b1ca      	cbz	r2, 10001d48 <low_priority_worker_irq+0x48>
10001d14:	f3ef 8110 	mrs	r1, PRIMASK
10001d18:	b672      	cpsid	i
10001d1a:	e8d2 5fcf 	ldaexb	r5, [r2]
10001d1e:	2401      	movs	r4, #1
10001d20:	2d00      	cmp	r5, #0
10001d22:	d1fa      	bne.n	10001d1a <low_priority_worker_irq+0x1a>
10001d24:	e8c2 4f45 	strexb	r5, r4, [r2]
10001d28:	2d00      	cmp	r5, #0
10001d2a:	d1f6      	bne.n	10001d1a <low_priority_worker_irq+0x1a>
10001d2c:	f3bf 8f5f 	dmb	sy
10001d30:	4c21      	ldr	r4, [pc, #132]	; (10001db8 <low_priority_worker_irq+0xb8>)
10001d32:	681d      	ldr	r5, [r3, #0]
10001d34:	7822      	ldrb	r2, [r4, #0]
10001d36:	6059      	str	r1, [r3, #4]
10001d38:	b2d3      	uxtb	r3, r2
10001d3a:	2201      	movs	r2, #1
10001d3c:	7022      	strb	r2, [r4, #0]
10001d3e:	e8c5 0f8f 	stlb	r0, [r5]
10001d42:	f381 8810 	msr	PRIMASK, r1
10001d46:	b1cb      	cbz	r3, 10001d7c <low_priority_worker_irq+0x7c>
10001d48:	b005      	add	sp, #20
10001d4a:	bd30      	pop	{r4, r5, pc}
10001d4c:	2100      	movs	r1, #0
10001d4e:	f04f 30ff 	mov.w	r0, #4294967295
10001d52:	f000 fc35 	bl	100025c0 <tud_task_ext>
10001d56:	2000      	movs	r0, #0
10001d58:	f001 fa48 	bl	100031ec <tud_cdc_n_available>
10001d5c:	4604      	mov	r4, r0
10001d5e:	4814      	ldr	r0, [pc, #80]	; (10001db0 <low_priority_worker_irq+0xb0>)
10001d60:	f004 fe0e 	bl	10006980 <__mutex_exit_veneer>
10001d64:	2c00      	cmp	r4, #0
10001d66:	d0ef      	beq.n	10001d48 <low_priority_worker_irq+0x48>
10001d68:	4b14      	ldr	r3, [pc, #80]	; (10001dbc <low_priority_worker_irq+0xbc>)
10001d6a:	681b      	ldr	r3, [r3, #0]
10001d6c:	2b00      	cmp	r3, #0
10001d6e:	d0eb      	beq.n	10001d48 <low_priority_worker_irq+0x48>
10001d70:	4a13      	ldr	r2, [pc, #76]	; (10001dc0 <low_priority_worker_irq+0xc0>)
10001d72:	6810      	ldr	r0, [r2, #0]
10001d74:	b005      	add	sp, #20
10001d76:	e8bd 4030 	ldmia.w	sp!, {r4, r5, lr}
10001d7a:	4718      	bx	r3
10001d7c:	f7ff f84a 	bl	10000e14 <alarm_pool_get_default>
10001d80:	4604      	mov	r4, r0
10001d82:	f7ff f9e5 	bl	10001150 <time_us_64>
10001d86:	f510 727a 	adds.w	r2, r0, #1000	; 0x3e8
10001d8a:	f141 0300 	adc.w	r3, r1, #0
10001d8e:	2501      	movs	r5, #1
10001d90:	2100      	movs	r1, #0
10001d92:	4620      	mov	r0, r4
10001d94:	4c0b      	ldr	r4, [pc, #44]	; (10001dc4 <low_priority_worker_irq+0xc4>)
10001d96:	2b00      	cmp	r3, #0
10001d98:	bfbc      	itt	lt
10001d9a:	f04f 32ff 	movlt.w	r2, #4294967295
10001d9e:	f06f 4300 	mvnlt.w	r3, #2147483648	; 0x80000000
10001da2:	e9cd 1501 	strd	r1, r5, [sp, #4]
10001da6:	9400      	str	r4, [sp, #0]
10001da8:	f7ff f838 	bl	10000e1c <alarm_pool_add_alarm_at>
10001dac:	b005      	add	sp, #20
10001dae:	bd30      	pop	{r4, r5, pc}
10001db0:	20001f14 	.word	0x20001f14
10001db4:	20001e60 	.word	0x20001e60
10001db8:	20006026 	.word	0x20006026
10001dbc:	200019e4 	.word	0x200019e4
10001dc0:	200019e8 	.word	0x200019e8
10001dc4:	10001ac5 	.word	0x10001ac5

10001dc8 <stdio_usb_init>:
10001dc8:	f04f 4350 	mov.w	r3, #3489660928	; 0xd0000000
10001dcc:	b530      	push	{r4, r5, lr}
10001dce:	b085      	sub	sp, #20
10001dd0:	681c      	ldr	r4, [r3, #0]
10001dd2:	f7ff f81f 	bl	10000e14 <alarm_pool_get_default>
10001dd6:	f7ff f931 	bl	1000103c <alarm_pool_core_num>
10001dda:	42a0      	cmp	r0, r4
10001ddc:	d002      	beq.n	10001de4 <stdio_usb_init+0x1c>
10001dde:	2000      	movs	r0, #0
10001de0:	b005      	add	sp, #20
10001de2:	bd30      	pop	{r4, r5, pc}
10001de4:	2100      	movs	r1, #0
10001de6:	4b27      	ldr	r3, [pc, #156]	; (10001e84 <stdio_usb_init+0xbc>)
10001de8:	4608      	mov	r0, r1
10001dea:	781b      	ldrb	r3, [r3, #0]
10001dec:	f001 fd88 	bl	10003900 <tusb_rhport_init>
10001df0:	4825      	ldr	r0, [pc, #148]	; (10001e88 <stdio_usb_init+0xc0>)
10001df2:	6803      	ldr	r3, [r0, #0]
10001df4:	2b00      	cmp	r3, #0
10001df6:	d042      	beq.n	10001e7e <stdio_usb_init+0xb6>
10001df8:	2001      	movs	r0, #1
10001dfa:	f7fe fd81 	bl	10000900 <user_irq_claim_unused>
10001dfe:	4603      	mov	r3, r0
10001e00:	4c22      	ldr	r4, [pc, #136]	; (10001e8c <stdio_usb_init+0xc4>)
10001e02:	4923      	ldr	r1, [pc, #140]	; (10001e90 <stdio_usb_init+0xc8>)
10001e04:	b2c0      	uxtb	r0, r0
10001e06:	7023      	strb	r3, [r4, #0]
10001e08:	f7fe fbe4 	bl	100005d4 <irq_set_exclusive_handler>
10001e0c:	7820      	ldrb	r0, [r4, #0]
10001e0e:	2101      	movs	r1, #1
10001e10:	f7fe fb9c 	bl	1000054c <irq_set_enabled>
10001e14:	200e      	movs	r0, #14
10001e16:	f7fe fbcd 	bl	100005b4 <irq_has_shared_handler>
10001e1a:	bb18      	cbnz	r0, 10001e64 <stdio_usb_init+0x9c>
10001e1c:	4b1d      	ldr	r3, [pc, #116]	; (10001e94 <stdio_usb_init+0xcc>)
10001e1e:	2501      	movs	r5, #1
10001e20:	e9c3 0000 	strd	r0, r0, [r3]
10001e24:	f7fe fff6 	bl	10000e14 <alarm_pool_get_default>
10001e28:	4604      	mov	r4, r0
10001e2a:	f7ff f991 	bl	10001150 <time_us_64>
10001e2e:	f510 727a 	adds.w	r2, r0, #1000	; 0x3e8
10001e32:	f141 0300 	adc.w	r3, r1, #0
10001e36:	2100      	movs	r1, #0
10001e38:	4620      	mov	r0, r4
10001e3a:	4c17      	ldr	r4, [pc, #92]	; (10001e98 <stdio_usb_init+0xd0>)
10001e3c:	2b00      	cmp	r3, #0
10001e3e:	bfbc      	itt	lt
10001e40:	f04f 32ff 	movlt.w	r2, #4294967295
10001e44:	f06f 4300 	mvnlt.w	r3, #2147483648	; 0x80000000
10001e48:	e9cd 1501 	strd	r1, r5, [sp, #4]
10001e4c:	9400      	str	r4, [sp, #0]
10001e4e:	f7fe ffe5 	bl	10000e1c <alarm_pool_add_alarm_at>
10001e52:	2800      	cmp	r0, #0
10001e54:	dbc3      	blt.n	10001dde <stdio_usb_init+0x16>
10001e56:	2101      	movs	r1, #1
10001e58:	4810      	ldr	r0, [pc, #64]	; (10001e9c <stdio_usb_init+0xd4>)
10001e5a:	f7ff fd43 	bl	100018e4 <stdio_set_driver_enabled>
10001e5e:	2001      	movs	r0, #1
10001e60:	b005      	add	sp, #20
10001e62:	bd30      	pop	{r4, r5, pc}
10001e64:	2001      	movs	r0, #1
10001e66:	f7fe fb2d 	bl	100004c4 <spin_lock_claim_unused>
10001e6a:	4601      	mov	r1, r0
10001e6c:	4809      	ldr	r0, [pc, #36]	; (10001e94 <stdio_usb_init+0xcc>)
10001e6e:	f7fe fdaf 	bl	100009d0 <critical_section_init_with_lock_num>
10001e72:	2200      	movs	r2, #0
10001e74:	200e      	movs	r0, #14
10001e76:	490a      	ldr	r1, [pc, #40]	; (10001ea0 <stdio_usb_init+0xd8>)
10001e78:	f7fe fbdc 	bl	10000634 <irq_add_shared_handler>
10001e7c:	e7eb      	b.n	10001e56 <stdio_usb_init+0x8e>
10001e7e:	f7fe fd8b 	bl	10000998 <mutex_init>
10001e82:	e7b9      	b.n	10001df8 <stdio_usb_init+0x30>
10001e84:	10006e30 	.word	0x10006e30
10001e88:	20001f14 	.word	0x20001f14
10001e8c:	20006025 	.word	0x20006025
10001e90:	10001d01 	.word	0x10001d01
10001e94:	20001e60 	.word	0x20001e60
10001e98:	10001ac5 	.word	0x10001ac5
10001e9c:	20001234 	.word	0x20001234
10001ea0:	10001b35 	.word	0x10001b35

10001ea4 <tud_descriptor_device_cb>:
10001ea4:	4800      	ldr	r0, [pc, #0]	; (10001ea8 <tud_descriptor_device_cb+0x4>)
10001ea6:	4770      	bx	lr
10001ea8:	10006d28 	.word	0x10006d28

10001eac <tud_descriptor_configuration_cb>:
10001eac:	4800      	ldr	r0, [pc, #0]	; (10001eb0 <tud_descriptor_configuration_cb+0x4>)
10001eae:	4770      	bx	lr
10001eb0:	10006cd4 	.word	0x10006cd4

10001eb4 <tud_descriptor_string_cb>:
10001eb4:	b538      	push	{r3, r4, r5, lr}
10001eb6:	4b1a      	ldr	r3, [pc, #104]	; (10001f20 <tud_descriptor_string_cb+0x6c>)
10001eb8:	4604      	mov	r4, r0
10001eba:	781a      	ldrb	r2, [r3, #0]
10001ebc:	b32a      	cbz	r2, 10001f0a <tud_descriptor_string_cb+0x56>
10001ebe:	b944      	cbnz	r4, 10001ed2 <tud_descriptor_string_cb+0x1e>
10001ec0:	f240 4209 	movw	r2, #1033	; 0x409
10001ec4:	f44f 7341 	mov.w	r3, #772	; 0x304
10001ec8:	4d16      	ldr	r5, [pc, #88]	; (10001f24 <tud_descriptor_string_cb+0x70>)
10001eca:	806a      	strh	r2, [r5, #2]
10001ecc:	4815      	ldr	r0, [pc, #84]	; (10001f24 <tud_descriptor_string_cb+0x70>)
10001ece:	802b      	strh	r3, [r5, #0]
10001ed0:	bd38      	pop	{r3, r4, r5, pc}
10001ed2:	2c05      	cmp	r4, #5
10001ed4:	d821      	bhi.n	10001f1a <tud_descriptor_string_cb+0x66>
10001ed6:	4b14      	ldr	r3, [pc, #80]	; (10001f28 <tud_descriptor_string_cb+0x74>)
10001ed8:	4d12      	ldr	r5, [pc, #72]	; (10001f24 <tud_descriptor_string_cb+0x70>)
10001eda:	f853 1024 	ldr.w	r1, [r3, r4, lsl #2]
10001ede:	4628      	mov	r0, r5
10001ee0:	2300      	movs	r3, #0
10001ee2:	3901      	subs	r1, #1
10001ee4:	e003      	b.n	10001eee <tud_descriptor_string_cb+0x3a>
10001ee6:	2b13      	cmp	r3, #19
10001ee8:	f820 2f02 	strh.w	r2, [r0, #2]!
10001eec:	d012      	beq.n	10001f14 <tud_descriptor_string_cb+0x60>
10001eee:	f811 2f01 	ldrb.w	r2, [r1, #1]!
10001ef2:	fa5f fc83 	uxtb.w	ip, r3
10001ef6:	3301      	adds	r3, #1
10001ef8:	2a00      	cmp	r2, #0
10001efa:	d1f4      	bne.n	10001ee6 <tud_descriptor_string_cb+0x32>
10001efc:	f10c 0301 	add.w	r3, ip, #1
10001f00:	b2db      	uxtb	r3, r3
10001f02:	005b      	lsls	r3, r3, #1
10001f04:	f443 7340 	orr.w	r3, r3, #768	; 0x300
10001f08:	e7e0      	b.n	10001ecc <tud_descriptor_string_cb+0x18>
10001f0a:	2111      	movs	r1, #17
10001f0c:	4618      	mov	r0, r3
10001f0e:	f000 f825 	bl	10001f5c <pico_get_unique_board_id_string>
10001f12:	e7d4      	b.n	10001ebe <tud_descriptor_string_cb+0xa>
10001f14:	f44f 734a 	mov.w	r3, #808	; 0x328
10001f18:	e7d8      	b.n	10001ecc <tud_descriptor_string_cb+0x18>
10001f1a:	2000      	movs	r0, #0
10001f1c:	bd38      	pop	{r3, r4, r5, pc}
10001f1e:	bf00      	nop
10001f20:	20005f24 	.word	0x20005f24
10001f24:	20001a1c 	.word	0x20001a1c
10001f28:	10006d3c 	.word	0x10006d3c

10001f2c <_retrieve_unique_id_on_boot>:
10001f2c:	b500      	push	{lr}
10001f2e:	f245 3047 	movw	r0, #21319	; 0x5347
10001f32:	b08b      	sub	sp, #44	; 0x2c
10001f34:	f7ff fa40 	bl	100013b8 <rom_func_lookup>
10001f38:	2201      	movs	r2, #1
10001f3a:	4603      	mov	r3, r0
10001f3c:	2109      	movs	r1, #9
10001f3e:	a801      	add	r0, sp, #4
10001f40:	4798      	blx	r3
10001f42:	e9dd 3203 	ldrd	r3, r2, [sp, #12]
10001f46:	4904      	ldr	r1, [pc, #16]	; (10001f58 <_retrieve_unique_id_on_boot+0x2c>)
10001f48:	ba12      	rev	r2, r2
10001f4a:	ba1b      	rev	r3, r3
10001f4c:	e9c1 2300 	strd	r2, r3, [r1]
10001f50:	b00b      	add	sp, #44	; 0x2c
10001f52:	f85d fb04 	ldr.w	pc, [sp], #4
10001f56:	bf00      	nop
10001f58:	20001f08 	.word	0x20001f08

10001f5c <pico_get_unique_board_id_string>:
10001f5c:	3901      	subs	r1, #1
10001f5e:	f000 80b3 	beq.w	100020c8 <pico_get_unique_board_id_string+0x16c>
10001f62:	4a5d      	ldr	r2, [pc, #372]	; (100020d8 <pico_get_unique_board_id_string+0x17c>)
10001f64:	7813      	ldrb	r3, [r2, #0]
10001f66:	ea4f 1c23 	mov.w	ip, r3, asr #4
10001f6a:	2b9f      	cmp	r3, #159	; 0x9f
10001f6c:	bf8c      	ite	hi
10001f6e:	f10c 0c37 	addhi.w	ip, ip, #55	; 0x37
10001f72:	f10c 0c30 	addls.w	ip, ip, #48	; 0x30
10001f76:	2901      	cmp	r1, #1
10001f78:	f880 c000 	strb.w	ip, [r0]
10001f7c:	f000 80a7 	beq.w	100020ce <pico_get_unique_board_id_string+0x172>
10001f80:	f003 030f 	and.w	r3, r3, #15
10001f84:	2b09      	cmp	r3, #9
10001f86:	bfcc      	ite	gt
10001f88:	3337      	addgt	r3, #55	; 0x37
10001f8a:	3330      	addle	r3, #48	; 0x30
10001f8c:	2902      	cmp	r1, #2
10001f8e:	7043      	strb	r3, [r0, #1]
10001f90:	f000 809d 	beq.w	100020ce <pico_get_unique_board_id_string+0x172>
10001f94:	7853      	ldrb	r3, [r2, #1]
10001f96:	ea4f 1c23 	mov.w	ip, r3, asr #4
10001f9a:	2b9f      	cmp	r3, #159	; 0x9f
10001f9c:	bf8c      	ite	hi
10001f9e:	f10c 0c37 	addhi.w	ip, ip, #55	; 0x37
10001fa2:	f10c 0c30 	addls.w	ip, ip, #48	; 0x30
10001fa6:	2903      	cmp	r1, #3
10001fa8:	f880 c002 	strb.w	ip, [r0, #2]
10001fac:	f000 808f 	beq.w	100020ce <pico_get_unique_board_id_string+0x172>
10001fb0:	f003 030f 	and.w	r3, r3, #15
10001fb4:	2b09      	cmp	r3, #9
10001fb6:	bfcc      	ite	gt
10001fb8:	3337      	addgt	r3, #55	; 0x37
10001fba:	3330      	addle	r3, #48	; 0x30
10001fbc:	2904      	cmp	r1, #4
10001fbe:	70c3      	strb	r3, [r0, #3]
10001fc0:	f000 8085 	beq.w	100020ce <pico_get_unique_board_id_string+0x172>
10001fc4:	7893      	ldrb	r3, [r2, #2]
10001fc6:	ea4f 1c23 	mov.w	ip, r3, asr #4
10001fca:	2b9f      	cmp	r3, #159	; 0x9f
10001fcc:	bf8c      	ite	hi
10001fce:	f10c 0c37 	addhi.w	ip, ip, #55	; 0x37
10001fd2:	f10c 0c30 	addls.w	ip, ip, #48	; 0x30
10001fd6:	2905      	cmp	r1, #5
10001fd8:	f880 c004 	strb.w	ip, [r0, #4]
10001fdc:	d077      	beq.n	100020ce <pico_get_unique_board_id_string+0x172>
10001fde:	f003 030f 	and.w	r3, r3, #15
10001fe2:	2b09      	cmp	r3, #9
10001fe4:	bfcc      	ite	gt
10001fe6:	3337      	addgt	r3, #55	; 0x37
10001fe8:	3330      	addle	r3, #48	; 0x30
10001fea:	2906      	cmp	r1, #6
10001fec:	7143      	strb	r3, [r0, #5]
10001fee:	d06e      	beq.n	100020ce <pico_get_unique_board_id_string+0x172>
10001ff0:	78d3      	ldrb	r3, [r2, #3]
10001ff2:	ea4f 1c23 	mov.w	ip, r3, asr #4
10001ff6:	2b9f      	cmp	r3, #159	; 0x9f
10001ff8:	bf8c      	ite	hi
10001ffa:	f10c 0c37 	addhi.w	ip, ip, #55	; 0x37
10001ffe:	f10c 0c30 	addls.w	ip, ip, #48	; 0x30
10002002:	2907      	cmp	r1, #7
10002004:	f880 c006 	strb.w	ip, [r0, #6]
10002008:	d061      	beq.n	100020ce <pico_get_unique_board_id_string+0x172>
1000200a:	f003 030f 	and.w	r3, r3, #15
1000200e:	2b09      	cmp	r3, #9
10002010:	bfcc      	ite	gt
10002012:	3337      	addgt	r3, #55	; 0x37
10002014:	3330      	addle	r3, #48	; 0x30
10002016:	2908      	cmp	r1, #8
10002018:	71c3      	strb	r3, [r0, #7]
1000201a:	d058      	beq.n	100020ce <pico_get_unique_board_id_string+0x172>
1000201c:	7913      	ldrb	r3, [r2, #4]
1000201e:	ea4f 1c23 	mov.w	ip, r3, asr #4
10002022:	2b9f      	cmp	r3, #159	; 0x9f
10002024:	bf8c      	ite	hi
10002026:	f10c 0c37 	addhi.w	ip, ip, #55	; 0x37
1000202a:	f10c 0c30 	addls.w	ip, ip, #48	; 0x30
1000202e:	2909      	cmp	r1, #9
10002030:	f880 c008 	strb.w	ip, [r0, #8]
10002034:	d04b      	beq.n	100020ce <pico_get_unique_board_id_string+0x172>
10002036:	f003 030f 	and.w	r3, r3, #15
1000203a:	2b09      	cmp	r3, #9
1000203c:	bfcc      	ite	gt
1000203e:	3337      	addgt	r3, #55	; 0x37
10002040:	3330      	addle	r3, #48	; 0x30
10002042:	290a      	cmp	r1, #10
10002044:	7243      	strb	r3, [r0, #9]
10002046:	d042      	beq.n	100020ce <pico_get_unique_board_id_string+0x172>
10002048:	7953      	ldrb	r3, [r2, #5]
1000204a:	ea4f 1c23 	mov.w	ip, r3, asr #4
1000204e:	2b9f      	cmp	r3, #159	; 0x9f
10002050:	bf8c      	ite	hi
10002052:	f10c 0c37 	addhi.w	ip, ip, #55	; 0x37
10002056:	f10c 0c30 	addls.w	ip, ip, #48	; 0x30
1000205a:	290b      	cmp	r1, #11
1000205c:	f880 c00a 	strb.w	ip, [r0, #10]
10002060:	d035      	beq.n	100020ce <pico_get_unique_board_id_string+0x172>
10002062:	f003 030f 	and.w	r3, r3, #15
10002066:	2b09      	cmp	r3, #9
10002068:	bfcc      	ite	gt
1000206a:	3337      	addgt	r3, #55	; 0x37
1000206c:	3330      	addle	r3, #48	; 0x30
1000206e:	290c      	cmp	r1, #12
10002070:	72c3      	strb	r3, [r0, #11]
10002072:	d02c      	beq.n	100020ce <pico_get_unique_board_id_string+0x172>
10002074:	7993      	ldrb	r3, [r2, #6]
10002076:	ea4f 1c23 	mov.w	ip, r3, asr #4
1000207a:	2b9f      	cmp	r3, #159	; 0x9f
1000207c:	bf8c      	ite	hi
1000207e:	f10c 0c37 	addhi.w	ip, ip, #55	; 0x37
10002082:	f10c 0c30 	addls.w	ip, ip, #48	; 0x30
10002086:	290d      	cmp	r1, #13
10002088:	f880 c00c 	strb.w	ip, [r0, #12]
1000208c:	d01f      	beq.n	100020ce <pico_get_unique_board_id_string+0x172>
1000208e:	f003 030f 	and.w	r3, r3, #15
10002092:	2b09      	cmp	r3, #9
10002094:	bfcc      	ite	gt
10002096:	3337      	addgt	r3, #55	; 0x37
10002098:	3330      	addle	r3, #48	; 0x30
1000209a:	290e      	cmp	r1, #14
1000209c:	7343      	strb	r3, [r0, #13]
1000209e:	d016      	beq.n	100020ce <pico_get_unique_board_id_string+0x172>
100020a0:	79d3      	ldrb	r3, [r2, #7]
100020a2:	111a      	asrs	r2, r3, #4
100020a4:	2b9f      	cmp	r3, #159	; 0x9f
100020a6:	bf8c      	ite	hi
100020a8:	3237      	addhi	r2, #55	; 0x37
100020aa:	3230      	addls	r2, #48	; 0x30
100020ac:	290f      	cmp	r1, #15
100020ae:	7382      	strb	r2, [r0, #14]
100020b0:	d00d      	beq.n	100020ce <pico_get_unique_board_id_string+0x172>
100020b2:	f003 030f 	and.w	r3, r3, #15
100020b6:	2b09      	cmp	r3, #9
100020b8:	bfd4      	ite	le
100020ba:	3330      	addle	r3, #48	; 0x30
100020bc:	3337      	addgt	r3, #55	; 0x37
100020be:	2910      	cmp	r1, #16
100020c0:	73c3      	strb	r3, [r0, #15]
100020c2:	bf18      	it	ne
100020c4:	3010      	addne	r0, #16
100020c6:	d002      	beq.n	100020ce <pico_get_unique_board_id_string+0x172>
100020c8:	2300      	movs	r3, #0
100020ca:	7003      	strb	r3, [r0, #0]
100020cc:	4770      	bx	lr
100020ce:	2300      	movs	r3, #0
100020d0:	4408      	add	r0, r1
100020d2:	7003      	strb	r3, [r0, #0]
100020d4:	4770      	bx	lr
100020d6:	bf00      	nop
100020d8:	20001f08 	.word	0x20001f08

100020dc <dcd_init>:
100020dc:	b5f8      	push	{r3, r4, r5, r6, r7, lr}
100020de:	f000 f93b 	bl	10002358 <rp2040_usb_init>
100020e2:	230c      	movs	r3, #12
100020e4:	2740      	movs	r7, #64	; 0x40
100020e6:	4d1a      	ldr	r5, [pc, #104]	; (10002150 <dcd_init+0x74>)
100020e8:	4c1a      	ldr	r4, [pc, #104]	; (10002154 <dcd_init+0x78>)
100020ea:	67ab      	str	r3, [r5, #120]	; 0x78
100020ec:	22ff      	movs	r2, #255	; 0xff
100020ee:	200e      	movs	r0, #14
100020f0:	4919      	ldr	r1, [pc, #100]	; (10002158 <dcd_init+0x7c>)
100020f2:	f7fe fa9f 	bl	10000634 <irq_add_shared_handler>
100020f6:	463a      	mov	r2, r7
100020f8:	2100      	movs	r1, #0
100020fa:	4620      	mov	r0, r4
100020fc:	f004 fbac 	bl	10006858 <memset>
10002100:	4b16      	ldr	r3, [pc, #88]	; (1000215c <dcd_init+0x80>)
10002102:	2601      	movs	r6, #1
10002104:	62a3      	str	r3, [r4, #40]	; 0x28
10002106:	2180      	movs	r1, #128	; 0x80
10002108:	2300      	movs	r3, #0
1000210a:	4a15      	ldr	r2, [pc, #84]	; (10002160 <dcd_init+0x84>)
1000210c:	7066      	strb	r6, [r4, #1]
1000210e:	60a2      	str	r2, [r4, #8]
10002110:	3a84      	subs	r2, #132	; 0x84
10002112:	8327      	strh	r7, [r4, #24]
10002114:	8727      	strh	r7, [r4, #56]	; 0x38
10002116:	8461      	strh	r1, [r4, #34]	; 0x22
10002118:	f8c2 3084 	str.w	r3, [r2, #132]	; 0x84
1000211c:	f8c2 3080 	str.w	r3, [r2, #128]	; 0x80
10002120:	6063      	str	r3, [r4, #4]
10002122:	f884 3021 	strb.w	r3, [r4, #33]	; 0x21
10002126:	f884 303b 	strb.w	r3, [r4, #59]	; 0x3b
1000212a:	6263      	str	r3, [r4, #36]	; 0x24
1000212c:	4b0d      	ldr	r3, [pc, #52]	; (10002164 <dcd_init+0x88>)
1000212e:	60e3      	str	r3, [r4, #12]
10002130:	62e3      	str	r3, [r4, #44]	; 0x2c
10002132:	f004 fc1d 	bl	10006970 <__reset_non_control_endpoints_veneer>
10002136:	f04f 5400 	mov.w	r4, #536870912	; 0x20000000
1000213a:	f44f 3280 	mov.w	r2, #65536	; 0x10000
1000213e:	490a      	ldr	r1, [pc, #40]	; (10002168 <dcd_init+0x8c>)
10002140:	4b0a      	ldr	r3, [pc, #40]	; (1000216c <dcd_init+0x90>)
10002142:	642e      	str	r6, [r5, #64]	; 0x40
10002144:	4630      	mov	r0, r6
10002146:	64ec      	str	r4, [r5, #76]	; 0x4c
10002148:	f8c5 1090 	str.w	r1, [r5, #144]	; 0x90
1000214c:	64da      	str	r2, [r3, #76]	; 0x4c
1000214e:	bdf8      	pop	{r3, r4, r5, r6, r7, pc}
10002150:	50110000 	.word	0x50110000
10002154:	20001a54 	.word	0x20001a54
10002158:	200003bd 	.word	0x200003bd
1000215c:	50100080 	.word	0x50100080
10002160:	50100084 	.word	0x50100084
10002164:	50100100 	.word	0x50100100
10002168:	0001d010 	.word	0x0001d010
1000216c:	50112000 	.word	0x50112000

10002170 <dcd_int_enable>:
10002170:	2101      	movs	r1, #1
10002172:	200e      	movs	r0, #14
10002174:	f7fe b9ea 	b.w	1000054c <irq_set_enabled>

10002178 <dcd_set_address>:
10002178:	2200      	movs	r2, #0
1000217a:	4802      	ldr	r0, [pc, #8]	; (10002184 <dcd_set_address+0xc>)
1000217c:	4611      	mov	r1, r2
1000217e:	f000 b90b 	b.w	10002398 <hw_endpoint_xfer_start>
10002182:	bf00      	nop
10002184:	20001a74 	.word	0x20001a74

10002188 <dcd_sof_enable>:
10002188:	4b04      	ldr	r3, [pc, #16]	; (1000219c <dcd_sof_enable+0x14>)
1000218a:	7019      	strb	r1, [r3, #0]
1000218c:	b121      	cbz	r1, 10002198 <dcd_sof_enable+0x10>
1000218e:	f44f 3200 	mov.w	r2, #131072	; 0x20000
10002192:	4b03      	ldr	r3, [pc, #12]	; (100021a0 <dcd_sof_enable+0x18>)
10002194:	f8c3 2090 	str.w	r2, [r3, #144]	; 0x90
10002198:	4770      	bx	lr
1000219a:	bf00      	nop
1000219c:	20006021 	.word	0x20006021
100021a0:	50112000 	.word	0x50112000

100021a4 <dcd_edpt0_status_complete>:
100021a4:	780b      	ldrb	r3, [r1, #0]
100021a6:	065b      	lsls	r3, r3, #25
100021a8:	d102      	bne.n	100021b0 <dcd_edpt0_status_complete+0xc>
100021aa:	784b      	ldrb	r3, [r1, #1]
100021ac:	2b05      	cmp	r3, #5
100021ae:	d000      	beq.n	100021b2 <dcd_edpt0_status_complete+0xe>
100021b0:	4770      	bx	lr
100021b2:	884b      	ldrh	r3, [r1, #2]
100021b4:	4a01      	ldr	r2, [pc, #4]	; (100021bc <dcd_edpt0_status_complete+0x18>)
100021b6:	b2db      	uxtb	r3, r3
100021b8:	6013      	str	r3, [r2, #0]
100021ba:	4770      	bx	lr
100021bc:	50110000 	.word	0x50110000

100021c0 <dcd_edpt_open>:
100021c0:	78cb      	ldrb	r3, [r1, #3]
100021c2:	e92d 41f0 	stmdb	sp!, {r4, r5, r6, r7, r8, lr}
100021c6:	f003 0e03 	and.w	lr, r3, #3
100021ca:	f1be 0f01 	cmp.w	lr, #1
100021ce:	f3c3 0001 	ubfx	r0, r3, #0, #2
100021d2:	d05f      	beq.n	10002294 <dcd_edpt_open+0xd4>
100021d4:	2700      	movs	r7, #0
100021d6:	f891 c002 	ldrb.w	ip, [r1, #2]
100021da:	4d37      	ldr	r5, [pc, #220]	; (100022b8 <dcd_edpt_open+0xf8>)
100021dc:	f00c 027f 	and.w	r2, ip, #127	; 0x7f
100021e0:	0056      	lsls	r6, r2, #1
100021e2:	8889      	ldrh	r1, [r1, #4]
100021e4:	eb06 13dc 	add.w	r3, r6, ip, lsr #7
100021e8:	eb05 1343 	add.w	r3, r5, r3, lsl #5
100021ec:	ea4f 14dc 	mov.w	r4, ip, lsr #7
100021f0:	f3c1 010a 	ubfx	r1, r1, #0, #11
100021f4:	76d8      	strb	r0, [r3, #27]
100021f6:	f084 0001 	eor.w	r0, r4, #1
100021fa:	f883 c002 	strb.w	ip, [r3, #2]
100021fe:	8319      	strh	r1, [r3, #24]
10002200:	7058      	strb	r0, [r3, #1]
10002202:	70df      	strb	r7, [r3, #3]
10002204:	bb94      	cbnz	r4, 1000226c <dcd_edpt_open+0xac>
10002206:	2304      	movs	r3, #4
10002208:	482c      	ldr	r0, [pc, #176]	; (100022bc <dcd_edpt_open+0xfc>)
1000220a:	eb03 03c2 	add.w	r3, r3, r2, lsl #3
1000220e:	eb05 1c82 	add.w	ip, r5, r2, lsl #6
10002212:	eb03 0800 	add.w	r8, r3, r0
10002216:	f8cc 8008 	str.w	r8, [ip, #8]
1000221a:	501f      	str	r7, [r3, r0]
1000221c:	b38a      	cbz	r2, 10002282 <dcd_edpt_open+0xc2>
1000221e:	4b28      	ldr	r3, [pc, #160]	; (100022c0 <dcd_edpt_open+0x100>)
10002220:	00d2      	lsls	r2, r2, #3
10002222:	4413      	add	r3, r2
10002224:	f8cc 3004 	str.w	r3, [ip, #4]
10002228:	313f      	adds	r1, #63	; 0x3f
1000222a:	f1be 0f02 	cmp.w	lr, #2
1000222e:	f021 013f 	bic.w	r1, r1, #63	; 0x3f
10002232:	d03a      	beq.n	100022aa <dcd_edpt_open+0xea>
10002234:	4a23      	ldr	r2, [pc, #140]	; (100022c4 <dcd_edpt_open+0x104>)
10002236:	1937      	adds	r7, r6, r4
10002238:	6813      	ldr	r3, [r2, #0]
1000223a:	eb05 1747 	add.w	r7, r5, r7, lsl #5
1000223e:	4419      	add	r1, r3
10002240:	6011      	str	r1, [r2, #0]
10002242:	4a21      	ldr	r2, [pc, #132]	; (100022c8 <dcd_edpt_open+0x108>)
10002244:	60fb      	str	r3, [r7, #12]
10002246:	4291      	cmp	r1, r2
10002248:	d831      	bhi.n	100022ae <dcd_edpt_open+0xee>
1000224a:	4434      	add	r4, r6
1000224c:	eb05 1544 	add.w	r5, r5, r4, lsl #5
10002250:	7ee9      	ldrb	r1, [r5, #27]
10002252:	f083 43a0 	eor.w	r3, r3, #1342177280	; 0x50000000
10002256:	f483 1380 	eor.w	r3, r3, #1048576	; 0x100000
1000225a:	686a      	ldr	r2, [r5, #4]
1000225c:	ea43 6381 	orr.w	r3, r3, r1, lsl #26
10002260:	f043 4300 	orr.w	r3, r3, #2147483648	; 0x80000000
10002264:	2001      	movs	r0, #1
10002266:	6013      	str	r3, [r2, #0]
10002268:	e8bd 81f0 	ldmia.w	sp!, {r4, r5, r6, r7, r8, pc}
1000226c:	4813      	ldr	r0, [pc, #76]	; (100022bc <dcd_edpt_open+0xfc>)
1000226e:	b213      	sxth	r3, r2
10002270:	eb00 08c2 	add.w	r8, r0, r2, lsl #3
10002274:	eb05 1c82 	add.w	ip, r5, r2, lsl #6
10002278:	f8cc 8028 	str.w	r8, [ip, #40]	; 0x28
1000227c:	f840 7033 	str.w	r7, [r0, r3, lsl #3]
10002280:	b95a      	cbnz	r2, 1000229a <dcd_edpt_open+0xda>
10002282:	2300      	movs	r3, #0
10002284:	4a11      	ldr	r2, [pc, #68]	; (100022cc <dcd_edpt_open+0x10c>)
10002286:	eb05 1444 	add.w	r4, r5, r4, lsl #5
1000228a:	2001      	movs	r0, #1
1000228c:	60e2      	str	r2, [r4, #12]
1000228e:	6063      	str	r3, [r4, #4]
10002290:	e8bd 81f0 	ldmia.w	sp!, {r4, r5, r6, r7, r8, pc}
10002294:	2000      	movs	r0, #0
10002296:	e8bd 81f0 	ldmia.w	sp!, {r4, r5, r6, r7, r8, pc}
1000229a:	00d2      	lsls	r2, r2, #3
1000229c:	f102 42a0 	add.w	r2, r2, #1342177280	; 0x50000000
100022a0:	f502 1280 	add.w	r2, r2, #1048576	; 0x100000
100022a4:	f8cc 2024 	str.w	r2, [ip, #36]	; 0x24
100022a8:	e7be      	b.n	10002228 <dcd_edpt_open+0x68>
100022aa:	0049      	lsls	r1, r1, #1
100022ac:	e7c2      	b.n	10002234 <dcd_edpt_open+0x74>
100022ae:	f7ff f8cf 	bl	10001450 <hard_assertion_failure>
100022b2:	68fb      	ldr	r3, [r7, #12]
100022b4:	e7c9      	b.n	1000224a <dcd_edpt_open+0x8a>
100022b6:	bf00      	nop
100022b8:	20001a54 	.word	0x20001a54
100022bc:	50100080 	.word	0x50100080
100022c0:	50100004 	.word	0x50100004
100022c4:	20001e5c 	.word	0x20001e5c
100022c8:	50100fff 	.word	0x50100fff
100022cc:	50100100 	.word	0x50100100

100022d0 <dcd_edpt_close_all>:
100022d0:	f004 bb4e 	b.w	10006970 <__reset_non_control_endpoints_veneer>

100022d4 <dcd_edpt_xfer>:
100022d4:	468c      	mov	ip, r1
100022d6:	b508      	push	{r3, lr}
100022d8:	4611      	mov	r1, r2
100022da:	4807      	ldr	r0, [pc, #28]	; (100022f8 <dcd_edpt_xfer+0x24>)
100022dc:	461a      	mov	r2, r3
100022de:	f00c 037f 	and.w	r3, ip, #127	; 0x7f
100022e2:	ea4f 1cdc 	mov.w	ip, ip, lsr #7
100022e6:	eb0c 0c43 	add.w	ip, ip, r3, lsl #1
100022ea:	eb00 104c 	add.w	r0, r0, ip, lsl #5
100022ee:	f000 f853 	bl	10002398 <hw_endpoint_xfer_start>
100022f2:	2001      	movs	r0, #1
100022f4:	bd08      	pop	{r3, pc}
100022f6:	bf00      	nop
100022f8:	20001a54 	.word	0x20001a54

100022fc <dcd_edpt_stall>:
100022fc:	f011 007f 	ands.w	r0, r1, #127	; 0x7f
10002300:	d00a      	beq.n	10002318 <dcd_edpt_stall+0x1c>
10002302:	09c9      	lsrs	r1, r1, #7
10002304:	4b07      	ldr	r3, [pc, #28]	; (10002324 <dcd_edpt_stall+0x28>)
10002306:	eb01 0040 	add.w	r0, r1, r0, lsl #1
1000230a:	f44f 6200 	mov.w	r2, #2048	; 0x800
1000230e:	2100      	movs	r1, #0
10002310:	eb03 1040 	add.w	r0, r3, r0, lsl #5
10002314:	f004 bb74 	b.w	10006a00 <___hw_endpoint_buffer_control_update32_veneer>
10002318:	4b03      	ldr	r3, [pc, #12]	; (10002328 <dcd_edpt_stall+0x2c>)
1000231a:	09c9      	lsrs	r1, r1, #7
1000231c:	f1c1 0202 	rsb	r2, r1, #2
10002320:	669a      	str	r2, [r3, #104]	; 0x68
10002322:	e7ef      	b.n	10002304 <dcd_edpt_stall+0x8>
10002324:	20001a54 	.word	0x20001a54
10002328:	50112000 	.word	0x50112000

1000232c <dcd_edpt_clear_stall>:
1000232c:	f011 037f 	ands.w	r3, r1, #127	; 0x7f
10002330:	d100      	bne.n	10002334 <dcd_edpt_clear_stall+0x8>
10002332:	4770      	bx	lr
10002334:	2200      	movs	r2, #0
10002336:	b410      	push	{r4}
10002338:	09c8      	lsrs	r0, r1, #7
1000233a:	4c06      	ldr	r4, [pc, #24]	; (10002354 <dcd_edpt_clear_stall+0x28>)
1000233c:	eb00 0043 	add.w	r0, r0, r3, lsl #1
10002340:	eb04 1340 	add.w	r3, r4, r0, lsl #5
10002344:	f46f 6100 	mvn.w	r1, #2048	; 0x800
10002348:	4618      	mov	r0, r3
1000234a:	f85d 4b04 	ldr.w	r4, [sp], #4
1000234e:	70da      	strb	r2, [r3, #3]
10002350:	f004 bb56 	b.w	10006a00 <___hw_endpoint_buffer_control_update32_veneer>
10002354:	20001a54 	.word	0x20001a54

10002358 <rp2040_usb_init>:
10002358:	f04f 5280 	mov.w	r2, #268435456	; 0x10000000
1000235c:	4809      	ldr	r0, [pc, #36]	; (10002384 <rp2040_usb_init+0x2c>)
1000235e:	490a      	ldr	r1, [pc, #40]	; (10002388 <rp2040_usb_init+0x30>)
10002360:	b508      	push	{r3, lr}
10002362:	4b0a      	ldr	r3, [pc, #40]	; (1000238c <rp2040_usb_init+0x34>)
10002364:	6002      	str	r2, [r0, #0]
10002366:	600a      	str	r2, [r1, #0]
10002368:	6899      	ldr	r1, [r3, #8]
1000236a:	43c9      	mvns	r1, r1
1000236c:	f011 5180 	ands.w	r1, r1, #268435456	; 0x10000000
10002370:	d1fa      	bne.n	10002368 <rp2040_usb_init+0x10>
10002372:	f44f 5280 	mov.w	r2, #4096	; 0x1000
10002376:	4806      	ldr	r0, [pc, #24]	; (10002390 <rp2040_usb_init+0x38>)
10002378:	f004 fa6e 	bl	10006858 <memset>
1000237c:	2209      	movs	r2, #9
1000237e:	4b05      	ldr	r3, [pc, #20]	; (10002394 <rp2040_usb_init+0x3c>)
10002380:	675a      	str	r2, [r3, #116]	; 0x74
10002382:	bd08      	pop	{r3, pc}
10002384:	40022000 	.word	0x40022000
10002388:	40023000 	.word	0x40023000
1000238c:	40020000 	.word	0x40020000
10002390:	50100000 	.word	0x50100000
10002394:	50110000 	.word	0x50110000

10002398 <hw_endpoint_xfer_start>:
10002398:	7e83      	ldrb	r3, [r0, #26]
1000239a:	b510      	push	{r4, lr}
1000239c:	4604      	mov	r4, r0
1000239e:	b9bb      	cbnz	r3, 100023d0 <hw_endpoint_xfer_start+0x38>
100023a0:	f04f 0c00 	mov.w	ip, #0
100023a4:	2301      	movs	r3, #1
100023a6:	4620      	mov	r0, r4
100023a8:	82a2      	strh	r2, [r4, #20]
100023aa:	6121      	str	r1, [r4, #16]
100023ac:	f8a4 c016 	strh.w	ip, [r4, #22]
100023b0:	76a3      	strb	r3, [r4, #26]
100023b2:	f004 fad5 	bl	10006960 <__e15_is_bulkin_ep_veneer>
100023b6:	b120      	cbz	r0, 100023c2 <hw_endpoint_xfer_start+0x2a>
100023b8:	f44f 3200 	mov.w	r2, #131072	; 0x20000
100023bc:	4b08      	ldr	r3, [pc, #32]	; (100023e0 <hw_endpoint_xfer_start+0x48>)
100023be:	f8c3 2090 	str.w	r2, [r3, #144]	; 0x90
100023c2:	4620      	mov	r0, r4
100023c4:	f004 fb14 	bl	100069f0 <__e15_is_critical_frame_period_veneer>
100023c8:	b128      	cbz	r0, 100023d6 <hw_endpoint_xfer_start+0x3e>
100023ca:	2301      	movs	r3, #1
100023cc:	7723      	strb	r3, [r4, #28]
100023ce:	bd10      	pop	{r4, pc}
100023d0:	f004 fb06 	bl	100069e0 <__hw_endpoint_reset_transfer_veneer>
100023d4:	e7e4      	b.n	100023a0 <hw_endpoint_xfer_start+0x8>
100023d6:	4620      	mov	r0, r4
100023d8:	e8bd 4010 	ldmia.w	sp!, {r4, lr}
100023dc:	f004 baf8 	b.w	100069d0 <__hw_endpoint_start_next_buffer_veneer>
100023e0:	50112000 	.word	0x50112000

100023e4 <configuration_reset>:
100023e4:	e92d 41f0 	stmdb	sp!, {r4, r5, r6, r7, r8, lr}
100023e8:	2400      	movs	r4, #0
100023ea:	4d1d      	ldr	r5, [pc, #116]	; (10002460 <configuration_reset+0x7c>)
100023ec:	4680      	mov	r8, r0
100023ee:	4623      	mov	r3, r4
100023f0:	782a      	ldrb	r2, [r5, #0]
100023f2:	4f1c      	ldr	r7, [pc, #112]	; (10002464 <configuration_reset+0x80>)
100023f4:	4e1c      	ldr	r6, [pc, #112]	; (10002468 <configuration_reset+0x84>)
100023f6:	e00d      	b.n	10002414 <configuration_reset+0x30>
100023f8:	6833      	ldr	r3, [r6, #0]
100023fa:	eb13 1344 	adds.w	r3, r3, r4, lsl #5
100023fe:	d025      	beq.n	1000244c <configuration_reset+0x68>
10002400:	68db      	ldr	r3, [r3, #12]
10002402:	4640      	mov	r0, r8
10002404:	4798      	blx	r3
10002406:	782a      	ldrb	r2, [r5, #0]
10002408:	3401      	adds	r4, #1
1000240a:	b2e4      	uxtb	r4, r4
1000240c:	1c51      	adds	r1, r2, #1
1000240e:	42a1      	cmp	r1, r4
10002410:	4623      	mov	r3, r4
10002412:	db06      	blt.n	10002422 <configuration_reset+0x3e>
10002414:	42a2      	cmp	r2, r4
10002416:	eba3 0302 	sub.w	r3, r3, r2
1000241a:	d8ed      	bhi.n	100023f8 <configuration_reset+0x14>
1000241c:	eb07 1343 	add.w	r3, r7, r3, lsl #5
10002420:	e7ee      	b.n	10002400 <configuration_reset+0x1c>
10002422:	4c12      	ldr	r4, [pc, #72]	; (1000246c <configuration_reset+0x88>)
10002424:	2254      	movs	r2, #84	; 0x54
10002426:	2100      	movs	r1, #0
10002428:	4620      	mov	r0, r4
1000242a:	f004 fa15 	bl	10006858 <memset>
1000242e:	f04f 33ff 	mov.w	r3, #4294967295
10002432:	1d25      	adds	r5, r4, #4
10002434:	6063      	str	r3, [r4, #4]
10002436:	e9c5 3301 	strd	r3, r3, [r5, #4]
1000243a:	60eb      	str	r3, [r5, #12]
1000243c:	f104 0014 	add.w	r0, r4, #20
10002440:	2220      	movs	r2, #32
10002442:	e8bd 41f0 	ldmia.w	sp!, {r4, r5, r6, r7, r8, lr}
10002446:	21ff      	movs	r1, #255	; 0xff
10002448:	f004 ba06 	b.w	10006858 <memset>
1000244c:	f04f 23e0 	mov.w	r3, #3758153728	; 0xe000e000
10002450:	f8d3 3df0 	ldr.w	r3, [r3, #3568]	; 0xdf0
10002454:	07db      	lsls	r3, r3, #31
10002456:	d500      	bpl.n	1000245a <configuration_reset+0x76>
10002458:	be00      	bkpt	0x0000
1000245a:	e8bd 81f0 	ldmia.w	sp!, {r4, r5, r6, r7, r8, pc}
1000245e:	bf00      	nop
10002460:	20006020 	.word	0x20006020
10002464:	10006db0 	.word	0x10006db0
10002468:	2000142c 	.word	0x2000142c
1000246c:	200015fc 	.word	0x200015fc

10002470 <tud_event_hook_cb>:
10002470:	4770      	bx	lr
10002472:	bf00      	nop

10002474 <tud_sof_cb>:
10002474:	4770      	bx	lr
10002476:	bf00      	nop

10002478 <tud_descriptor_device_qualifier_cb>:
10002478:	2000      	movs	r0, #0
1000247a:	4770      	bx	lr

1000247c <tud_descriptor_other_speed_configuration_cb>:
1000247c:	2000      	movs	r0, #0
1000247e:	4770      	bx	lr

10002480 <tud_mount_cb>:
10002480:	4770      	bx	lr
10002482:	bf00      	nop

10002484 <tud_umount_cb>:
10002484:	4770      	bx	lr
10002486:	bf00      	nop

10002488 <tud_suspend_cb>:
10002488:	4770      	bx	lr
1000248a:	bf00      	nop

1000248c <tud_resume_cb>:
1000248c:	4770      	bx	lr
1000248e:	bf00      	nop

10002490 <tud_mounted>:
10002490:	4b02      	ldr	r3, [pc, #8]	; (1000249c <tud_mounted+0xc>)
10002492:	7858      	ldrb	r0, [r3, #1]
10002494:	3800      	subs	r0, #0
10002496:	bf18      	it	ne
10002498:	2001      	movne	r0, #1
1000249a:	4770      	bx	lr
1000249c:	200015fc 	.word	0x200015fc

100024a0 <tud_suspended>:
100024a0:	4b02      	ldr	r3, [pc, #8]	; (100024ac <tud_suspended+0xc>)
100024a2:	7818      	ldrb	r0, [r3, #0]
100024a4:	f3c0 0080 	ubfx	r0, r0, #2, #1
100024a8:	4770      	bx	lr
100024aa:	bf00      	nop
100024ac:	200015fc 	.word	0x200015fc

100024b0 <tud_rhport_init>:
100024b0:	e92d 47f0 	stmdb	sp!, {r4, r5, r6, r7, r8, r9, sl, lr}
100024b4:	f8df 8100 	ldr.w	r8, [pc, #256]	; 100025b8 <tud_rhport_init+0x108>
100024b8:	f898 3000 	ldrb.w	r3, [r8]
100024bc:	2bff      	cmp	r3, #255	; 0xff
100024be:	d14d      	bne.n	1000255c <tud_rhport_init+0xac>
100024c0:	460d      	mov	r5, r1
100024c2:	2900      	cmp	r1, #0
100024c4:	d04e      	beq.n	10002564 <tud_rhport_init+0xb4>
100024c6:	2100      	movs	r1, #0
100024c8:	2254      	movs	r2, #84	; 0x54
100024ca:	4607      	mov	r7, r0
100024cc:	4831      	ldr	r0, [pc, #196]	; (10002594 <tud_rhport_init+0xe4>)
100024ce:	f004 f9c3 	bl	10006858 <memset>
100024d2:	2200      	movs	r2, #0
100024d4:	4c30      	ldr	r4, [pc, #192]	; (10002598 <tud_rhport_init+0xe8>)
100024d6:	4b31      	ldr	r3, [pc, #196]	; (1000259c <tud_rhport_init+0xec>)
100024d8:	4620      	mov	r0, r4
100024da:	701a      	strb	r2, [r3, #0]
100024dc:	f7fe fa5c 	bl	10000998 <mutex_init>
100024e0:	4b2f      	ldr	r3, [pc, #188]	; (100025a0 <tud_rhport_init+0xf0>)
100024e2:	601c      	str	r4, [r3, #0]
100024e4:	4c2f      	ldr	r4, [pc, #188]	; (100025a4 <tud_rhport_init+0xf4>)
100024e6:	f104 0014 	add.w	r0, r4, #20
100024ea:	f7fe fa63 	bl	100009b4 <critical_section_init>
100024ee:	4620      	mov	r0, r4
100024f0:	f001 fdee 	bl	100040d0 <tu_fifo_clear>
100024f4:	4b2c      	ldr	r3, [pc, #176]	; (100025a8 <tud_rhport_init+0xf8>)
100024f6:	601c      	str	r4, [r3, #0]
100024f8:	4b2c      	ldr	r3, [pc, #176]	; (100025ac <tud_rhport_init+0xfc>)
100024fa:	b123      	cbz	r3, 10002506 <tud_rhport_init+0x56>
100024fc:	482c      	ldr	r0, [pc, #176]	; (100025b0 <tud_rhport_init+0x100>)
100024fe:	f7ff fac3 	bl	10001a88 <usbd_app_driver_get_cb>
10002502:	4b2c      	ldr	r3, [pc, #176]	; (100025b4 <tud_rhport_init+0x104>)
10002504:	6018      	str	r0, [r3, #0]
10002506:	2400      	movs	r4, #0
10002508:	4e29      	ldr	r6, [pc, #164]	; (100025b0 <tud_rhport_init+0x100>)
1000250a:	4623      	mov	r3, r4
1000250c:	7832      	ldrb	r2, [r6, #0]
1000250e:	f8df a0ac 	ldr.w	sl, [pc, #172]	; 100025bc <tud_rhport_init+0x10c>
10002512:	f8df 90a0 	ldr.w	r9, [pc, #160]	; 100025b4 <tud_rhport_init+0x104>
10002516:	e00e      	b.n	10002536 <tud_rhport_init+0x86>
10002518:	f8d9 3000 	ldr.w	r3, [r9]
1000251c:	eb13 1344 	adds.w	r3, r3, r4, lsl #5
10002520:	d011      	beq.n	10002546 <tud_rhport_init+0x96>
10002522:	685b      	ldr	r3, [r3, #4]
10002524:	b17b      	cbz	r3, 10002546 <tud_rhport_init+0x96>
10002526:	4798      	blx	r3
10002528:	7832      	ldrb	r2, [r6, #0]
1000252a:	3401      	adds	r4, #1
1000252c:	b2e4      	uxtb	r4, r4
1000252e:	1c51      	adds	r1, r2, #1
10002530:	42a1      	cmp	r1, r4
10002532:	4623      	mov	r3, r4
10002534:	db20      	blt.n	10002578 <tud_rhport_init+0xc8>
10002536:	42a2      	cmp	r2, r4
10002538:	d8ee      	bhi.n	10002518 <tud_rhport_init+0x68>
1000253a:	1a9b      	subs	r3, r3, r2
1000253c:	eb0a 1343 	add.w	r3, sl, r3, lsl #5
10002540:	685b      	ldr	r3, [r3, #4]
10002542:	2b00      	cmp	r3, #0
10002544:	d1ef      	bne.n	10002526 <tud_rhport_init+0x76>
10002546:	f04f 23e0 	mov.w	r3, #3758153728	; 0xe000e000
1000254a:	f8d3 3df0 	ldr.w	r3, [r3, #3568]	; 0xdf0
1000254e:	07da      	lsls	r2, r3, #31
10002550:	d500      	bpl.n	10002554 <tud_rhport_init+0xa4>
10002552:	be00      	bkpt	0x0000
10002554:	2500      	movs	r5, #0
10002556:	4628      	mov	r0, r5
10002558:	e8bd 87f0 	ldmia.w	sp!, {r4, r5, r6, r7, r8, r9, sl, pc}
1000255c:	2501      	movs	r5, #1
1000255e:	4628      	mov	r0, r5
10002560:	e8bd 87f0 	ldmia.w	sp!, {r4, r5, r6, r7, r8, r9, sl, pc}
10002564:	f04f 23e0 	mov.w	r3, #3758153728	; 0xe000e000
10002568:	f8d3 3df0 	ldr.w	r3, [r3, #3568]	; 0xdf0
1000256c:	07db      	lsls	r3, r3, #31
1000256e:	d5f1      	bpl.n	10002554 <tud_rhport_init+0xa4>
10002570:	be00      	bkpt	0x0000
10002572:	4628      	mov	r0, r5
10002574:	e8bd 87f0 	ldmia.w	sp!, {r4, r5, r6, r7, r8, r9, sl, pc}
10002578:	4629      	mov	r1, r5
1000257a:	4638      	mov	r0, r7
1000257c:	f888 7000 	strb.w	r7, [r8]
10002580:	f7ff fdac 	bl	100020dc <dcd_init>
10002584:	4605      	mov	r5, r0
10002586:	2800      	cmp	r0, #0
10002588:	d0ec      	beq.n	10002564 <tud_rhport_init+0xb4>
1000258a:	4638      	mov	r0, r7
1000258c:	f7ff fdf0 	bl	10002170 <dcd_int_enable>
10002590:	e7e5      	b.n	1000255e <tud_rhport_init+0xae>
10002592:	bf00      	nop
10002594:	200015fc 	.word	0x200015fc
10002598:	200015f4 	.word	0x200015f4
1000259c:	20006022 	.word	0x20006022
100025a0:	20001650 	.word	0x20001650
100025a4:	2000124c 	.word	0x2000124c
100025a8:	20001654 	.word	0x20001654
100025ac:	10001a89 	.word	0x10001a89
100025b0:	20006020 	.word	0x20006020
100025b4:	2000142c 	.word	0x2000142c
100025b8:	20001268 	.word	0x20001268
100025bc:	10006db0 	.word	0x10006db0

100025c0 <tud_task_ext>:
100025c0:	e92d 4ff0 	stmdb	sp!, {r4, r5, r6, r7, r8, r9, sl, fp, lr}
100025c4:	f8df 92cc 	ldr.w	r9, [pc, #716]	; 10002894 <tud_task_ext+0x2d4>
100025c8:	b08b      	sub	sp, #44	; 0x2c
100025ca:	f899 3000 	ldrb.w	r3, [r9]
100025ce:	2bff      	cmp	r3, #255	; 0xff
100025d0:	f000 80ef 	beq.w	100027b2 <tud_task_ext+0x1f2>
100025d4:	4caa      	ldr	r4, [pc, #680]	; (10002880 <tud_task_ext+0x2c0>)
100025d6:	f8df a2c0 	ldr.w	sl, [pc, #704]	; 10002898 <tud_task_ext+0x2d8>
100025da:	f8df b2c0 	ldr.w	fp, [pc, #704]	; 1000289c <tud_task_ext+0x2dc>
100025de:	6825      	ldr	r5, [r4, #0]
100025e0:	696b      	ldr	r3, [r5, #20]
100025e2:	f3ef 8210 	mrs	r2, PRIMASK
100025e6:	b672      	cpsid	i
100025e8:	e8d3 0fcf 	ldaexb	r0, [r3]
100025ec:	2101      	movs	r1, #1
100025ee:	2800      	cmp	r0, #0
100025f0:	d1fa      	bne.n	100025e8 <tud_task_ext+0x28>
100025f2:	e8c3 1f40 	strexb	r0, r1, [r3]
100025f6:	2800      	cmp	r0, #0
100025f8:	d1f6      	bne.n	100025e8 <tud_task_ext+0x28>
100025fa:	f3bf 8f5f 	dmb	sy
100025fe:	61aa      	str	r2, [r5, #24]
10002600:	4628      	mov	r0, r5
10002602:	a907      	add	r1, sp, #28
10002604:	f001 fbc0 	bl	10003d88 <tu_fifo_read>
10002608:	2300      	movs	r3, #0
1000260a:	696a      	ldr	r2, [r5, #20]
1000260c:	e8c2 3f8f 	stlb	r3, [r2]
10002610:	69ab      	ldr	r3, [r5, #24]
10002612:	f383 8810 	msr	PRIMASK, r3
10002616:	2800      	cmp	r0, #0
10002618:	f000 80cb 	beq.w	100027b2 <tud_task_ext+0x1f2>
1000261c:	f89d 301d 	ldrb.w	r3, [sp, #29]
10002620:	3b01      	subs	r3, #1
10002622:	2b07      	cmp	r3, #7
10002624:	f200 838e 	bhi.w	10002d44 <tud_task_ext+0x784>
10002628:	e8df f003 	tbb	[pc, r3]
1000262c:	9a91b0a5 	.word	0x9a91b0a5
10002630:	040a3689 	.word	0x040a3689
10002634:	9b08      	ldr	r3, [sp, #32]
10002636:	2b00      	cmp	r3, #0
10002638:	d0d1      	beq.n	100025de <tud_task_ext+0x1e>
1000263a:	9809      	ldr	r0, [sp, #36]	; 0x24
1000263c:	4798      	blx	r3
1000263e:	e7ce      	b.n	100025de <tud_task_ext+0x1e>
10002640:	f89d 1020 	ldrb.w	r1, [sp, #32]
10002644:	4b8f      	ldr	r3, [pc, #572]	; (10002884 <tud_task_ext+0x2c4>)
10002646:	f001 057f 	and.w	r5, r1, #127	; 0x7f
1000264a:	eb03 0345 	add.w	r3, r3, r5, lsl #1
1000264e:	eb03 13d1 	add.w	r3, r3, r1, lsr #7
10002652:	f893 2034 	ldrb.w	r2, [r3, #52]	; 0x34
10002656:	f36f 0200 	bfc	r2, #0, #1
1000265a:	f883 2034 	strb.w	r2, [r3, #52]	; 0x34
1000265e:	f893 2034 	ldrb.w	r2, [r3, #52]	; 0x34
10002662:	f36f 0282 	bfc	r2, #2, #1
10002666:	f883 2034 	strb.w	r2, [r3, #52]	; 0x34
1000266a:	2d00      	cmp	r5, #0
1000266c:	f000 80a4 	beq.w	100027b8 <tud_task_ext+0x1f8>
10002670:	4a85      	ldr	r2, [pc, #532]	; (10002888 <tud_task_ext+0x2c8>)
10002672:	7d1b      	ldrb	r3, [r3, #20]
10002674:	7812      	ldrb	r2, [r2, #0]
10002676:	4293      	cmp	r3, r2
10002678:	f080 8091 	bcs.w	1000279e <tud_task_ext+0x1de>
1000267c:	f8db 2000 	ldr.w	r2, [fp]
10002680:	eb12 1343 	adds.w	r3, r2, r3, lsl #5
10002684:	f000 808e 	beq.w	100027a4 <tud_task_ext+0x1e4>
10002688:	699d      	ldr	r5, [r3, #24]
1000268a:	f89d 2021 	ldrb.w	r2, [sp, #33]	; 0x21
1000268e:	9b09      	ldr	r3, [sp, #36]	; 0x24
10002690:	f89d 001c 	ldrb.w	r0, [sp, #28]
10002694:	47a8      	blx	r5
10002696:	e7a2      	b.n	100025de <tud_task_ext+0x1e>
10002698:	4a7c      	ldr	r2, [pc, #496]	; (1000288c <tud_task_ext+0x2cc>)
1000269a:	7813      	ldrb	r3, [r2, #0]
1000269c:	2b00      	cmp	r3, #0
1000269e:	f000 8081 	beq.w	100027a4 <tud_task_ext+0x1e4>
100026a2:	7813      	ldrb	r3, [r2, #0]
100026a4:	3b01      	subs	r3, #1
100026a6:	b2db      	uxtb	r3, r3
100026a8:	7013      	strb	r3, [r2, #0]
100026aa:	7813      	ldrb	r3, [r2, #0]
100026ac:	f003 00ff 	and.w	r0, r3, #255	; 0xff
100026b0:	2b00      	cmp	r3, #0
100026b2:	d194      	bne.n	100025de <tud_task_ext+0x1e>
100026b4:	4d73      	ldr	r5, [pc, #460]	; (10002884 <tud_task_ext+0x2c4>)
100026b6:	f89d 801c 	ldrb.w	r8, [sp, #28]
100026ba:	782b      	ldrb	r3, [r5, #0]
100026bc:	f043 0301 	orr.w	r3, r3, #1
100026c0:	702b      	strb	r3, [r5, #0]
100026c2:	f895 3034 	ldrb.w	r3, [r5, #52]	; 0x34
100026c6:	f360 0300 	bfi	r3, r0, #0, #1
100026ca:	f885 3034 	strb.w	r3, [r5, #52]	; 0x34
100026ce:	f895 3034 	ldrb.w	r3, [r5, #52]	; 0x34
100026d2:	f360 0382 	bfi	r3, r0, #2, #1
100026d6:	f885 3034 	strb.w	r3, [r5, #52]	; 0x34
100026da:	f895 3035 	ldrb.w	r3, [r5, #53]	; 0x35
100026de:	f360 0300 	bfi	r3, r0, #0, #1
100026e2:	f885 3035 	strb.w	r3, [r5, #53]	; 0x35
100026e6:	f895 3035 	ldrb.w	r3, [r5, #53]	; 0x35
100026ea:	f360 0382 	bfi	r3, r0, #2, #1
100026ee:	f885 3035 	strb.w	r3, [r5, #53]	; 0x35
100026f2:	f000 fc8d 	bl	10003010 <usbd_control_set_complete_callback>
100026f6:	f89d 3020 	ldrb.w	r3, [sp, #32]
100026fa:	f003 0260 	and.w	r2, r3, #96	; 0x60
100026fe:	2a60      	cmp	r2, #96	; 0x60
10002700:	d00b      	beq.n	1000271a <tud_task_ext+0x15a>
10002702:	2a40      	cmp	r2, #64	; 0x40
10002704:	d064      	beq.n	100027d0 <tud_task_ext+0x210>
10002706:	f003 031f 	and.w	r3, r3, #31
1000270a:	2b01      	cmp	r3, #1
1000270c:	f000 80c8 	beq.w	100028a0 <tud_task_ext+0x2e0>
10002710:	2b02      	cmp	r3, #2
10002712:	f000 8089 	beq.w	10002828 <tud_task_ext+0x268>
10002716:	2b00      	cmp	r3, #0
10002718:	d066      	beq.n	100027e8 <tud_task_ext+0x228>
1000271a:	f04f 23e0 	mov.w	r3, #3758153728	; 0xe000e000
1000271e:	f8d3 3df0 	ldr.w	r3, [r3, #3568]	; 0xdf0
10002722:	07dd      	lsls	r5, r3, #31
10002724:	d500      	bpl.n	10002728 <tud_task_ext+0x168>
10002726:	be00      	bkpt	0x0000
10002728:	f89d 001c 	ldrb.w	r0, [sp, #28]
1000272c:	2100      	movs	r1, #0
1000272e:	f7ff fde5 	bl	100022fc <dcd_edpt_stall>
10002732:	2180      	movs	r1, #128	; 0x80
10002734:	f89d 001c 	ldrb.w	r0, [sp, #28]
10002738:	f7ff fde0 	bl	100022fc <dcd_edpt_stall>
1000273c:	e74f      	b.n	100025de <tud_task_ext+0x1e>
1000273e:	4b51      	ldr	r3, [pc, #324]	; (10002884 <tud_task_ext+0x2c4>)
10002740:	781b      	ldrb	r3, [r3, #0]
10002742:	07d9      	lsls	r1, r3, #31
10002744:	f57f af4b 	bpl.w	100025de <tud_task_ext+0x1e>
10002748:	f7ff fea0 	bl	1000248c <tud_resume_cb>
1000274c:	e747      	b.n	100025de <tud_task_ext+0x1e>
1000274e:	4b4d      	ldr	r3, [pc, #308]	; (10002884 <tud_task_ext+0x2c4>)
10002750:	78db      	ldrb	r3, [r3, #3]
10002752:	07da      	lsls	r2, r3, #31
10002754:	f57f af43 	bpl.w	100025de <tud_task_ext+0x1e>
10002758:	9808      	ldr	r0, [sp, #32]
1000275a:	f7ff fe8b 	bl	10002474 <tud_sof_cb>
1000275e:	e73e      	b.n	100025de <tud_task_ext+0x1e>
10002760:	4b48      	ldr	r3, [pc, #288]	; (10002884 <tud_task_ext+0x2c4>)
10002762:	781a      	ldrb	r2, [r3, #0]
10002764:	07d0      	lsls	r0, r2, #31
10002766:	f57f af3a 	bpl.w	100025de <tud_task_ext+0x1e>
1000276a:	7818      	ldrb	r0, [r3, #0]
1000276c:	f3c0 00c0 	ubfx	r0, r0, #3, #1
10002770:	f7ff fe8a 	bl	10002488 <tud_suspend_cb>
10002774:	e733      	b.n	100025de <tud_task_ext+0x1e>
10002776:	f89d 001c 	ldrb.w	r0, [sp, #28]
1000277a:	f7ff fe33 	bl	100023e4 <configuration_reset>
1000277e:	f000 fc3d 	bl	10002ffc <usbd_control_reset>
10002782:	4b40      	ldr	r3, [pc, #256]	; (10002884 <tud_task_ext+0x2c4>)
10002784:	f89d 2020 	ldrb.w	r2, [sp, #32]
10002788:	709a      	strb	r2, [r3, #2]
1000278a:	e728      	b.n	100025de <tud_task_ext+0x1e>
1000278c:	f89d 001c 	ldrb.w	r0, [sp, #28]
10002790:	f7ff fe28 	bl	100023e4 <configuration_reset>
10002794:	f000 fc32 	bl	10002ffc <usbd_control_reset>
10002798:	f7ff fe74 	bl	10002484 <tud_umount_cb>
1000279c:	e71f      	b.n	100025de <tud_task_ext+0x1e>
1000279e:	1c50      	adds	r0, r2, #1
100027a0:	4298      	cmp	r0, r3
100027a2:	da11      	bge.n	100027c8 <tud_task_ext+0x208>
100027a4:	f04f 23e0 	mov.w	r3, #3758153728	; 0xe000e000
100027a8:	f8d3 3df0 	ldr.w	r3, [r3, #3568]	; 0xdf0
100027ac:	07dc      	lsls	r4, r3, #31
100027ae:	d500      	bpl.n	100027b2 <tud_task_ext+0x1f2>
100027b0:	be00      	bkpt	0x0000
100027b2:	b00b      	add	sp, #44	; 0x2c
100027b4:	e8bd 8ff0 	ldmia.w	sp!, {r4, r5, r6, r7, r8, r9, sl, fp, pc}
100027b8:	9b09      	ldr	r3, [sp, #36]	; 0x24
100027ba:	f89d 2021 	ldrb.w	r2, [sp, #33]	; 0x21
100027be:	f89d 001c 	ldrb.w	r0, [sp, #28]
100027c2:	f000 fc39 	bl	10003038 <usbd_control_xfer_cb>
100027c6:	e70a      	b.n	100025de <tud_task_ext+0x1e>
100027c8:	1a9b      	subs	r3, r3, r2
100027ca:	eb0a 1343 	add.w	r3, sl, r3, lsl #5
100027ce:	e75b      	b.n	10002688 <tud_task_ext+0xc8>
100027d0:	482f      	ldr	r0, [pc, #188]	; (10002890 <tud_task_ext+0x2d0>)
100027d2:	f000 fc1d 	bl	10003010 <usbd_control_set_complete_callback>
100027d6:	4640      	mov	r0, r8
100027d8:	2101      	movs	r1, #1
100027da:	aa08      	add	r2, sp, #32
100027dc:	f7ff f940 	bl	10001a60 <tud_vendor_control_xfer_cb>
100027e0:	2800      	cmp	r0, #0
100027e2:	f47f aefc 	bne.w	100025de <tud_task_ext+0x1e>
100027e6:	e79f      	b.n	10002728 <tud_task_ext+0x168>
100027e8:	2a20      	cmp	r2, #32
100027ea:	f000 818d 	beq.w	10002b08 <tud_task_ext+0x548>
100027ee:	2a00      	cmp	r2, #0
100027f0:	d193      	bne.n	1000271a <tud_task_ext+0x15a>
100027f2:	f89d 3021 	ldrb.w	r3, [sp, #33]	; 0x21
100027f6:	2b09      	cmp	r3, #9
100027f8:	d88f      	bhi.n	1000271a <tud_task_ext+0x15a>
100027fa:	a201      	add	r2, pc, #4	; (adr r2, 10002800 <tud_task_ext+0x240>)
100027fc:	f852 f023 	ldr.w	pc, [r2, r3, lsl #2]
10002800:	10002aa7 	.word	0x10002aa7
10002804:	10002a8b 	.word	0x10002a8b
10002808:	1000271b 	.word	0x1000271b
1000280c:	10002ac9 	.word	0x10002ac9
10002810:	1000271b 	.word	0x1000271b
10002814:	10002a71 	.word	0x10002a71
10002818:	10002a1f 	.word	0x10002a1f
1000281c:	1000271b 	.word	0x1000271b
10002820:	10002a09 	.word	0x10002a09
10002824:	1000292f 	.word	0x1000292f
10002828:	f89d 1024 	ldrb.w	r1, [sp, #36]	; 0x24
1000282c:	f011 0f70 	tst.w	r1, #112	; 0x70
10002830:	f47f af73 	bne.w	1000271a <tud_task_ext+0x15a>
10002834:	4b14      	ldr	r3, [pc, #80]	; (10002888 <tud_task_ext+0x2c8>)
10002836:	f001 067f 	and.w	r6, r1, #127	; 0x7f
1000283a:	7818      	ldrb	r0, [r3, #0]
1000283c:	eb05 0346 	add.w	r3, r5, r6, lsl #1
10002840:	eb03 13d1 	add.w	r3, r3, r1, lsr #7
10002844:	7d1f      	ldrb	r7, [r3, #20]
10002846:	09cb      	lsrs	r3, r1, #7
10002848:	4287      	cmp	r7, r0
1000284a:	ea4f 0646 	mov.w	r6, r6, lsl #1
1000284e:	9301      	str	r3, [sp, #4]
10002850:	d35b      	bcc.n	1000290a <tud_task_ext+0x34a>
10002852:	1c43      	adds	r3, r0, #1
10002854:	42bb      	cmp	r3, r7
10002856:	f2c0 8174 	blt.w	10002b42 <tud_task_ext+0x582>
1000285a:	1a3f      	subs	r7, r7, r0
1000285c:	eb0a 1747 	add.w	r7, sl, r7, lsl #5
10002860:	2a00      	cmp	r2, #0
10002862:	f000 8172 	beq.w	10002b4a <tud_task_ext+0x58a>
10002866:	6978      	ldr	r0, [r7, #20]
10002868:	f000 fbd2 	bl	10003010 <usbd_control_set_complete_callback>
1000286c:	4640      	mov	r0, r8
1000286e:	2101      	movs	r1, #1
10002870:	697b      	ldr	r3, [r7, #20]
10002872:	aa08      	add	r2, sp, #32
10002874:	4798      	blx	r3
10002876:	2800      	cmp	r0, #0
10002878:	f47f aeb1 	bne.w	100025de <tud_task_ext+0x1e>
1000287c:	e754      	b.n	10002728 <tud_task_ext+0x168>
1000287e:	bf00      	nop
10002880:	20001654 	.word	0x20001654
10002884:	200015fc 	.word	0x200015fc
10002888:	20006020 	.word	0x20006020
1000288c:	20006022 	.word	0x20006022
10002890:	10001a61 	.word	0x10001a61
10002894:	20001268 	.word	0x20001268
10002898:	10006db0 	.word	0x10006db0
1000289c:	2000142c 	.word	0x2000142c
100028a0:	f89d 3024 	ldrb.w	r3, [sp, #36]	; 0x24
100028a4:	2b0f      	cmp	r3, #15
100028a6:	f63f af3f 	bhi.w	10002728 <tud_task_ext+0x168>
100028aa:	4ab5      	ldr	r2, [pc, #724]	; (10002b80 <tud_task_ext+0x5c0>)
100028ac:	442b      	add	r3, r5
100028ae:	791b      	ldrb	r3, [r3, #4]
100028b0:	7815      	ldrb	r5, [r2, #0]
100028b2:	42ab      	cmp	r3, r5
100028b4:	d334      	bcc.n	10002920 <tud_task_ext+0x360>
100028b6:	1c6a      	adds	r2, r5, #1
100028b8:	429a      	cmp	r2, r3
100028ba:	f6ff af35 	blt.w	10002728 <tud_task_ext+0x168>
100028be:	1b5b      	subs	r3, r3, r5
100028c0:	eb0a 1543 	add.w	r5, sl, r3, lsl #5
100028c4:	6968      	ldr	r0, [r5, #20]
100028c6:	f000 fba3 	bl	10003010 <usbd_control_set_complete_callback>
100028ca:	2101      	movs	r1, #1
100028cc:	4640      	mov	r0, r8
100028ce:	696b      	ldr	r3, [r5, #20]
100028d0:	aa08      	add	r2, sp, #32
100028d2:	4798      	blx	r3
100028d4:	2800      	cmp	r0, #0
100028d6:	f47f ae82 	bne.w	100025de <tud_task_ext+0x1e>
100028da:	f89d 3020 	ldrb.w	r3, [sp, #32]
100028de:	f013 0560 	ands.w	r5, r3, #96	; 0x60
100028e2:	f47f af21 	bne.w	10002728 <tud_task_ext+0x168>
100028e6:	f89d 3021 	ldrb.w	r3, [sp, #33]	; 0x21
100028ea:	3b0a      	subs	r3, #10
100028ec:	2b01      	cmp	r3, #1
100028ee:	f63f af1b 	bhi.w	10002728 <tud_task_ext+0x168>
100028f2:	f000 fb8d 	bl	10003010 <usbd_control_set_complete_callback>
100028f6:	f89d 3021 	ldrb.w	r3, [sp, #33]	; 0x21
100028fa:	2b0a      	cmp	r3, #10
100028fc:	f000 81f7 	beq.w	10002cee <tud_task_ext+0x72e>
10002900:	4640      	mov	r0, r8
10002902:	a908      	add	r1, sp, #32
10002904:	f000 fafa 	bl	10002efc <tud_control_status>
10002908:	e669      	b.n	100025de <tud_task_ext+0x1e>
1000290a:	f8db 3000 	ldr.w	r3, [fp]
1000290e:	eb03 1747 	add.w	r7, r3, r7, lsl #5
10002912:	2a00      	cmp	r2, #0
10002914:	f000 8119 	beq.w	10002b4a <tud_task_ext+0x58a>
10002918:	2f00      	cmp	r7, #0
1000291a:	f43f af05 	beq.w	10002728 <tud_task_ext+0x168>
1000291e:	e7a2      	b.n	10002866 <tud_task_ext+0x2a6>
10002920:	f8db 5000 	ldr.w	r5, [fp]
10002924:	eb15 1543 	adds.w	r5, r5, r3, lsl #5
10002928:	f43f aefe 	beq.w	10002728 <tud_task_ext+0x168>
1000292c:	e7ca      	b.n	100028c4 <tud_task_ext+0x304>
1000292e:	786b      	ldrb	r3, [r5, #1]
10002930:	f89d 6022 	ldrb.w	r6, [sp, #34]	; 0x22
10002934:	429e      	cmp	r6, r3
10002936:	f000 8154 	beq.w	10002be2 <tud_task_ext+0x622>
1000293a:	786b      	ldrb	r3, [r5, #1]
1000293c:	2b00      	cmp	r3, #0
1000293e:	f040 81c4 	bne.w	10002cca <tud_task_ext+0x70a>
10002942:	706e      	strb	r6, [r5, #1]
10002944:	2e00      	cmp	r6, #0
10002946:	f000 814a 	beq.w	10002bde <tud_task_ext+0x61e>
1000294a:	1e70      	subs	r0, r6, #1
1000294c:	b2c0      	uxtb	r0, r0
1000294e:	f7ff faad 	bl	10001eac <tud_descriptor_configuration_cb>
10002952:	2800      	cmp	r0, #0
10002954:	f000 8165 	beq.w	10002c22 <tud_task_ext+0x662>
10002958:	7843      	ldrb	r3, [r0, #1]
1000295a:	2b02      	cmp	r3, #2
1000295c:	f040 8161 	bne.w	10002c22 <tud_task_ext+0x662>
10002960:	782b      	ldrb	r3, [r5, #0]
10002962:	79c2      	ldrb	r2, [r0, #7]
10002964:	f023 0130 	bic.w	r1, r3, #48	; 0x30
10002968:	f3c2 1340 	ubfx	r3, r2, #5, #1
1000296c:	011b      	lsls	r3, r3, #4
1000296e:	f3c2 1280 	ubfx	r2, r2, #6, #1
10002972:	ea43 1342 	orr.w	r3, r3, r2, lsl #5
10002976:	430b      	orrs	r3, r1
10002978:	702b      	strb	r3, [r5, #0]
1000297a:	8843      	ldrh	r3, [r0, #2]
1000297c:	f100 0609 	add.w	r6, r0, #9
10002980:	18c3      	adds	r3, r0, r3
10002982:	9302      	str	r3, [sp, #8]
10002984:	f8cd 800c 	str.w	r8, [sp, #12]
10002988:	9b02      	ldr	r3, [sp, #8]
1000298a:	42b3      	cmp	r3, r6
1000298c:	f240 81aa 	bls.w	10002ce4 <tud_task_ext+0x724>
10002990:	7872      	ldrb	r2, [r6, #1]
10002992:	2a0b      	cmp	r2, #11
10002994:	f000 81b5 	beq.w	10002d02 <tud_task_ext+0x742>
10002998:	2301      	movs	r3, #1
1000299a:	2a04      	cmp	r2, #4
1000299c:	f040 8141 	bne.w	10002c22 <tud_task_ext+0x662>
100029a0:	4618      	mov	r0, r3
100029a2:	f04f 0800 	mov.w	r8, #0
100029a6:	9a02      	ldr	r2, [sp, #8]
100029a8:	4975      	ldr	r1, [pc, #468]	; (10002b80 <tud_task_ext+0x5c0>)
100029aa:	1b92      	subs	r2, r2, r6
100029ac:	4633      	mov	r3, r6
100029ae:	7809      	ldrb	r1, [r1, #0]
100029b0:	4606      	mov	r6, r0
100029b2:	b292      	uxth	r2, r2
100029b4:	f8cd 8004 	str.w	r8, [sp, #4]
100029b8:	e01e      	b.n	100029f8 <tud_task_ext+0x438>
100029ba:	f8db 7000 	ldr.w	r7, [fp]
100029be:	eb17 1748 	adds.w	r7, r7, r8, lsl #5
100029c2:	f000 812e 	beq.w	10002c22 <tud_task_ext+0x662>
100029c6:	4619      	mov	r1, r3
100029c8:	9304      	str	r3, [sp, #16]
100029ca:	9803      	ldr	r0, [sp, #12]
100029cc:	693b      	ldr	r3, [r7, #16]
100029ce:	9205      	str	r2, [sp, #20]
100029d0:	4798      	blx	r3
100029d2:	e9dd 3204 	ldrd	r3, r2, [sp, #16]
100029d6:	2808      	cmp	r0, #8
100029d8:	f108 0101 	add.w	r1, r8, #1
100029dc:	d902      	bls.n	100029e4 <tud_task_ext+0x424>
100029de:	4282      	cmp	r2, r0
100029e0:	f080 8104 	bcs.w	10002bec <tud_task_ext+0x62c>
100029e4:	fa5f f881 	uxtb.w	r8, r1
100029e8:	4965      	ldr	r1, [pc, #404]	; (10002b80 <tud_task_ext+0x5c0>)
100029ea:	f8cd 8004 	str.w	r8, [sp, #4]
100029ee:	7809      	ldrb	r1, [r1, #0]
100029f0:	1c48      	adds	r0, r1, #1
100029f2:	4580      	cmp	r8, r0
100029f4:	f300 8115 	bgt.w	10002c22 <tud_task_ext+0x662>
100029f8:	9801      	ldr	r0, [sp, #4]
100029fa:	4588      	cmp	r8, r1
100029fc:	eba0 0101 	sub.w	r1, r0, r1
10002a00:	d3db      	bcc.n	100029ba <tud_task_ext+0x3fa>
10002a02:	eb0a 1741 	add.w	r7, sl, r1, lsl #5
10002a06:	e7de      	b.n	100029c6 <tud_task_ext+0x406>
10002a08:	786b      	ldrb	r3, [r5, #1]
10002a0a:	4640      	mov	r0, r8
10002a0c:	f88d 301a 	strb.w	r3, [sp, #26]
10002a10:	f10d 021a 	add.w	r2, sp, #26
10002a14:	2301      	movs	r3, #1
10002a16:	a908      	add	r1, sp, #32
10002a18:	f000 fa8a 	bl	10002f30 <tud_control_xfer>
10002a1c:	e5df      	b.n	100025de <tud_task_ext+0x1e>
10002a1e:	f8bd 0022 	ldrh.w	r0, [sp, #34]	; 0x22
10002a22:	0a03      	lsrs	r3, r0, #8
10002a24:	1e5a      	subs	r2, r3, #1
10002a26:	b2c0      	uxtb	r0, r0
10002a28:	2a0e      	cmp	r2, #14
10002a2a:	f63f ae7d 	bhi.w	10002728 <tud_task_ext+0x168>
10002a2e:	a101      	add	r1, pc, #4	; (adr r1, 10002a34 <tud_task_ext+0x474>)
10002a30:	f851 f022 	ldr.w	pc, [r1, r2, lsl #2]
10002a34:	10002c53 	.word	0x10002c53
10002a38:	10002ae5 	.word	0x10002ae5
10002a3c:	10002c8f 	.word	0x10002c8f
10002a40:	10002729 	.word	0x10002729
10002a44:	10002729 	.word	0x10002729
10002a48:	10002c71 	.word	0x10002c71
10002a4c:	10002ae5 	.word	0x10002ae5
10002a50:	10002729 	.word	0x10002729
10002a54:	10002729 	.word	0x10002729
10002a58:	10002729 	.word	0x10002729
10002a5c:	10002729 	.word	0x10002729
10002a60:	10002729 	.word	0x10002729
10002a64:	10002729 	.word	0x10002729
10002a68:	10002729 	.word	0x10002729
10002a6c:	10002c45 	.word	0x10002c45
10002a70:	a808      	add	r0, sp, #32
10002a72:	f000 fad3 	bl	1000301c <usbd_control_set_request>
10002a76:	4640      	mov	r0, r8
10002a78:	f89d 1022 	ldrb.w	r1, [sp, #34]	; 0x22
10002a7c:	f7ff fb7c 	bl	10002178 <dcd_set_address>
10002a80:	782b      	ldrb	r3, [r5, #0]
10002a82:	f043 0302 	orr.w	r3, r3, #2
10002a86:	702b      	strb	r3, [r5, #0]
10002a88:	e5a9      	b.n	100025de <tud_task_ext+0x1e>
10002a8a:	f8bd 3022 	ldrh.w	r3, [sp, #34]	; 0x22
10002a8e:	2b01      	cmp	r3, #1
10002a90:	f47f ae4a 	bne.w	10002728 <tud_task_ext+0x168>
10002a94:	782b      	ldrb	r3, [r5, #0]
10002a96:	4640      	mov	r0, r8
10002a98:	f36f 03c3 	bfc	r3, #3, #1
10002a9c:	a908      	add	r1, sp, #32
10002a9e:	702b      	strb	r3, [r5, #0]
10002aa0:	f000 fa2c 	bl	10002efc <tud_control_status>
10002aa4:	e59b      	b.n	100025de <tud_task_ext+0x1e>
10002aa6:	4640      	mov	r0, r8
10002aa8:	782b      	ldrb	r3, [r5, #0]
10002aaa:	089a      	lsrs	r2, r3, #2
10002aac:	f002 0202 	and.w	r2, r2, #2
10002ab0:	f3c3 1340 	ubfx	r3, r3, #5, #1
10002ab4:	4313      	orrs	r3, r2
10002ab6:	f8ad 301a 	strh.w	r3, [sp, #26]
10002aba:	f10d 021a 	add.w	r2, sp, #26
10002abe:	2302      	movs	r3, #2
10002ac0:	a908      	add	r1, sp, #32
10002ac2:	f000 fa35 	bl	10002f30 <tud_control_xfer>
10002ac6:	e58a      	b.n	100025de <tud_task_ext+0x1e>
10002ac8:	f8bd 3022 	ldrh.w	r3, [sp, #34]	; 0x22
10002acc:	2b01      	cmp	r3, #1
10002ace:	f47f ae2b 	bne.w	10002728 <tud_task_ext+0x168>
10002ad2:	782b      	ldrb	r3, [r5, #0]
10002ad4:	4640      	mov	r0, r8
10002ad6:	f043 0308 	orr.w	r3, r3, #8
10002ada:	a908      	add	r1, sp, #32
10002adc:	702b      	strb	r3, [r5, #0]
10002ade:	f000 fa0d 	bl	10002efc <tud_control_status>
10002ae2:	e57c      	b.n	100025de <tud_task_ext+0x1e>
10002ae4:	2b02      	cmp	r3, #2
10002ae6:	f000 8111 	beq.w	10002d0c <tud_task_ext+0x74c>
10002aea:	f7ff fcc7 	bl	1000247c <tud_descriptor_other_speed_configuration_cb>
10002aee:	4602      	mov	r2, r0
10002af0:	2800      	cmp	r0, #0
10002af2:	f43f ae19 	beq.w	10002728 <tud_task_ext+0x168>
10002af6:	4640      	mov	r0, r8
10002af8:	8853      	ldrh	r3, [r2, #2]
10002afa:	a908      	add	r1, sp, #32
10002afc:	f000 fa18 	bl	10002f30 <tud_control_xfer>
10002b00:	2800      	cmp	r0, #0
10002b02:	f47f ad6c 	bne.w	100025de <tud_task_ext+0x1e>
10002b06:	e60f      	b.n	10002728 <tud_task_ext+0x168>
10002b08:	f89d 3024 	ldrb.w	r3, [sp, #36]	; 0x24
10002b0c:	2b0f      	cmp	r3, #15
10002b0e:	f63f ae0b 	bhi.w	10002728 <tud_task_ext+0x168>
10002b12:	4a1b      	ldr	r2, [pc, #108]	; (10002b80 <tud_task_ext+0x5c0>)
10002b14:	442b      	add	r3, r5
10002b16:	791b      	ldrb	r3, [r3, #4]
10002b18:	7815      	ldrb	r5, [r2, #0]
10002b1a:	42ab      	cmp	r3, r5
10002b1c:	d227      	bcs.n	10002b6e <tud_task_ext+0x5ae>
10002b1e:	f8db 5000 	ldr.w	r5, [fp]
10002b22:	eb15 1543 	adds.w	r5, r5, r3, lsl #5
10002b26:	f43f adff 	beq.w	10002728 <tud_task_ext+0x168>
10002b2a:	6968      	ldr	r0, [r5, #20]
10002b2c:	f000 fa70 	bl	10003010 <usbd_control_set_complete_callback>
10002b30:	4640      	mov	r0, r8
10002b32:	2101      	movs	r1, #1
10002b34:	696b      	ldr	r3, [r5, #20]
10002b36:	aa08      	add	r2, sp, #32
10002b38:	4798      	blx	r3
10002b3a:	2800      	cmp	r0, #0
10002b3c:	f47f ad4f 	bne.w	100025de <tud_task_ext+0x1e>
10002b40:	e5f2      	b.n	10002728 <tud_task_ext+0x168>
10002b42:	2a00      	cmp	r2, #0
10002b44:	f47f adf0 	bne.w	10002728 <tud_task_ext+0x168>
10002b48:	2700      	movs	r7, #0
10002b4a:	f89d 2021 	ldrb.w	r2, [sp, #33]	; 0x21
10002b4e:	f002 03fd 	and.w	r3, r2, #253	; 0xfd
10002b52:	2b01      	cmp	r3, #1
10002b54:	d016      	beq.n	10002b84 <tud_task_ext+0x5c4>
10002b56:	2a00      	cmp	r2, #0
10002b58:	f47f addf 	bne.w	1000271a <tud_task_ext+0x15a>
10002b5c:	9b01      	ldr	r3, [sp, #4]
10002b5e:	4435      	add	r5, r6
10002b60:	442b      	add	r3, r5
10002b62:	f893 3034 	ldrb.w	r3, [r3, #52]	; 0x34
10002b66:	4640      	mov	r0, r8
10002b68:	f3c3 0340 	ubfx	r3, r3, #1, #1
10002b6c:	e7a3      	b.n	10002ab6 <tud_task_ext+0x4f6>
10002b6e:	1c6a      	adds	r2, r5, #1
10002b70:	429a      	cmp	r2, r3
10002b72:	f6ff add9 	blt.w	10002728 <tud_task_ext+0x168>
10002b76:	1b5b      	subs	r3, r3, r5
10002b78:	eb0a 1543 	add.w	r5, sl, r3, lsl #5
10002b7c:	e7d5      	b.n	10002b2a <tud_task_ext+0x56a>
10002b7e:	bf00      	nop
10002b80:	20006020 	.word	0x20006020
10002b84:	f8bd 3022 	ldrh.w	r3, [sp, #34]	; 0x22
10002b88:	b9ab      	cbnz	r3, 10002bb6 <tud_task_ext+0x5f6>
10002b8a:	2a01      	cmp	r2, #1
10002b8c:	f000 8087 	beq.w	10002c9e <tud_task_ext+0x6de>
10002b90:	f899 0000 	ldrb.w	r0, [r9]
10002b94:	f7ff fbb2 	bl	100022fc <dcd_edpt_stall>
10002b98:	9a01      	ldr	r2, [sp, #4]
10002b9a:	19ab      	adds	r3, r5, r6
10002b9c:	4413      	add	r3, r2
10002b9e:	f893 2034 	ldrb.w	r2, [r3, #52]	; 0x34
10002ba2:	f042 0202 	orr.w	r2, r2, #2
10002ba6:	f883 2034 	strb.w	r2, [r3, #52]	; 0x34
10002baa:	f893 2034 	ldrb.w	r2, [r3, #52]	; 0x34
10002bae:	f042 0201 	orr.w	r2, r2, #1
10002bb2:	f883 2034 	strb.w	r2, [r3, #52]	; 0x34
10002bb6:	2f00      	cmp	r7, #0
10002bb8:	f43f ad11 	beq.w	100025de <tud_task_ext+0x1e>
10002bbc:	6978      	ldr	r0, [r7, #20]
10002bbe:	f000 fa27 	bl	10003010 <usbd_control_set_complete_callback>
10002bc2:	697b      	ldr	r3, [r7, #20]
10002bc4:	2101      	movs	r1, #1
10002bc6:	aa08      	add	r2, sp, #32
10002bc8:	4640      	mov	r0, r8
10002bca:	4798      	blx	r3
10002bcc:	2000      	movs	r0, #0
10002bce:	f000 fa1f 	bl	10003010 <usbd_control_set_complete_callback>
10002bd2:	f895 3035 	ldrb.w	r3, [r5, #53]	; 0x35
10002bd6:	07de      	lsls	r6, r3, #31
10002bd8:	f53f ad01 	bmi.w	100025de <tud_task_ext+0x1e>
10002bdc:	e690      	b.n	10002900 <tud_task_ext+0x340>
10002bde:	f7ff fc51 	bl	10002484 <tud_umount_cb>
10002be2:	4640      	mov	r0, r8
10002be4:	a908      	add	r1, sp, #32
10002be6:	f000 f989 	bl	10002efc <tud_control_status>
10002bea:	e4f8      	b.n	100025de <tud_task_ext+0x1e>
10002bec:	4632      	mov	r2, r6
10002bee:	2a01      	cmp	r2, #1
10002bf0:	461e      	mov	r6, r3
10002bf2:	4613      	mov	r3, r2
10002bf4:	f000 80a0 	beq.w	10002d38 <tud_task_ext+0x778>
10002bf8:	2a00      	cmp	r2, #0
10002bfa:	f000 808e 	beq.w	10002d1a <tud_task_ext+0x75a>
10002bfe:	2200      	movs	r2, #0
10002c00:	78b7      	ldrb	r7, [r6, #2]
10002c02:	e005      	b.n	10002c10 <tud_task_ext+0x650>
10002c04:	f881 8004 	strb.w	r8, [r1, #4]
10002c08:	b2d1      	uxtb	r1, r2
10002c0a:	428b      	cmp	r3, r1
10002c0c:	f240 8085 	bls.w	10002d1a <tud_task_ext+0x75a>
10002c10:	18b9      	adds	r1, r7, r2
10002c12:	fa55 f181 	uxtab	r1, r5, r1
10002c16:	f891 c004 	ldrb.w	ip, [r1, #4]
10002c1a:	3201      	adds	r2, #1
10002c1c:	f1bc 0fff 	cmp.w	ip, #255	; 0xff
10002c20:	d0f0      	beq.n	10002c04 <tud_task_ext+0x644>
10002c22:	f04f 23e0 	mov.w	r3, #3758153728	; 0xe000e000
10002c26:	f8d3 3df0 	ldr.w	r3, [r3, #3568]	; 0xdf0
10002c2a:	07db      	lsls	r3, r3, #31
10002c2c:	d500      	bpl.n	10002c30 <tud_task_ext+0x670>
10002c2e:	be00      	bkpt	0x0000
10002c30:	f04f 23e0 	mov.w	r3, #3758153728	; 0xe000e000
10002c34:	f8d3 3df0 	ldr.w	r3, [r3, #3568]	; 0xdf0
10002c38:	07df      	lsls	r7, r3, #31
10002c3a:	d500      	bpl.n	10002c3e <tud_task_ext+0x67e>
10002c3c:	be00      	bkpt	0x0000
10002c3e:	2300      	movs	r3, #0
10002c40:	706b      	strb	r3, [r5, #1]
10002c42:	e571      	b.n	10002728 <tud_task_ext+0x168>
10002c44:	f7fe ff08 	bl	10001a58 <tud_descriptor_bos_cb>
10002c48:	4602      	mov	r2, r0
10002c4a:	2800      	cmp	r0, #0
10002c4c:	f47f af53 	bne.w	10002af6 <tud_task_ext+0x536>
10002c50:	e56a      	b.n	10002728 <tud_task_ext+0x168>
10002c52:	f7ff f927 	bl	10001ea4 <tud_descriptor_device_cb>
10002c56:	4602      	mov	r2, r0
10002c58:	2800      	cmp	r0, #0
10002c5a:	f43f ad5e 	beq.w	1000271a <tud_task_ext+0x15a>
10002c5e:	4640      	mov	r0, r8
10002c60:	2312      	movs	r3, #18
10002c62:	a908      	add	r1, sp, #32
10002c64:	f000 f964 	bl	10002f30 <tud_control_xfer>
10002c68:	2800      	cmp	r0, #0
10002c6a:	f47f acb8 	bne.w	100025de <tud_task_ext+0x1e>
10002c6e:	e55b      	b.n	10002728 <tud_task_ext+0x168>
10002c70:	f7ff fc02 	bl	10002478 <tud_descriptor_device_qualifier_cb>
10002c74:	4602      	mov	r2, r0
10002c76:	2800      	cmp	r0, #0
10002c78:	f43f ad56 	beq.w	10002728 <tud_task_ext+0x168>
10002c7c:	4640      	mov	r0, r8
10002c7e:	7813      	ldrb	r3, [r2, #0]
10002c80:	a908      	add	r1, sp, #32
10002c82:	f000 f955 	bl	10002f30 <tud_control_xfer>
10002c86:	2800      	cmp	r0, #0
10002c88:	f47f aca9 	bne.w	100025de <tud_task_ext+0x1e>
10002c8c:	e54c      	b.n	10002728 <tud_task_ext+0x168>
10002c8e:	f8bd 1024 	ldrh.w	r1, [sp, #36]	; 0x24
10002c92:	f7ff f90f 	bl	10001eb4 <tud_descriptor_string_cb>
10002c96:	4602      	mov	r2, r0
10002c98:	2800      	cmp	r0, #0
10002c9a:	d1ef      	bne.n	10002c7c <tud_task_ext+0x6bc>
10002c9c:	e544      	b.n	10002728 <tud_task_ext+0x168>
10002c9e:	f899 0000 	ldrb.w	r0, [r9]
10002ca2:	9302      	str	r3, [sp, #8]
10002ca4:	f7ff fb42 	bl	1000232c <dcd_edpt_clear_stall>
10002ca8:	9b01      	ldr	r3, [sp, #4]
10002caa:	19aa      	adds	r2, r5, r6
10002cac:	441a      	add	r2, r3
10002cae:	f892 1034 	ldrb.w	r1, [r2, #52]	; 0x34
10002cb2:	9b02      	ldr	r3, [sp, #8]
10002cb4:	f363 0141 	bfi	r1, r3, #1, #1
10002cb8:	f882 1034 	strb.w	r1, [r2, #52]	; 0x34
10002cbc:	f892 1034 	ldrb.w	r1, [r2, #52]	; 0x34
10002cc0:	f363 0100 	bfi	r1, r3, #0, #1
10002cc4:	f882 1034 	strb.w	r1, [r2, #52]	; 0x34
10002cc8:	e775      	b.n	10002bb6 <tud_task_ext+0x5f6>
10002cca:	2100      	movs	r1, #0
10002ccc:	4640      	mov	r0, r8
10002cce:	f7ff fa5b 	bl	10002188 <dcd_sof_enable>
10002cd2:	4640      	mov	r0, r8
10002cd4:	f7ff fafc 	bl	100022d0 <dcd_edpt_close_all>
10002cd8:	78af      	ldrb	r7, [r5, #2]
10002cda:	4640      	mov	r0, r8
10002cdc:	f7ff fb82 	bl	100023e4 <configuration_reset>
10002ce0:	70af      	strb	r7, [r5, #2]
10002ce2:	e62e      	b.n	10002942 <tud_task_ext+0x382>
10002ce4:	f8dd 800c 	ldr.w	r8, [sp, #12]
10002ce8:	f7ff fbca 	bl	10002480 <tud_mount_cb>
10002cec:	e779      	b.n	10002be2 <tud_task_ext+0x622>
10002cee:	4640      	mov	r0, r8
10002cf0:	2301      	movs	r3, #1
10002cf2:	a908      	add	r1, sp, #32
10002cf4:	f10d 021a 	add.w	r2, sp, #26
10002cf8:	f88d 501a 	strb.w	r5, [sp, #26]
10002cfc:	f000 f918 	bl	10002f30 <tud_control_xfer>
10002d00:	e46d      	b.n	100025de <tud_task_ext+0x1e>
10002d02:	7832      	ldrb	r2, [r6, #0]
10002d04:	78f3      	ldrb	r3, [r6, #3]
10002d06:	4416      	add	r6, r2
10002d08:	7872      	ldrb	r2, [r6, #1]
10002d0a:	e646      	b.n	1000299a <tud_task_ext+0x3da>
10002d0c:	f7ff f8ce 	bl	10001eac <tud_descriptor_configuration_cb>
10002d10:	4602      	mov	r2, r0
10002d12:	2800      	cmp	r0, #0
10002d14:	f47f aeef 	bne.w	10002af6 <tud_task_ext+0x536>
10002d18:	e4ff      	b.n	1000271a <tud_task_ext+0x15a>
10002d1a:	4602      	mov	r2, r0
10002d1c:	4643      	mov	r3, r8
10002d1e:	4631      	mov	r1, r6
10002d20:	4406      	add	r6, r0
10002d22:	480d      	ldr	r0, [pc, #52]	; (10002d58 <tud_task_ext+0x798>)
10002d24:	f000 fea0 	bl	10003a68 <tu_edpt_bind_driver>
10002d28:	4b0c      	ldr	r3, [pc, #48]	; (10002d5c <tud_task_ext+0x79c>)
10002d2a:	9a01      	ldr	r2, [sp, #4]
10002d2c:	781b      	ldrb	r3, [r3, #0]
10002d2e:	3301      	adds	r3, #1
10002d30:	4293      	cmp	r3, r2
10002d32:	f6bf ae29 	bge.w	10002988 <tud_task_ext+0x3c8>
10002d36:	e774      	b.n	10002c22 <tud_task_ext+0x662>
10002d38:	693a      	ldr	r2, [r7, #16]
10002d3a:	4909      	ldr	r1, [pc, #36]	; (10002d60 <tud_task_ext+0x7a0>)
10002d3c:	428a      	cmp	r2, r1
10002d3e:	bf08      	it	eq
10002d40:	2302      	moveq	r3, #2
10002d42:	e75c      	b.n	10002bfe <tud_task_ext+0x63e>
10002d44:	f04f 23e0 	mov.w	r3, #3758153728	; 0xe000e000
10002d48:	f8d3 3df0 	ldr.w	r3, [r3, #3568]	; 0xdf0
10002d4c:	07db      	lsls	r3, r3, #31
10002d4e:	f57f ac46 	bpl.w	100025de <tud_task_ext+0x1e>
10002d52:	be00      	bkpt	0x0000
10002d54:	e443      	b.n	100025de <tud_task_ext+0x1e>
10002d56:	bf00      	nop
10002d58:	20001610 	.word	0x20001610
10002d5c:	20006020 	.word	0x20006020
10002d60:	10003459 	.word	0x10003459

10002d64 <usbd_open_edpt_pair>:
10002d64:	e92d 4ff8 	stmdb	sp!, {r3, r4, r5, r6, r7, r8, r9, sl, fp, lr}
10002d68:	9f0a      	ldr	r7, [sp, #40]	; 0x28
10002d6a:	2a00      	cmp	r2, #0
10002d6c:	d040      	beq.n	10002df0 <usbd_open_edpt_pair+0x8c>
10002d6e:	460c      	mov	r4, r1
10002d70:	461e      	mov	r6, r3
10002d72:	4615      	mov	r5, r2
10002d74:	f04f 0a00 	mov.w	sl, #0
10002d78:	f8df 907c 	ldr.w	r9, [pc, #124]	; 10002df8 <usbd_open_edpt_pair+0x94>
10002d7c:	f8df 807c 	ldr.w	r8, [pc, #124]	; 10002dfc <usbd_open_edpt_pair+0x98>
10002d80:	e018      	b.n	10002db4 <usbd_open_edpt_pair+0x50>
10002d82:	4620      	mov	r0, r4
10002d84:	f898 1002 	ldrb.w	r1, [r8, #2]
10002d88:	f899 b000 	ldrb.w	fp, [r9]
10002d8c:	f000 fe38 	bl	10003a00 <tu_edpt_validate>
10002d90:	b1e0      	cbz	r0, 10002dcc <usbd_open_edpt_pair+0x68>
10002d92:	4621      	mov	r1, r4
10002d94:	4658      	mov	r0, fp
10002d96:	f7ff fa13 	bl	100021c0 <dcd_edpt_open>
10002d9a:	b1f0      	cbz	r0, 10002dda <usbd_open_edpt_pair+0x76>
10002d9c:	78a2      	ldrb	r2, [r4, #2]
10002d9e:	f10a 0a01 	add.w	sl, sl, #1
10002da2:	09d3      	lsrs	r3, r2, #7
10002da4:	bf16      	itet	ne
10002da6:	9b0b      	ldrne	r3, [sp, #44]	; 0x2c
10002da8:	703a      	strbeq	r2, [r7, #0]
10002daa:	701a      	strbne	r2, [r3, #0]
10002dac:	7822      	ldrb	r2, [r4, #0]
10002dae:	45aa      	cmp	sl, r5
10002db0:	4414      	add	r4, r2
10002db2:	d01d      	beq.n	10002df0 <usbd_open_edpt_pair+0x8c>
10002db4:	7862      	ldrb	r2, [r4, #1]
10002db6:	2a05      	cmp	r2, #5
10002db8:	d10f      	bne.n	10002dda <usbd_open_edpt_pair+0x76>
10002dba:	78e1      	ldrb	r1, [r4, #3]
10002dbc:	f001 0103 	and.w	r1, r1, #3
10002dc0:	42b1      	cmp	r1, r6
10002dc2:	d10a      	bne.n	10002dda <usbd_open_edpt_pair+0x76>
10002dc4:	78a2      	ldrb	r2, [r4, #2]
10002dc6:	f012 0f70 	tst.w	r2, #112	; 0x70
10002dca:	d0da      	beq.n	10002d82 <usbd_open_edpt_pair+0x1e>
10002dcc:	f04f 23e0 	mov.w	r3, #3758153728	; 0xe000e000
10002dd0:	f8d3 3df0 	ldr.w	r3, [r3, #3568]	; 0xdf0
10002dd4:	07da      	lsls	r2, r3, #31
10002dd6:	d500      	bpl.n	10002dda <usbd_open_edpt_pair+0x76>
10002dd8:	be00      	bkpt	0x0000
10002dda:	f04f 23e0 	mov.w	r3, #3758153728	; 0xe000e000
10002dde:	f8d3 3df0 	ldr.w	r3, [r3, #3568]	; 0xdf0
10002de2:	07db      	lsls	r3, r3, #31
10002de4:	d402      	bmi.n	10002dec <usbd_open_edpt_pair+0x88>
10002de6:	2000      	movs	r0, #0
10002de8:	e8bd 8ff8 	ldmia.w	sp!, {r3, r4, r5, r6, r7, r8, r9, sl, fp, pc}
10002dec:	be00      	bkpt	0x0000
10002dee:	e7fa      	b.n	10002de6 <usbd_open_edpt_pair+0x82>
10002df0:	2001      	movs	r0, #1
10002df2:	e8bd 8ff8 	ldmia.w	sp!, {r3, r4, r5, r6, r7, r8, r9, sl, fp, pc}
10002df6:	bf00      	nop
10002df8:	20001268 	.word	0x20001268
10002dfc:	200015fc 	.word	0x200015fc

10002e00 <usbd_edpt_open>:
10002e00:	b538      	push	{r3, r4, r5, lr}
10002e02:	788b      	ldrb	r3, [r1, #2]
10002e04:	f013 0f70 	tst.w	r3, #112	; 0x70
10002e08:	d008      	beq.n	10002e1c <usbd_edpt_open+0x1c>
10002e0a:	f04f 23e0 	mov.w	r3, #3758153728	; 0xe000e000
10002e0e:	f8d3 3df0 	ldr.w	r3, [r3, #3568]	; 0xdf0
10002e12:	07db      	lsls	r3, r3, #31
10002e14:	d500      	bpl.n	10002e18 <usbd_edpt_open+0x18>
10002e16:	be00      	bkpt	0x0000
10002e18:	2000      	movs	r0, #0
10002e1a:	bd38      	pop	{r3, r4, r5, pc}
10002e1c:	4a07      	ldr	r2, [pc, #28]	; (10002e3c <usbd_edpt_open+0x3c>)
10002e1e:	4b08      	ldr	r3, [pc, #32]	; (10002e40 <usbd_edpt_open+0x40>)
10002e20:	460c      	mov	r4, r1
10002e22:	4608      	mov	r0, r1
10002e24:	7891      	ldrb	r1, [r2, #2]
10002e26:	781d      	ldrb	r5, [r3, #0]
10002e28:	f000 fdea 	bl	10003a00 <tu_edpt_validate>
10002e2c:	2800      	cmp	r0, #0
10002e2e:	d0ec      	beq.n	10002e0a <usbd_edpt_open+0xa>
10002e30:	4621      	mov	r1, r4
10002e32:	4628      	mov	r0, r5
10002e34:	e8bd 4038 	ldmia.w	sp!, {r3, r4, r5, lr}
10002e38:	f7ff b9c2 	b.w	100021c0 <dcd_edpt_open>
10002e3c:	200015fc 	.word	0x200015fc
10002e40:	20001268 	.word	0x20001268

10002e44 <usbd_edpt_claim>:
10002e44:	460b      	mov	r3, r1
10002e46:	4a06      	ldr	r2, [pc, #24]	; (10002e60 <usbd_edpt_claim+0x1c>)
10002e48:	4806      	ldr	r0, [pc, #24]	; (10002e64 <usbd_edpt_claim+0x20>)
10002e4a:	6811      	ldr	r1, [r2, #0]
10002e4c:	09da      	lsrs	r2, r3, #7
10002e4e:	3234      	adds	r2, #52	; 0x34
10002e50:	f003 037f 	and.w	r3, r3, #127	; 0x7f
10002e54:	eb02 0343 	add.w	r3, r2, r3, lsl #1
10002e58:	4418      	add	r0, r3
10002e5a:	f000 bd8b 	b.w	10003974 <tu_edpt_claim>
10002e5e:	bf00      	nop
10002e60:	20001650 	.word	0x20001650
10002e64:	200015fc 	.word	0x200015fc

10002e68 <usbd_edpt_release>:
10002e68:	460b      	mov	r3, r1
10002e6a:	4a06      	ldr	r2, [pc, #24]	; (10002e84 <usbd_edpt_release+0x1c>)
10002e6c:	4806      	ldr	r0, [pc, #24]	; (10002e88 <usbd_edpt_release+0x20>)
10002e6e:	6811      	ldr	r1, [r2, #0]
10002e70:	09da      	lsrs	r2, r3, #7
10002e72:	3234      	adds	r2, #52	; 0x34
10002e74:	f003 037f 	and.w	r3, r3, #127	; 0x7f
10002e78:	eb02 0343 	add.w	r3, r2, r3, lsl #1
10002e7c:	4418      	add	r0, r3
10002e7e:	f000 bda3 	b.w	100039c8 <tu_edpt_release>
10002e82:	bf00      	nop
10002e84:	20001650 	.word	0x20001650
10002e88:	200015fc 	.word	0x200015fc

10002e8c <usbd_edpt_xfer>:
10002e8c:	b510      	push	{r4, lr}
10002e8e:	4c19      	ldr	r4, [pc, #100]	; (10002ef4 <usbd_edpt_xfer+0x68>)
10002e90:	f001 0c7f 	and.w	ip, r1, #127	; 0x7f
10002e94:	eb04 044c 	add.w	r4, r4, ip, lsl #1
10002e98:	eb04 10d1 	add.w	r0, r4, r1, lsr #7
10002e9c:	f890 c034 	ldrb.w	ip, [r0, #52]	; 0x34
10002ea0:	f01c 0f01 	tst.w	ip, #1
10002ea4:	d008      	beq.n	10002eb8 <usbd_edpt_xfer+0x2c>
10002ea6:	f04f 23e0 	mov.w	r3, #3758153728	; 0xe000e000
10002eaa:	f8d3 3df0 	ldr.w	r3, [r3, #3568]	; 0xdf0
10002eae:	07da      	lsls	r2, r3, #31
10002eb0:	d500      	bpl.n	10002eb4 <usbd_edpt_xfer+0x28>
10002eb2:	be00      	bkpt	0x0000
10002eb4:	2000      	movs	r0, #0
10002eb6:	bd10      	pop	{r4, pc}
10002eb8:	f890 c034 	ldrb.w	ip, [r0, #52]	; 0x34
10002ebc:	f100 0430 	add.w	r4, r0, #48	; 0x30
10002ec0:	480d      	ldr	r0, [pc, #52]	; (10002ef8 <usbd_edpt_xfer+0x6c>)
10002ec2:	f04c 0c01 	orr.w	ip, ip, #1
10002ec6:	7800      	ldrb	r0, [r0, #0]
10002ec8:	f884 c004 	strb.w	ip, [r4, #4]
10002ecc:	f7ff fa02 	bl	100022d4 <dcd_edpt_xfer>
10002ed0:	2800      	cmp	r0, #0
10002ed2:	d1f0      	bne.n	10002eb6 <usbd_edpt_xfer+0x2a>
10002ed4:	f04f 22e0 	mov.w	r2, #3758153728	; 0xe000e000
10002ed8:	7923      	ldrb	r3, [r4, #4]
10002eda:	f360 0300 	bfi	r3, r0, #0, #1
10002ede:	7123      	strb	r3, [r4, #4]
10002ee0:	7923      	ldrb	r3, [r4, #4]
10002ee2:	f360 0382 	bfi	r3, r0, #2, #1
10002ee6:	7123      	strb	r3, [r4, #4]
10002ee8:	f8d2 3df0 	ldr.w	r3, [r2, #3568]	; 0xdf0
10002eec:	07db      	lsls	r3, r3, #31
10002eee:	d5e1      	bpl.n	10002eb4 <usbd_edpt_xfer+0x28>
10002ef0:	be00      	bkpt	0x0000
10002ef2:	bd10      	pop	{r4, pc}
10002ef4:	200015fc 	.word	0x200015fc
10002ef8:	20001268 	.word	0x20001268

10002efc <tud_control_status>:
10002efc:	b530      	push	{r4, r5, lr}
10002efe:	4c0b      	ldr	r4, [pc, #44]	; (10002f2c <tud_control_status+0x30>)
10002f00:	468c      	mov	ip, r1
10002f02:	46a6      	mov	lr, r4
10002f04:	2300      	movs	r3, #0
10002f06:	4605      	mov	r5, r0
10002f08:	6808      	ldr	r0, [r1, #0]
10002f0a:	6849      	ldr	r1, [r1, #4]
10002f0c:	461a      	mov	r2, r3
10002f0e:	e8ae 0003 	stmia.w	lr!, {r0, r1}
10002f12:	f99c 1000 	ldrsb.w	r1, [ip]
10002f16:	4628      	mov	r0, r5
10002f18:	4299      	cmp	r1, r3
10002f1a:	e9c4 3302 	strd	r3, r3, [r4, #8]
10002f1e:	e8bd 4030 	ldmia.w	sp!, {r4, r5, lr}
10002f22:	bfac      	ite	ge
10002f24:	2180      	movge	r1, #128	; 0x80
10002f26:	4619      	movlt	r1, r3
10002f28:	f7ff bfb0 	b.w	10002e8c <usbd_edpt_xfer>
10002f2c:	200015bc 	.word	0x200015bc

10002f30 <tud_control_xfer>:
10002f30:	e92d 41f0 	stmdb	sp!, {r4, r5, r6, r7, r8, lr}
10002f34:	4f2f      	ldr	r7, [pc, #188]	; (10002ff4 <tud_control_xfer+0xc4>)
10002f36:	f04f 0800 	mov.w	r8, #0
10002f3a:	46be      	mov	lr, r7
10002f3c:	468c      	mov	ip, r1
10002f3e:	4606      	mov	r6, r0
10002f40:	6808      	ldr	r0, [r1, #0]
10002f42:	6849      	ldr	r1, [r1, #4]
10002f44:	60ba      	str	r2, [r7, #8]
10002f46:	e8ae 0003 	stmia.w	lr!, {r0, r1}
10002f4a:	f8a7 800e 	strh.w	r8, [r7, #14]
10002f4e:	f8bc 5006 	ldrh.w	r5, [ip, #6]
10002f52:	b082      	sub	sp, #8
10002f54:	42ab      	cmp	r3, r5
10002f56:	bf28      	it	cs
10002f58:	462b      	movcs	r3, r5
10002f5a:	81bb      	strh	r3, [r7, #12]
10002f5c:	b19d      	cbz	r5, 10002f86 <tud_control_xfer+0x56>
10002f5e:	b34b      	cbz	r3, 10002fb4 <tud_control_xfer+0x84>
10002f60:	4614      	mov	r4, r2
10002f62:	b37a      	cbz	r2, 10002fc4 <tud_control_xfer+0x94>
10002f64:	f997 2000 	ldrsb.w	r2, [r7]
10002f68:	2b40      	cmp	r3, #64	; 0x40
10002f6a:	bf28      	it	cs
10002f6c:	2340      	movcs	r3, #64	; 0x40
10002f6e:	2a00      	cmp	r2, #0
10002f70:	db32      	blt.n	10002fd8 <tud_control_xfer+0xa8>
10002f72:	4641      	mov	r1, r8
10002f74:	4a20      	ldr	r2, [pc, #128]	; (10002ff8 <tud_control_xfer+0xc8>)
10002f76:	4630      	mov	r0, r6
10002f78:	f7ff ff88 	bl	10002e8c <usbd_edpt_xfer>
10002f7c:	b180      	cbz	r0, 10002fa0 <tud_control_xfer+0x70>
10002f7e:	2001      	movs	r0, #1
10002f80:	b002      	add	sp, #8
10002f82:	e8bd 81f0 	ldmia.w	sp!, {r4, r5, r6, r7, r8, pc}
10002f86:	f99c 2000 	ldrsb.w	r2, [ip]
10002f8a:	462b      	mov	r3, r5
10002f8c:	2a00      	cmp	r2, #0
10002f8e:	bfac      	ite	ge
10002f90:	2180      	movge	r1, #128	; 0x80
10002f92:	2100      	movlt	r1, #0
10002f94:	462a      	mov	r2, r5
10002f96:	4630      	mov	r0, r6
10002f98:	f7ff ff78 	bl	10002e8c <usbd_edpt_xfer>
10002f9c:	2800      	cmp	r0, #0
10002f9e:	d1ee      	bne.n	10002f7e <tud_control_xfer+0x4e>
10002fa0:	f04f 23e0 	mov.w	r3, #3758153728	; 0xe000e000
10002fa4:	f8d3 3df0 	ldr.w	r3, [r3, #3568]	; 0xdf0
10002fa8:	07db      	lsls	r3, r3, #31
10002faa:	d511      	bpl.n	10002fd0 <tud_control_xfer+0xa0>
10002fac:	be00      	bkpt	0x0000
10002fae:	b002      	add	sp, #8
10002fb0:	e8bd 81f0 	ldmia.w	sp!, {r4, r5, r6, r7, r8, pc}
10002fb4:	f997 1000 	ldrsb.w	r1, [r7]
10002fb8:	461a      	mov	r2, r3
10002fba:	2900      	cmp	r1, #0
10002fbc:	bfac      	ite	ge
10002fbe:	4619      	movge	r1, r3
10002fc0:	2180      	movlt	r1, #128	; 0x80
10002fc2:	e7d8      	b.n	10002f76 <tud_control_xfer+0x46>
10002fc4:	f04f 23e0 	mov.w	r3, #3758153728	; 0xe000e000
10002fc8:	f8d3 3df0 	ldr.w	r3, [r3, #3568]	; 0xdf0
10002fcc:	07da      	lsls	r2, r3, #31
10002fce:	d40d      	bmi.n	10002fec <tud_control_xfer+0xbc>
10002fd0:	2000      	movs	r0, #0
10002fd2:	b002      	add	sp, #8
10002fd4:	e8bd 81f0 	ldmia.w	sp!, {r4, r5, r6, r7, r8, pc}
10002fd8:	461a      	mov	r2, r3
10002fda:	4621      	mov	r1, r4
10002fdc:	4806      	ldr	r0, [pc, #24]	; (10002ff8 <tud_control_xfer+0xc8>)
10002fde:	9301      	str	r3, [sp, #4]
10002fe0:	f003 fbc4 	bl	1000676c <memcpy>
10002fe4:	2180      	movs	r1, #128	; 0x80
10002fe6:	4a04      	ldr	r2, [pc, #16]	; (10002ff8 <tud_control_xfer+0xc8>)
10002fe8:	9b01      	ldr	r3, [sp, #4]
10002fea:	e7c4      	b.n	10002f76 <tud_control_xfer+0x46>
10002fec:	be00      	bkpt	0x0000
10002fee:	4620      	mov	r0, r4
10002ff0:	e7c6      	b.n	10002f80 <tud_control_xfer+0x50>
10002ff2:	bf00      	nop
10002ff4:	200015bc 	.word	0x200015bc
10002ff8:	2000157c 	.word	0x2000157c

10002ffc <usbd_control_reset>:
10002ffc:	2200      	movs	r2, #0
10002ffe:	4b03      	ldr	r3, [pc, #12]	; (1000300c <usbd_control_reset+0x10>)
10003000:	e9c3 2200 	strd	r2, r2, [r3]
10003004:	e9c3 2202 	strd	r2, r2, [r3, #8]
10003008:	611a      	str	r2, [r3, #16]
1000300a:	4770      	bx	lr
1000300c:	200015bc 	.word	0x200015bc

10003010 <usbd_control_set_complete_callback>:
10003010:	4b01      	ldr	r3, [pc, #4]	; (10003018 <usbd_control_set_complete_callback+0x8>)
10003012:	6118      	str	r0, [r3, #16]
10003014:	4770      	bx	lr
10003016:	bf00      	nop
10003018:	200015bc 	.word	0x200015bc

1000301c <usbd_control_set_request>:
1000301c:	b430      	push	{r4, r5}
1000301e:	4602      	mov	r2, r0
10003020:	4c04      	ldr	r4, [pc, #16]	; (10003034 <usbd_control_set_request+0x18>)
10003022:	2500      	movs	r5, #0
10003024:	4623      	mov	r3, r4
10003026:	6800      	ldr	r0, [r0, #0]
10003028:	6851      	ldr	r1, [r2, #4]
1000302a:	e9c4 5502 	strd	r5, r5, [r4, #8]
1000302e:	bc30      	pop	{r4, r5}
10003030:	c303      	stmia	r3!, {r0, r1}
10003032:	4770      	bx	lr
10003034:	200015bc 	.word	0x200015bc

10003038 <usbd_control_xfer_cb>:
10003038:	b570      	push	{r4, r5, r6, lr}
1000303a:	4c41      	ldr	r4, [pc, #260]	; (10003140 <usbd_control_xfer_cb+0x108>)
1000303c:	09c9      	lsrs	r1, r1, #7
1000303e:	7822      	ldrb	r2, [r4, #0]
10003040:	4605      	mov	r5, r0
10003042:	ebb1 1fd2 	cmp.w	r1, r2, lsr #7
10003046:	461e      	mov	r6, r3
10003048:	b082      	sub	sp, #8
1000304a:	d021      	beq.n	10003090 <usbd_control_xfer_cb+0x58>
1000304c:	b14b      	cbz	r3, 10003062 <usbd_control_xfer_cb+0x2a>
1000304e:	f04f 23e0 	mov.w	r3, #3758153728	; 0xe000e000
10003052:	f8d3 3df0 	ldr.w	r3, [r3, #3568]	; 0xdf0
10003056:	07da      	lsls	r2, r3, #31
10003058:	d500      	bpl.n	1000305c <usbd_control_xfer_cb+0x24>
1000305a:	be00      	bkpt	0x0000
1000305c:	2000      	movs	r0, #0
1000305e:	b002      	add	sp, #8
10003060:	bd70      	pop	{r4, r5, r6, pc}
10003062:	4621      	mov	r1, r4
10003064:	f7ff f89e 	bl	100021a4 <dcd_edpt0_status_complete>
10003068:	6923      	ldr	r3, [r4, #16]
1000306a:	b173      	cbz	r3, 1000308a <usbd_control_xfer_cb+0x52>
1000306c:	4622      	mov	r2, r4
1000306e:	2103      	movs	r1, #3
10003070:	4628      	mov	r0, r5
10003072:	4798      	blx	r3
10003074:	2001      	movs	r0, #1
10003076:	b002      	add	sp, #8
10003078:	bd70      	pop	{r4, r5, r6, pc}
1000307a:	4601      	mov	r1, r0
1000307c:	4628      	mov	r0, r5
1000307e:	f7ff f93d 	bl	100022fc <dcd_edpt_stall>
10003082:	2180      	movs	r1, #128	; 0x80
10003084:	4628      	mov	r0, r5
10003086:	f7ff f939 	bl	100022fc <dcd_edpt_stall>
1000308a:	2001      	movs	r0, #1
1000308c:	b002      	add	sp, #8
1000308e:	bd70      	pop	{r4, r5, r6, pc}
10003090:	f994 2000 	ldrsb.w	r2, [r4]
10003094:	2a00      	cmp	r2, #0
10003096:	db06      	blt.n	100030a6 <usbd_control_xfer_cb+0x6e>
10003098:	68a0      	ldr	r0, [r4, #8]
1000309a:	2800      	cmp	r0, #0
1000309c:	d0de      	beq.n	1000305c <usbd_control_xfer_cb+0x24>
1000309e:	461a      	mov	r2, r3
100030a0:	4928      	ldr	r1, [pc, #160]	; (10003144 <usbd_control_xfer_cb+0x10c>)
100030a2:	f003 fb63 	bl	1000676c <memcpy>
100030a6:	89e0      	ldrh	r0, [r4, #14]
100030a8:	68a1      	ldr	r1, [r4, #8]
100030aa:	88e2      	ldrh	r2, [r4, #6]
100030ac:	4430      	add	r0, r6
100030ae:	b280      	uxth	r0, r0
100030b0:	4431      	add	r1, r6
100030b2:	4282      	cmp	r2, r0
100030b4:	81e0      	strh	r0, [r4, #14]
100030b6:	60a1      	str	r1, [r4, #8]
100030b8:	d016      	beq.n	100030e8 <usbd_control_xfer_cb+0xb0>
100030ba:	2e3f      	cmp	r6, #63	; 0x3f
100030bc:	d914      	bls.n	100030e8 <usbd_control_xfer_cb+0xb0>
100030be:	89a2      	ldrh	r2, [r4, #12]
100030c0:	f994 4000 	ldrsb.w	r4, [r4]
100030c4:	1a13      	subs	r3, r2, r0
100030c6:	b29b      	uxth	r3, r3
100030c8:	2b40      	cmp	r3, #64	; 0x40
100030ca:	bf28      	it	cs
100030cc:	2340      	movcs	r3, #64	; 0x40
100030ce:	2c00      	cmp	r4, #0
100030d0:	db27      	blt.n	10003122 <usbd_control_xfer_cb+0xea>
100030d2:	4290      	cmp	r0, r2
100030d4:	f04f 0100 	mov.w	r1, #0
100030d8:	d02f      	beq.n	1000313a <usbd_control_xfer_cb+0x102>
100030da:	4a1a      	ldr	r2, [pc, #104]	; (10003144 <usbd_control_xfer_cb+0x10c>)
100030dc:	4628      	mov	r0, r5
100030de:	f7ff fed5 	bl	10002e8c <usbd_edpt_xfer>
100030e2:	2800      	cmp	r0, #0
100030e4:	d1d1      	bne.n	1000308a <usbd_control_xfer_cb+0x52>
100030e6:	e014      	b.n	10003112 <usbd_control_xfer_cb+0xda>
100030e8:	6923      	ldr	r3, [r4, #16]
100030ea:	b12b      	cbz	r3, 100030f8 <usbd_control_xfer_cb+0xc0>
100030ec:	2102      	movs	r1, #2
100030ee:	4628      	mov	r0, r5
100030f0:	4a13      	ldr	r2, [pc, #76]	; (10003140 <usbd_control_xfer_cb+0x108>)
100030f2:	4798      	blx	r3
100030f4:	2800      	cmp	r0, #0
100030f6:	d0c0      	beq.n	1000307a <usbd_control_xfer_cb+0x42>
100030f8:	2300      	movs	r3, #0
100030fa:	f994 2000 	ldrsb.w	r2, [r4]
100030fe:	4628      	mov	r0, r5
10003100:	429a      	cmp	r2, r3
10003102:	bfac      	ite	ge
10003104:	2180      	movge	r1, #128	; 0x80
10003106:	4619      	movlt	r1, r3
10003108:	461a      	mov	r2, r3
1000310a:	f7ff febf 	bl	10002e8c <usbd_edpt_xfer>
1000310e:	2800      	cmp	r0, #0
10003110:	d1bb      	bne.n	1000308a <usbd_control_xfer_cb+0x52>
10003112:	f04f 23e0 	mov.w	r3, #3758153728	; 0xe000e000
10003116:	f8d3 3df0 	ldr.w	r3, [r3, #3568]	; 0xdf0
1000311a:	07db      	lsls	r3, r3, #31
1000311c:	d59e      	bpl.n	1000305c <usbd_control_xfer_cb+0x24>
1000311e:	be00      	bkpt	0x0000
10003120:	e79d      	b.n	1000305e <usbd_control_xfer_cb+0x26>
10003122:	4290      	cmp	r0, r2
10003124:	d008      	beq.n	10003138 <usbd_control_xfer_cb+0x100>
10003126:	461a      	mov	r2, r3
10003128:	4806      	ldr	r0, [pc, #24]	; (10003144 <usbd_control_xfer_cb+0x10c>)
1000312a:	9301      	str	r3, [sp, #4]
1000312c:	f003 fb1e 	bl	1000676c <memcpy>
10003130:	2180      	movs	r1, #128	; 0x80
10003132:	4a04      	ldr	r2, [pc, #16]	; (10003144 <usbd_control_xfer_cb+0x10c>)
10003134:	9b01      	ldr	r3, [sp, #4]
10003136:	e7d1      	b.n	100030dc <usbd_control_xfer_cb+0xa4>
10003138:	2180      	movs	r1, #128	; 0x80
1000313a:	2200      	movs	r2, #0
1000313c:	e7ce      	b.n	100030dc <usbd_control_xfer_cb+0xa4>
1000313e:	bf00      	nop
10003140:	200015bc 	.word	0x200015bc
10003144:	2000157c 	.word	0x2000157c

10003148 <_prep_out_transaction.isra.0>:
10003148:	e92d 41f0 	stmdb	sp!, {r4, r5, r6, r7, r8, lr}
1000314c:	4604      	mov	r4, r0
1000314e:	f7ff f99f 	bl	10002490 <tud_mounted>
10003152:	b908      	cbnz	r0, 10003158 <_prep_out_transaction.isra.0+0x10>
10003154:	e8bd 81f0 	ldmia.w	sp!, {r4, r5, r6, r7, r8, pc}
10003158:	f7ff f9a2 	bl	100024a0 <tud_suspended>
1000315c:	4607      	mov	r7, r0
1000315e:	2800      	cmp	r0, #0
10003160:	d1f8      	bne.n	10003154 <_prep_out_transaction.isra.0+0xc>
10003162:	25c8      	movs	r5, #200	; 0xc8
10003164:	4b14      	ldr	r3, [pc, #80]	; (100031b8 <_prep_out_transaction.isra.0+0x70>)
10003166:	fb05 3604 	mla	r6, r5, r4, r3
1000316a:	78f2      	ldrb	r2, [r6, #3]
1000316c:	2a00      	cmp	r2, #0
1000316e:	d0f1      	beq.n	10003154 <_prep_out_transaction.isra.0+0xc>
10003170:	fb05 3304 	mla	r3, r5, r4, r3
10003174:	f103 0510 	add.w	r5, r3, #16
10003178:	4628      	mov	r0, r5
1000317a:	f000 fdf3 	bl	10003d64 <tu_fifo_remaining>
1000317e:	283f      	cmp	r0, #63	; 0x3f
10003180:	d9e8      	bls.n	10003154 <_prep_out_transaction.isra.0+0xc>
10003182:	4638      	mov	r0, r7
10003184:	78f1      	ldrb	r1, [r6, #3]
10003186:	f7ff fe5d 	bl	10002e44 <usbd_edpt_claim>
1000318a:	2800      	cmp	r0, #0
1000318c:	d0e2      	beq.n	10003154 <_prep_out_transaction.isra.0+0xc>
1000318e:	4628      	mov	r0, r5
10003190:	f000 fde8 	bl	10003d64 <tu_fifo_remaining>
10003194:	283f      	cmp	r0, #63	; 0x3f
10003196:	d909      	bls.n	100031ac <_prep_out_transaction.isra.0+0x64>
10003198:	4a08      	ldr	r2, [pc, #32]	; (100031bc <_prep_out_transaction.isra.0+0x74>)
1000319a:	4638      	mov	r0, r7
1000319c:	78f1      	ldrb	r1, [r6, #3]
1000319e:	eb02 12c4 	add.w	r2, r2, r4, lsl #7
100031a2:	2340      	movs	r3, #64	; 0x40
100031a4:	e8bd 41f0 	ldmia.w	sp!, {r4, r5, r6, r7, r8, lr}
100031a8:	f7ff be70 	b.w	10002e8c <usbd_edpt_xfer>
100031ac:	4638      	mov	r0, r7
100031ae:	78f1      	ldrb	r1, [r6, #3]
100031b0:	e8bd 41f0 	ldmia.w	sp!, {r4, r5, r6, r7, r8, lr}
100031b4:	f7ff be58 	b.w	10002e68 <usbd_edpt_release>
100031b8:	200014b4 	.word	0x200014b4
100031bc:	20001430 	.word	0x20001430

100031c0 <tud_cdc_n_connected>:
100031c0:	b510      	push	{r4, lr}
100031c2:	4604      	mov	r4, r0
100031c4:	f7ff f964 	bl	10002490 <tud_mounted>
100031c8:	b908      	cbnz	r0, 100031ce <tud_cdc_n_connected+0xe>
100031ca:	2000      	movs	r0, #0
100031cc:	bd10      	pop	{r4, pc}
100031ce:	f7ff f967 	bl	100024a0 <tud_suspended>
100031d2:	2800      	cmp	r0, #0
100031d4:	d1f9      	bne.n	100031ca <tud_cdc_n_connected+0xa>
100031d6:	23c8      	movs	r3, #200	; 0xc8
100031d8:	4803      	ldr	r0, [pc, #12]	; (100031e8 <tud_cdc_n_connected+0x28>)
100031da:	fb03 0004 	mla	r0, r3, r4, r0
100031de:	7900      	ldrb	r0, [r0, #4]
100031e0:	f000 0001 	and.w	r0, r0, #1
100031e4:	bd10      	pop	{r4, pc}
100031e6:	bf00      	nop
100031e8:	200014b4 	.word	0x200014b4

100031ec <tud_cdc_n_available>:
100031ec:	22c8      	movs	r2, #200	; 0xc8
100031ee:	b508      	push	{r3, lr}
100031f0:	4b03      	ldr	r3, [pc, #12]	; (10003200 <tud_cdc_n_available+0x14>)
100031f2:	fb02 3000 	mla	r0, r2, r0, r3
100031f6:	3010      	adds	r0, #16
100031f8:	f000 fd9a 	bl	10003d30 <tu_fifo_count>
100031fc:	bd08      	pop	{r3, pc}
100031fe:	bf00      	nop
10003200:	200014b4 	.word	0x200014b4

10003204 <tud_cdc_n_read>:
10003204:	e92d 43f8 	stmdb	sp!, {r3, r4, r5, r6, r7, r8, r9, lr}
10003208:	f64f 74fe 	movw	r4, #65534	; 0xfffe
1000320c:	f64f 73ff 	movw	r3, #65535	; 0xffff
10003210:	f04f 08c8 	mov.w	r8, #200	; 0xc8
10003214:	42a2      	cmp	r2, r4
10003216:	bf98      	it	ls
10003218:	4613      	movls	r3, r2
1000321a:	4e1c      	ldr	r6, [pc, #112]	; (1000328c <tud_cdc_n_read+0x88>)
1000321c:	4604      	mov	r4, r0
1000321e:	fb08 6500 	mla	r5, r8, r0, r6
10003222:	3510      	adds	r5, #16
10003224:	4628      	mov	r0, r5
10003226:	b29a      	uxth	r2, r3
10003228:	f000 fdf8 	bl	10003e1c <tu_fifo_read_n>
1000322c:	4607      	mov	r7, r0
1000322e:	f7ff f92f 	bl	10002490 <tud_mounted>
10003232:	b910      	cbnz	r0, 1000323a <tud_cdc_n_read+0x36>
10003234:	4638      	mov	r0, r7
10003236:	e8bd 83f8 	ldmia.w	sp!, {r3, r4, r5, r6, r7, r8, r9, pc}
1000323a:	f7ff f931 	bl	100024a0 <tud_suspended>
1000323e:	4681      	mov	r9, r0
10003240:	2800      	cmp	r0, #0
10003242:	d1f7      	bne.n	10003234 <tud_cdc_n_read+0x30>
10003244:	fb08 6604 	mla	r6, r8, r4, r6
10003248:	78f3      	ldrb	r3, [r6, #3]
1000324a:	2b00      	cmp	r3, #0
1000324c:	d0f2      	beq.n	10003234 <tud_cdc_n_read+0x30>
1000324e:	4628      	mov	r0, r5
10003250:	f000 fd88 	bl	10003d64 <tu_fifo_remaining>
10003254:	283f      	cmp	r0, #63	; 0x3f
10003256:	d9ed      	bls.n	10003234 <tud_cdc_n_read+0x30>
10003258:	4648      	mov	r0, r9
1000325a:	78f1      	ldrb	r1, [r6, #3]
1000325c:	f7ff fdf2 	bl	10002e44 <usbd_edpt_claim>
10003260:	2800      	cmp	r0, #0
10003262:	d0e7      	beq.n	10003234 <tud_cdc_n_read+0x30>
10003264:	4628      	mov	r0, r5
10003266:	f000 fd7d 	bl	10003d64 <tu_fifo_remaining>
1000326a:	283f      	cmp	r0, #63	; 0x3f
1000326c:	d908      	bls.n	10003280 <tud_cdc_n_read+0x7c>
1000326e:	4a08      	ldr	r2, [pc, #32]	; (10003290 <tud_cdc_n_read+0x8c>)
10003270:	4648      	mov	r0, r9
10003272:	2340      	movs	r3, #64	; 0x40
10003274:	78f1      	ldrb	r1, [r6, #3]
10003276:	eb02 12c4 	add.w	r2, r2, r4, lsl #7
1000327a:	f7ff fe07 	bl	10002e8c <usbd_edpt_xfer>
1000327e:	e7d9      	b.n	10003234 <tud_cdc_n_read+0x30>
10003280:	4648      	mov	r0, r9
10003282:	78f1      	ldrb	r1, [r6, #3]
10003284:	f7ff fdf0 	bl	10002e68 <usbd_edpt_release>
10003288:	e7d4      	b.n	10003234 <tud_cdc_n_read+0x30>
1000328a:	bf00      	nop
1000328c:	200014b4 	.word	0x200014b4
10003290:	20001430 	.word	0x20001430

10003294 <tud_cdc_n_write_flush>:
10003294:	e92d 41f0 	stmdb	sp!, {r4, r5, r6, r7, r8, lr}
10003298:	4605      	mov	r5, r0
1000329a:	f7ff f8f9 	bl	10002490 <tud_mounted>
1000329e:	b910      	cbnz	r0, 100032a6 <tud_cdc_n_write_flush+0x12>
100032a0:	2000      	movs	r0, #0
100032a2:	e8bd 81f0 	ldmia.w	sp!, {r4, r5, r6, r7, r8, pc}
100032a6:	f7ff f8fb 	bl	100024a0 <tud_suspended>
100032aa:	4607      	mov	r7, r0
100032ac:	2800      	cmp	r0, #0
100032ae:	d1f7      	bne.n	100032a0 <tud_cdc_n_write_flush+0xc>
100032b0:	f04f 08c8 	mov.w	r8, #200	; 0xc8
100032b4:	4e17      	ldr	r6, [pc, #92]	; (10003314 <tud_cdc_n_write_flush+0x80>)
100032b6:	fb08 6405 	mla	r4, r8, r5, r6
100032ba:	3424      	adds	r4, #36	; 0x24
100032bc:	4620      	mov	r0, r4
100032be:	f000 fd37 	bl	10003d30 <tu_fifo_count>
100032c2:	2800      	cmp	r0, #0
100032c4:	d0ec      	beq.n	100032a0 <tud_cdc_n_write_flush+0xc>
100032c6:	fb08 6605 	mla	r6, r8, r5, r6
100032ca:	4638      	mov	r0, r7
100032cc:	78b1      	ldrb	r1, [r6, #2]
100032ce:	f7ff fdb9 	bl	10002e44 <usbd_edpt_claim>
100032d2:	2800      	cmp	r0, #0
100032d4:	d0e4      	beq.n	100032a0 <tud_cdc_n_write_flush+0xc>
100032d6:	2240      	movs	r2, #64	; 0x40
100032d8:	490f      	ldr	r1, [pc, #60]	; (10003318 <tud_cdc_n_write_flush+0x84>)
100032da:	eb02 15c5 	add.w	r5, r2, r5, lsl #7
100032de:	440d      	add	r5, r1
100032e0:	4620      	mov	r0, r4
100032e2:	4629      	mov	r1, r5
100032e4:	f000 fd9a 	bl	10003e1c <tu_fifo_read_n>
100032e8:	4604      	mov	r4, r0
100032ea:	b170      	cbz	r0, 1000330a <tud_cdc_n_write_flush+0x76>
100032ec:	4603      	mov	r3, r0
100032ee:	462a      	mov	r2, r5
100032f0:	4638      	mov	r0, r7
100032f2:	78b1      	ldrb	r1, [r6, #2]
100032f4:	f7ff fdca 	bl	10002e8c <usbd_edpt_xfer>
100032f8:	b950      	cbnz	r0, 10003310 <tud_cdc_n_write_flush+0x7c>
100032fa:	f04f 23e0 	mov.w	r3, #3758153728	; 0xe000e000
100032fe:	f8d3 3df0 	ldr.w	r3, [r3, #3568]	; 0xdf0
10003302:	07db      	lsls	r3, r3, #31
10003304:	d5cc      	bpl.n	100032a0 <tud_cdc_n_write_flush+0xc>
10003306:	be00      	bkpt	0x0000
10003308:	e7cb      	b.n	100032a2 <tud_cdc_n_write_flush+0xe>
1000330a:	78b1      	ldrb	r1, [r6, #2]
1000330c:	f7ff fdac 	bl	10002e68 <usbd_edpt_release>
10003310:	4620      	mov	r0, r4
10003312:	e7c6      	b.n	100032a2 <tud_cdc_n_write_flush+0xe>
10003314:	200014b4 	.word	0x200014b4
10003318:	20001430 	.word	0x20001430

1000331c <tud_cdc_n_write>:
1000331c:	b538      	push	{r3, r4, r5, lr}
1000331e:	f64f 75fe 	movw	r5, #65534	; 0xfffe
10003322:	f64f 73ff 	movw	r3, #65535	; 0xffff
10003326:	f04f 0cc8 	mov.w	ip, #200	; 0xc8
1000332a:	42aa      	cmp	r2, r5
1000332c:	bf98      	it	ls
1000332e:	4613      	movls	r3, r2
10003330:	4c0b      	ldr	r4, [pc, #44]	; (10003360 <tud_cdc_n_write+0x44>)
10003332:	b29a      	uxth	r2, r3
10003334:	fb0c 4400 	mla	r4, ip, r0, r4
10003338:	3424      	adds	r4, #36	; 0x24
1000333a:	4605      	mov	r5, r0
1000333c:	4620      	mov	r0, r4
1000333e:	f000 fe19 	bl	10003f74 <tu_fifo_write_n>
10003342:	4603      	mov	r3, r0
10003344:	4620      	mov	r0, r4
10003346:	461c      	mov	r4, r3
10003348:	f000 fcf2 	bl	10003d30 <tu_fifo_count>
1000334c:	283f      	cmp	r0, #63	; 0x3f
1000334e:	d801      	bhi.n	10003354 <tud_cdc_n_write+0x38>
10003350:	4620      	mov	r0, r4
10003352:	bd38      	pop	{r3, r4, r5, pc}
10003354:	4628      	mov	r0, r5
10003356:	f7ff ff9d 	bl	10003294 <tud_cdc_n_write_flush>
1000335a:	4620      	mov	r0, r4
1000335c:	bd38      	pop	{r3, r4, r5, pc}
1000335e:	bf00      	nop
10003360:	200014b4 	.word	0x200014b4

10003364 <tud_cdc_n_write_available>:
10003364:	22c8      	movs	r2, #200	; 0xc8
10003366:	b508      	push	{r3, lr}
10003368:	4b03      	ldr	r3, [pc, #12]	; (10003378 <tud_cdc_n_write_available+0x14>)
1000336a:	fb02 3000 	mla	r0, r2, r0, r3
1000336e:	3024      	adds	r0, #36	; 0x24
10003370:	f000 fcf8 	bl	10003d64 <tu_fifo_remaining>
10003374:	bd08      	pop	{r3, pc}
10003376:	bf00      	nop
10003378:	200014b4 	.word	0x200014b4

1000337c <cdcd_init>:
1000337c:	b5f0      	push	{r4, r5, r6, r7, lr}
1000337e:	2500      	movs	r5, #0
10003380:	4c18      	ldr	r4, [pc, #96]	; (100033e4 <cdcd_init+0x68>)
10003382:	b083      	sub	sp, #12
10003384:	4629      	mov	r1, r5
10003386:	22c8      	movs	r2, #200	; 0xc8
10003388:	4620      	mov	r0, r4
1000338a:	f003 fa65 	bl	10006858 <memset>
1000338e:	23ff      	movs	r3, #255	; 0xff
10003390:	f44f 31e1 	mov.w	r1, #115200	; 0x1c200
10003394:	2208      	movs	r2, #8
10003396:	4814      	ldr	r0, [pc, #80]	; (100033e8 <cdcd_init+0x6c>)
10003398:	7163      	strb	r3, [r4, #5]
1000339a:	7005      	strb	r5, [r0, #0]
1000339c:	60a1      	str	r1, [r4, #8]
1000339e:	73a2      	strb	r2, [r4, #14]
100033a0:	f104 0138 	add.w	r1, r4, #56	; 0x38
100033a4:	2301      	movs	r3, #1
100033a6:	2240      	movs	r2, #64	; 0x40
100033a8:	9500      	str	r5, [sp, #0]
100033aa:	f104 0010 	add.w	r0, r4, #16
100033ae:	f000 fc8d 	bl	10003ccc <tu_fifo_config>
100033b2:	2301      	movs	r3, #1
100033b4:	2240      	movs	r2, #64	; 0x40
100033b6:	f104 0178 	add.w	r1, r4, #120	; 0x78
100033ba:	9300      	str	r3, [sp, #0]
100033bc:	f104 07b8 	add.w	r7, r4, #184	; 0xb8
100033c0:	f104 0024 	add.w	r0, r4, #36	; 0x24
100033c4:	f000 fc82 	bl	10003ccc <tu_fifo_config>
100033c8:	f104 06c0 	add.w	r6, r4, #192	; 0xc0
100033cc:	4638      	mov	r0, r7
100033ce:	f7fd fae3 	bl	10000998 <mutex_init>
100033d2:	4630      	mov	r0, r6
100033d4:	f7fd fae0 	bl	10000998 <mutex_init>
100033d8:	e9c4 5707 	strd	r5, r7, [r4, #28]
100033dc:	e9c4 650c 	strd	r6, r5, [r4, #48]	; 0x30
100033e0:	b003      	add	sp, #12
100033e2:	bdf0      	pop	{r4, r5, r6, r7, pc}
100033e4:	200014b4 	.word	0x200014b4
100033e8:	200014b0 	.word	0x200014b0

100033ec <cdcd_deinit>:
100033ec:	4b06      	ldr	r3, [pc, #24]	; (10003408 <cdcd_deinit+0x1c>)
100033ee:	6a1a      	ldr	r2, [r3, #32]
100033f0:	6b19      	ldr	r1, [r3, #48]	; 0x30
100033f2:	b112      	cbz	r2, 100033fa <cdcd_deinit+0xe>
100033f4:	2200      	movs	r2, #0
100033f6:	e9c3 2207 	strd	r2, r2, [r3, #28]
100033fa:	b111      	cbz	r1, 10003402 <cdcd_deinit+0x16>
100033fc:	2200      	movs	r2, #0
100033fe:	e9c3 220c 	strd	r2, r2, [r3, #48]	; 0x30
10003402:	2001      	movs	r0, #1
10003404:	4770      	bx	lr
10003406:	bf00      	nop
10003408:	200014b4 	.word	0x200014b4

1000340c <cdcd_reset>:
1000340c:	2200      	movs	r2, #0
1000340e:	b510      	push	{r4, lr}
10003410:	4c0e      	ldr	r4, [pc, #56]	; (1000344c <cdcd_reset+0x40>)
10003412:	480f      	ldr	r0, [pc, #60]	; (10003450 <cdcd_reset+0x44>)
10003414:	7823      	ldrb	r3, [r4, #0]
10003416:	6002      	str	r2, [r0, #0]
10003418:	7102      	strb	r2, [r0, #4]
1000341a:	07da      	lsls	r2, r3, #31
1000341c:	d507      	bpl.n	1000342e <cdcd_reset+0x22>
1000341e:	079b      	lsls	r3, r3, #30
10003420:	d50b      	bpl.n	1000343a <cdcd_reset+0x2e>
10003422:	e8bd 4010 	ldmia.w	sp!, {r4, lr}
10003426:	2101      	movs	r1, #1
10003428:	480a      	ldr	r0, [pc, #40]	; (10003454 <cdcd_reset+0x48>)
1000342a:	f000 be6d 	b.w	10004108 <tu_fifo_set_overwritable>
1000342e:	3010      	adds	r0, #16
10003430:	f000 fe4e 	bl	100040d0 <tu_fifo_clear>
10003434:	7823      	ldrb	r3, [r4, #0]
10003436:	079b      	lsls	r3, r3, #30
10003438:	d4f3      	bmi.n	10003422 <cdcd_reset+0x16>
1000343a:	4806      	ldr	r0, [pc, #24]	; (10003454 <cdcd_reset+0x48>)
1000343c:	f000 fe48 	bl	100040d0 <tu_fifo_clear>
10003440:	e8bd 4010 	ldmia.w	sp!, {r4, lr}
10003444:	2101      	movs	r1, #1
10003446:	4803      	ldr	r0, [pc, #12]	; (10003454 <cdcd_reset+0x48>)
10003448:	f000 be5e 	b.w	10004108 <tu_fifo_set_overwritable>
1000344c:	200014b0 	.word	0x200014b0
10003450:	200014b4 	.word	0x200014b4
10003454:	200014d8 	.word	0x200014d8

10003458 <cdcd_open>:
10003458:	b5f0      	push	{r4, r5, r6, r7, lr}
1000345a:	794b      	ldrb	r3, [r1, #5]
1000345c:	b083      	sub	sp, #12
1000345e:	2b02      	cmp	r3, #2
10003460:	d102      	bne.n	10003468 <cdcd_open+0x10>
10003462:	798b      	ldrb	r3, [r1, #6]
10003464:	2b02      	cmp	r3, #2
10003466:	d003      	beq.n	10003470 <cdcd_open+0x18>
10003468:	2500      	movs	r5, #0
1000346a:	4628      	mov	r0, r5
1000346c:	b003      	add	sp, #12
1000346e:	bdf0      	pop	{r4, r5, r6, r7, pc}
10003470:	4f26      	ldr	r7, [pc, #152]	; (1000350c <cdcd_open+0xb4>)
10003472:	78bb      	ldrb	r3, [r7, #2]
10003474:	b13b      	cbz	r3, 10003486 <cdcd_open+0x2e>
10003476:	f04f 23e0 	mov.w	r3, #3758153728	; 0xe000e000
1000347a:	f8d3 3df0 	ldr.w	r3, [r3, #3568]	; 0xdf0
1000347e:	07db      	lsls	r3, r3, #31
10003480:	d5f2      	bpl.n	10003468 <cdcd_open+0x10>
10003482:	be00      	bkpt	0x0000
10003484:	e7f0      	b.n	10003468 <cdcd_open+0x10>
10003486:	788b      	ldrb	r3, [r1, #2]
10003488:	4606      	mov	r6, r0
1000348a:	703b      	strb	r3, [r7, #0]
1000348c:	780c      	ldrb	r4, [r1, #0]
1000348e:	2509      	movs	r5, #9
10003490:	440c      	add	r4, r1
10003492:	7861      	ldrb	r1, [r4, #1]
10003494:	2924      	cmp	r1, #36	; 0x24
10003496:	d10b      	bne.n	100034b0 <cdcd_open+0x58>
10003498:	2a08      	cmp	r2, #8
1000349a:	d802      	bhi.n	100034a2 <cdcd_open+0x4a>
1000349c:	e00f      	b.n	100034be <cdcd_open+0x66>
1000349e:	42aa      	cmp	r2, r5
100034a0:	d30d      	bcc.n	100034be <cdcd_open+0x66>
100034a2:	7823      	ldrb	r3, [r4, #0]
100034a4:	441c      	add	r4, r3
100034a6:	7861      	ldrb	r1, [r4, #1]
100034a8:	442b      	add	r3, r5
100034aa:	2924      	cmp	r1, #36	; 0x24
100034ac:	b29d      	uxth	r5, r3
100034ae:	d0f6      	beq.n	1000349e <cdcd_open+0x46>
100034b0:	2905      	cmp	r1, #5
100034b2:	d00a      	beq.n	100034ca <cdcd_open+0x72>
100034b4:	2904      	cmp	r1, #4
100034b6:	d102      	bne.n	100034be <cdcd_open+0x66>
100034b8:	7963      	ldrb	r3, [r4, #5]
100034ba:	2b0a      	cmp	r3, #10
100034bc:	d013      	beq.n	100034e6 <cdcd_open+0x8e>
100034be:	2000      	movs	r0, #0
100034c0:	f7ff fe42 	bl	10003148 <_prep_out_transaction.isra.0>
100034c4:	4628      	mov	r0, r5
100034c6:	b003      	add	sp, #12
100034c8:	bdf0      	pop	{r4, r5, r6, r7, pc}
100034ca:	4621      	mov	r1, r4
100034cc:	4630      	mov	r0, r6
100034ce:	f7ff fc97 	bl	10002e00 <usbd_edpt_open>
100034d2:	2800      	cmp	r0, #0
100034d4:	d0cf      	beq.n	10003476 <cdcd_open+0x1e>
100034d6:	78a3      	ldrb	r3, [r4, #2]
100034d8:	707b      	strb	r3, [r7, #1]
100034da:	7823      	ldrb	r3, [r4, #0]
100034dc:	441c      	add	r4, r3
100034de:	442b      	add	r3, r5
100034e0:	7861      	ldrb	r1, [r4, #1]
100034e2:	b29d      	uxth	r5, r3
100034e4:	e7e6      	b.n	100034b4 <cdcd_open+0x5c>
100034e6:	4b0a      	ldr	r3, [pc, #40]	; (10003510 <cdcd_open+0xb8>)
100034e8:	7827      	ldrb	r7, [r4, #0]
100034ea:	9301      	str	r3, [sp, #4]
100034ec:	3301      	adds	r3, #1
100034ee:	9300      	str	r3, [sp, #0]
100034f0:	2302      	movs	r3, #2
100034f2:	4630      	mov	r0, r6
100034f4:	461a      	mov	r2, r3
100034f6:	19e1      	adds	r1, r4, r7
100034f8:	f7ff fc34 	bl	10002d64 <usbd_open_edpt_pair>
100034fc:	2800      	cmp	r0, #0
100034fe:	d0ba      	beq.n	10003476 <cdcd_open+0x1e>
10003500:	f105 030e 	add.w	r3, r5, #14
10003504:	fa17 f383 	uxtah	r3, r7, r3
10003508:	b29d      	uxth	r5, r3
1000350a:	e7d8      	b.n	100034be <cdcd_open+0x66>
1000350c:	200014b4 	.word	0x200014b4
10003510:	200014b6 	.word	0x200014b6

10003514 <cdcd_control_xfer_cb>:
10003514:	7813      	ldrb	r3, [r2, #0]
10003516:	f003 0360 	and.w	r3, r3, #96	; 0x60
1000351a:	2b20      	cmp	r3, #32
1000351c:	d108      	bne.n	10003530 <cdcd_control_xfer_cb+0x1c>
1000351e:	b570      	push	{r4, r5, r6, lr}
10003520:	4c28      	ldr	r4, [pc, #160]	; (100035c4 <cdcd_control_xfer_cb+0xb0>)
10003522:	8893      	ldrh	r3, [r2, #4]
10003524:	f894 c000 	ldrb.w	ip, [r4]
10003528:	459c      	cmp	ip, r3
1000352a:	d003      	beq.n	10003534 <cdcd_control_xfer_cb+0x20>
1000352c:	2000      	movs	r0, #0
1000352e:	bd70      	pop	{r4, r5, r6, pc}
10003530:	2000      	movs	r0, #0
10003532:	4770      	bx	lr
10003534:	7853      	ldrb	r3, [r2, #1]
10003536:	3b20      	subs	r3, #32
10003538:	2b03      	cmp	r3, #3
1000353a:	d8f7      	bhi.n	1000352c <cdcd_control_xfer_cb+0x18>
1000353c:	e8df f003 	tbb	[pc, r3]
10003540:	020d2428 	.word	0x020d2428
10003544:	2901      	cmp	r1, #1
10003546:	d030      	beq.n	100035aa <cdcd_control_xfer_cb+0x96>
10003548:	2903      	cmp	r1, #3
1000354a:	d11f      	bne.n	1000358c <cdcd_control_xfer_cb+0x78>
1000354c:	4b1e      	ldr	r3, [pc, #120]	; (100035c8 <cdcd_control_xfer_cb+0xb4>)
1000354e:	b1eb      	cbz	r3, 1000358c <cdcd_control_xfer_cb+0x78>
10003550:	2000      	movs	r0, #0
10003552:	8851      	ldrh	r1, [r2, #2]
10003554:	e000      	b.n	10003558 <cdcd_control_xfer_cb+0x44>
10003556:	bf00      	nop
10003558:	e018      	b.n	1000358c <cdcd_control_xfer_cb+0x78>
1000355a:	2901      	cmp	r1, #1
1000355c:	d025      	beq.n	100035aa <cdcd_control_xfer_cb+0x96>
1000355e:	2903      	cmp	r1, #3
10003560:	d114      	bne.n	1000358c <cdcd_control_xfer_cb+0x78>
10003562:	8855      	ldrh	r5, [r2, #2]
10003564:	4819      	ldr	r0, [pc, #100]	; (100035cc <cdcd_control_xfer_cb+0xb8>)
10003566:	f005 0601 	and.w	r6, r5, #1
1000356a:	f086 0101 	eor.w	r1, r6, #1
1000356e:	7125      	strb	r5, [r4, #4]
10003570:	f000 fdca 	bl	10004108 <tu_fifo_set_overwritable>
10003574:	4b16      	ldr	r3, [pc, #88]	; (100035d0 <cdcd_control_xfer_cb+0xbc>)
10003576:	b14b      	cbz	r3, 1000358c <cdcd_control_xfer_cb+0x78>
10003578:	4631      	mov	r1, r6
1000357a:	2000      	movs	r0, #0
1000357c:	f3c5 0240 	ubfx	r2, r5, #1, #1
10003580:	e000      	b.n	10003584 <cdcd_control_xfer_cb+0x70>
10003582:	bf00      	nop
10003584:	2001      	movs	r0, #1
10003586:	bd70      	pop	{r4, r5, r6, pc}
10003588:	2901      	cmp	r1, #1
1000358a:	d013      	beq.n	100035b4 <cdcd_control_xfer_cb+0xa0>
1000358c:	2001      	movs	r0, #1
1000358e:	bd70      	pop	{r4, r5, r6, pc}
10003590:	2901      	cmp	r1, #1
10003592:	d00f      	beq.n	100035b4 <cdcd_control_xfer_cb+0xa0>
10003594:	2903      	cmp	r1, #3
10003596:	d1f9      	bne.n	1000358c <cdcd_control_xfer_cb+0x78>
10003598:	4b0e      	ldr	r3, [pc, #56]	; (100035d4 <cdcd_control_xfer_cb+0xc0>)
1000359a:	2b00      	cmp	r3, #0
1000359c:	d0f6      	beq.n	1000358c <cdcd_control_xfer_cb+0x78>
1000359e:	2000      	movs	r0, #0
100035a0:	490d      	ldr	r1, [pc, #52]	; (100035d8 <cdcd_control_xfer_cb+0xc4>)
100035a2:	f7fe fa79 	bl	10001a98 <tud_cdc_line_coding_cb>
100035a6:	2001      	movs	r0, #1
100035a8:	bd70      	pop	{r4, r5, r6, pc}
100035aa:	4611      	mov	r1, r2
100035ac:	f7ff fca6 	bl	10002efc <tud_control_status>
100035b0:	2001      	movs	r0, #1
100035b2:	bd70      	pop	{r4, r5, r6, pc}
100035b4:	4611      	mov	r1, r2
100035b6:	2307      	movs	r3, #7
100035b8:	4a07      	ldr	r2, [pc, #28]	; (100035d8 <cdcd_control_xfer_cb+0xc4>)
100035ba:	f7ff fcb9 	bl	10002f30 <tud_control_xfer>
100035be:	2001      	movs	r0, #1
100035c0:	bd70      	pop	{r4, r5, r6, pc}
100035c2:	bf00      	nop
100035c4:	200014b4 	.word	0x200014b4
100035c8:	00000000 	.word	0x00000000
100035cc:	200014d8 	.word	0x200014d8
100035d0:	00000000 	.word	0x00000000
100035d4:	10001a99 	.word	0x10001a99
100035d8:	200014bc 	.word	0x200014bc

100035dc <cdcd_xfer_cb>:
100035dc:	e92d 47f0 	stmdb	sp!, {r4, r5, r6, r7, r8, r9, sl, lr}
100035e0:	4d37      	ldr	r5, [pc, #220]	; (100036c0 <cdcd_xfer_cb+0xe4>)
100035e2:	460c      	mov	r4, r1
100035e4:	78ea      	ldrb	r2, [r5, #3]
100035e6:	4607      	mov	r7, r0
100035e8:	428a      	cmp	r2, r1
100035ea:	461e      	mov	r6, r3
100035ec:	d155      	bne.n	1000369a <cdcd_xfer_cb+0xbe>
100035ee:	f8df 80e8 	ldr.w	r8, [pc, #232]	; 100036d8 <cdcd_xfer_cb+0xfc>
100035f2:	b29a      	uxth	r2, r3
100035f4:	4641      	mov	r1, r8
100035f6:	f105 0010 	add.w	r0, r5, #16
100035fa:	f000 fcbb 	bl	10003f74 <tu_fifo_write_n>
100035fe:	4b31      	ldr	r3, [pc, #196]	; (100036c4 <cdcd_xfer_cb+0xe8>)
10003600:	b1c3      	cbz	r3, 10003634 <cdcd_xfer_cb+0x58>
10003602:	796b      	ldrb	r3, [r5, #5]
10003604:	2bff      	cmp	r3, #255	; 0xff
10003606:	d015      	beq.n	10003634 <cdcd_xfer_cb+0x58>
10003608:	b1a6      	cbz	r6, 10003634 <cdcd_xfer_cb+0x58>
1000360a:	f105 0910 	add.w	r9, r5, #16
1000360e:	eb08 0a06 	add.w	sl, r8, r6
10003612:	e002      	b.n	1000361a <cdcd_xfer_cb+0x3e>
10003614:	45d0      	cmp	r8, sl
10003616:	d00d      	beq.n	10003634 <cdcd_xfer_cb+0x58>
10003618:	796b      	ldrb	r3, [r5, #5]
1000361a:	f818 2b01 	ldrb.w	r2, [r8], #1
1000361e:	429a      	cmp	r2, r3
10003620:	d1f8      	bne.n	10003614 <cdcd_xfer_cb+0x38>
10003622:	4648      	mov	r0, r9
10003624:	f000 fb94 	bl	10003d50 <tu_fifo_empty>
10003628:	2800      	cmp	r0, #0
1000362a:	d1f3      	bne.n	10003614 <cdcd_xfer_cb+0x38>
1000362c:	7969      	ldrb	r1, [r5, #5]
1000362e:	e000      	b.n	10003632 <cdcd_xfer_cb+0x56>
10003630:	bf00      	nop
10003632:	e7ef      	b.n	10003614 <cdcd_xfer_cb+0x38>
10003634:	4b24      	ldr	r3, [pc, #144]	; (100036c8 <cdcd_xfer_cb+0xec>)
10003636:	b123      	cbz	r3, 10003642 <cdcd_xfer_cb+0x66>
10003638:	4824      	ldr	r0, [pc, #144]	; (100036cc <cdcd_xfer_cb+0xf0>)
1000363a:	f000 fb89 	bl	10003d50 <tu_fifo_empty>
1000363e:	2800      	cmp	r0, #0
10003640:	d03a      	beq.n	100036b8 <cdcd_xfer_cb+0xdc>
10003642:	2000      	movs	r0, #0
10003644:	f7ff fd80 	bl	10003148 <_prep_out_transaction.isra.0>
10003648:	78ab      	ldrb	r3, [r5, #2]
1000364a:	42a3      	cmp	r3, r4
1000364c:	d003      	beq.n	10003656 <cdcd_xfer_cb+0x7a>
1000364e:	2401      	movs	r4, #1
10003650:	4620      	mov	r0, r4
10003652:	e8bd 87f0 	ldmia.w	sp!, {r4, r5, r6, r7, r8, r9, sl, pc}
10003656:	4b1e      	ldr	r3, [pc, #120]	; (100036d0 <cdcd_xfer_cb+0xf4>)
10003658:	b113      	cbz	r3, 10003660 <cdcd_xfer_cb+0x84>
1000365a:	2000      	movs	r0, #0
1000365c:	e000      	b.n	10003660 <cdcd_xfer_cb+0x84>
1000365e:	bf00      	nop
10003660:	2000      	movs	r0, #0
10003662:	f7ff fe17 	bl	10003294 <tud_cdc_n_write_flush>
10003666:	2800      	cmp	r0, #0
10003668:	d1f1      	bne.n	1000364e <cdcd_xfer_cb+0x72>
1000366a:	481a      	ldr	r0, [pc, #104]	; (100036d4 <cdcd_xfer_cb+0xf8>)
1000366c:	f000 fb60 	bl	10003d30 <tu_fifo_count>
10003670:	2800      	cmp	r0, #0
10003672:	d1ec      	bne.n	1000364e <cdcd_xfer_cb+0x72>
10003674:	2e00      	cmp	r6, #0
10003676:	d0ea      	beq.n	1000364e <cdcd_xfer_cb+0x72>
10003678:	f016 063f 	ands.w	r6, r6, #63	; 0x3f
1000367c:	d1e7      	bne.n	1000364e <cdcd_xfer_cb+0x72>
1000367e:	4638      	mov	r0, r7
10003680:	78a9      	ldrb	r1, [r5, #2]
10003682:	f7ff fbdf 	bl	10002e44 <usbd_edpt_claim>
10003686:	4604      	mov	r4, r0
10003688:	2800      	cmp	r0, #0
1000368a:	d0e0      	beq.n	1000364e <cdcd_xfer_cb+0x72>
1000368c:	4633      	mov	r3, r6
1000368e:	4632      	mov	r2, r6
10003690:	4638      	mov	r0, r7
10003692:	78a9      	ldrb	r1, [r5, #2]
10003694:	f7ff fbfa 	bl	10002e8c <usbd_edpt_xfer>
10003698:	e7da      	b.n	10003650 <cdcd_xfer_cb+0x74>
1000369a:	78ab      	ldrb	r3, [r5, #2]
1000369c:	428b      	cmp	r3, r1
1000369e:	d0da      	beq.n	10003656 <cdcd_xfer_cb+0x7a>
100036a0:	f04f 23e0 	mov.w	r3, #3758153728	; 0xe000e000
100036a4:	f8d3 4df0 	ldr.w	r4, [r3, #3568]	; 0xdf0
100036a8:	f014 0401 	ands.w	r4, r4, #1
100036ac:	d0d0      	beq.n	10003650 <cdcd_xfer_cb+0x74>
100036ae:	be00      	bkpt	0x0000
100036b0:	2400      	movs	r4, #0
100036b2:	4620      	mov	r0, r4
100036b4:	e8bd 87f0 	ldmia.w	sp!, {r4, r5, r6, r7, r8, r9, sl, pc}
100036b8:	e000      	b.n	100036bc <cdcd_xfer_cb+0xe0>
100036ba:	bf00      	nop
100036bc:	e7c1      	b.n	10003642 <cdcd_xfer_cb+0x66>
100036be:	bf00      	nop
100036c0:	200014b4 	.word	0x200014b4
	...
100036cc:	200014c4 	.word	0x200014c4
100036d0:	00000000 	.word	0x00000000
100036d4:	200014d8 	.word	0x200014d8
100036d8:	20001430 	.word	0x20001430

100036dc <vendord_init>:
100036dc:	b5f0      	push	{r4, r5, r6, r7, lr}
100036de:	4c14      	ldr	r4, [pc, #80]	; (10003730 <vendord_init+0x54>)
100036e0:	b085      	sub	sp, #20
100036e2:	f44f 7213 	mov.w	r2, #588	; 0x24c
100036e6:	2100      	movs	r1, #0
100036e8:	4620      	mov	r0, r4
100036ea:	f003 f8b5 	bl	10006858 <memset>
100036ee:	2740      	movs	r7, #64	; 0x40
100036f0:	2300      	movs	r3, #0
100036f2:	f44f 7680 	mov.w	r6, #256	; 0x100
100036f6:	4d0f      	ldr	r5, [pc, #60]	; (10003734 <vendord_init+0x58>)
100036f8:	f504 72a6 	add.w	r2, r4, #332	; 0x14c
100036fc:	4619      	mov	r1, r3
100036fe:	9502      	str	r5, [sp, #8]
10003700:	9200      	str	r2, [sp, #0]
10003702:	f504 7094 	add.w	r0, r4, #296	; 0x128
10003706:	461a      	mov	r2, r3
10003708:	9703      	str	r7, [sp, #12]
1000370a:	9601      	str	r6, [sp, #4]
1000370c:	f000 f9d8 	bl	10003ac0 <tu_edpt_stream_init>
10003710:	2300      	movs	r3, #0
10003712:	f104 0228 	add.w	r2, r4, #40	; 0x28
10003716:	443d      	add	r5, r7
10003718:	9200      	str	r2, [sp, #0]
1000371a:	4619      	mov	r1, r3
1000371c:	2201      	movs	r2, #1
1000371e:	e9cd 5702 	strd	r5, r7, [sp, #8]
10003722:	9601      	str	r6, [sp, #4]
10003724:	1d20      	adds	r0, r4, #4
10003726:	f000 f9cb 	bl	10003ac0 <tu_edpt_stream_init>
1000372a:	b005      	add	sp, #20
1000372c:	bdf0      	pop	{r4, r5, r6, r7, pc}
1000372e:	bf00      	nop
10003730:	20001798 	.word	0x20001798
10003734:	20001718 	.word	0x20001718

10003738 <vendord_deinit>:
10003738:	b510      	push	{r4, lr}
1000373a:	4c05      	ldr	r4, [pc, #20]	; (10003750 <vendord_deinit+0x18>)
1000373c:	f504 7094 	add.w	r0, r4, #296	; 0x128
10003740:	f000 f9ea 	bl	10003b18 <tu_edpt_stream_deinit>
10003744:	1d20      	adds	r0, r4, #4
10003746:	f000 f9e7 	bl	10003b18 <tu_edpt_stream_deinit>
1000374a:	2001      	movs	r0, #1
1000374c:	bd10      	pop	{r4, pc}
1000374e:	bf00      	nop
10003750:	20001798 	.word	0x20001798

10003754 <vendord_reset>:
10003754:	b538      	push	{r3, r4, r5, lr}
10003756:	2500      	movs	r5, #0
10003758:	4c06      	ldr	r4, [pc, #24]	; (10003774 <vendord_reset+0x20>)
1000375a:	f504 7098 	add.w	r0, r4, #304	; 0x130
1000375e:	7025      	strb	r5, [r4, #0]
10003760:	f000 fcb6 	bl	100040d0 <tu_fifo_clear>
10003764:	f104 000c 	add.w	r0, r4, #12
10003768:	f000 fcb2 	bl	100040d0 <tu_fifo_clear>
1000376c:	f884 5129 	strb.w	r5, [r4, #297]	; 0x129
10003770:	7165      	strb	r5, [r4, #5]
10003772:	bd38      	pop	{r3, r4, r5, pc}
10003774:	20001798 	.word	0x20001798

10003778 <vendord_open>:
10003778:	e92d 4ff8 	stmdb	sp!, {r3, r4, r5, r6, r7, r8, r9, sl, fp, lr}
1000377c:	794b      	ldrb	r3, [r1, #5]
1000377e:	2bff      	cmp	r3, #255	; 0xff
10003780:	d150      	bne.n	10003824 <vendord_open+0xac>
10003782:	4d39      	ldr	r5, [pc, #228]	; (10003868 <vendord_open+0xf0>)
10003784:	780c      	ldrb	r4, [r1, #0]
10003786:	f895 3129 	ldrb.w	r3, [r5, #297]	; 0x129
1000378a:	796e      	ldrb	r6, [r5, #5]
1000378c:	440c      	add	r4, r1
1000378e:	431e      	orrs	r6, r3
10003790:	460f      	mov	r7, r1
10003792:	eb04 0b02 	add.w	fp, r4, r2
10003796:	d145      	bne.n	10003824 <vendord_open+0xac>
10003798:	788b      	ldrb	r3, [r1, #2]
1000379a:	702b      	strb	r3, [r5, #0]
1000379c:	790b      	ldrb	r3, [r1, #4]
1000379e:	2b00      	cmp	r3, #0
100037a0:	d03c      	beq.n	1000381c <vendord_open+0xa4>
100037a2:	4680      	mov	r8, r0
100037a4:	f505 7998 	add.w	r9, r5, #304	; 0x130
100037a8:	f105 0a0c 	add.w	sl, r5, #12
100037ac:	7863      	ldrb	r3, [r4, #1]
100037ae:	2b05      	cmp	r3, #5
100037b0:	d009      	beq.n	100037c6 <vendord_open+0x4e>
100037b2:	45a3      	cmp	fp, r4
100037b4:	d802      	bhi.n	100037bc <vendord_open+0x44>
100037b6:	e031      	b.n	1000381c <vendord_open+0xa4>
100037b8:	455c      	cmp	r4, fp
100037ba:	d22f      	bcs.n	1000381c <vendord_open+0xa4>
100037bc:	7823      	ldrb	r3, [r4, #0]
100037be:	441c      	add	r4, r3
100037c0:	7863      	ldrb	r3, [r4, #1]
100037c2:	2b05      	cmp	r3, #5
100037c4:	d1f8      	bne.n	100037b8 <vendord_open+0x40>
100037c6:	45a3      	cmp	fp, r4
100037c8:	d928      	bls.n	1000381c <vendord_open+0xa4>
100037ca:	4621      	mov	r1, r4
100037cc:	4640      	mov	r0, r8
100037ce:	f7ff fb17 	bl	10002e00 <usbd_edpt_open>
100037d2:	2800      	cmp	r0, #0
100037d4:	d03f      	beq.n	10003856 <vendord_open+0xde>
100037d6:	78a3      	ldrb	r3, [r4, #2]
100037d8:	09db      	lsrs	r3, r3, #7
100037da:	d126      	bne.n	1000382a <vendord_open+0xb2>
100037dc:	4648      	mov	r0, r9
100037de:	f000 fc77 	bl	100040d0 <tu_fifo_clear>
100037e2:	78a3      	ldrb	r3, [r4, #2]
100037e4:	f895 2128 	ldrb.w	r2, [r5, #296]	; 0x128
100037e8:	f885 3129 	strb.w	r3, [r5, #297]	; 0x129
100037ec:	88a3      	ldrh	r3, [r4, #4]
100037ee:	4640      	mov	r0, r8
100037f0:	f3c3 030a 	ubfx	r3, r3, #0, #11
100037f4:	f5a3 7300 	sub.w	r3, r3, #512	; 0x200
100037f8:	fab3 f383 	clz	r3, r3
100037fc:	095b      	lsrs	r3, r3, #5
100037fe:	f363 0241 	bfi	r2, r3, #1, #1
10003802:	491a      	ldr	r1, [pc, #104]	; (1000386c <vendord_open+0xf4>)
10003804:	f885 2128 	strb.w	r2, [r5, #296]	; 0x128
10003808:	f000 f9f6 	bl	10003bf8 <tu_edpt_stream_read_xfer>
1000380c:	b318      	cbz	r0, 10003856 <vendord_open+0xde>
1000380e:	793a      	ldrb	r2, [r7, #4]
10003810:	3601      	adds	r6, #1
10003812:	7821      	ldrb	r1, [r4, #0]
10003814:	b2f3      	uxtb	r3, r6
10003816:	429a      	cmp	r2, r3
10003818:	440c      	add	r4, r1
1000381a:	d8c7      	bhi.n	100037ac <vendord_open+0x34>
1000381c:	1be0      	subs	r0, r4, r7
1000381e:	b280      	uxth	r0, r0
10003820:	e8bd 8ff8 	ldmia.w	sp!, {r3, r4, r5, r6, r7, r8, r9, sl, fp, pc}
10003824:	2000      	movs	r0, #0
10003826:	e8bd 8ff8 	ldmia.w	sp!, {r3, r4, r5, r6, r7, r8, r9, sl, fp, pc}
1000382a:	4650      	mov	r0, sl
1000382c:	f000 fc50 	bl	100040d0 <tu_fifo_clear>
10003830:	78a3      	ldrb	r3, [r4, #2]
10003832:	792a      	ldrb	r2, [r5, #4]
10003834:	716b      	strb	r3, [r5, #5]
10003836:	88a3      	ldrh	r3, [r4, #4]
10003838:	490d      	ldr	r1, [pc, #52]	; (10003870 <vendord_open+0xf8>)
1000383a:	f3c3 030a 	ubfx	r3, r3, #0, #11
1000383e:	f5a3 7300 	sub.w	r3, r3, #512	; 0x200
10003842:	fab3 f383 	clz	r3, r3
10003846:	095b      	lsrs	r3, r3, #5
10003848:	f363 0241 	bfi	r2, r3, #1, #1
1000384c:	2000      	movs	r0, #0
1000384e:	712a      	strb	r2, [r5, #4]
10003850:	f000 f998 	bl	10003b84 <tu_edpt_stream_write_xfer>
10003854:	e7db      	b.n	1000380e <vendord_open+0x96>
10003856:	f04f 23e0 	mov.w	r3, #3758153728	; 0xe000e000
1000385a:	f8d3 3df0 	ldr.w	r3, [r3, #3568]	; 0xdf0
1000385e:	07db      	lsls	r3, r3, #31
10003860:	d5e0      	bpl.n	10003824 <vendord_open+0xac>
10003862:	be00      	bkpt	0x0000
10003864:	e7df      	b.n	10003826 <vendord_open+0xae>
10003866:	bf00      	nop
10003868:	20001798 	.word	0x20001798
1000386c:	200018c0 	.word	0x200018c0
10003870:	2000179c 	.word	0x2000179c

10003874 <vendord_xfer_cb>:
10003874:	b570      	push	{r4, r5, r6, lr}
10003876:	4c1c      	ldr	r4, [pc, #112]	; (100038e8 <vendord_xfer_cb+0x74>)
10003878:	4606      	mov	r6, r0
1000387a:	f894 c129 	ldrb.w	ip, [r4, #297]	; 0x129
1000387e:	461d      	mov	r5, r3
10003880:	458c      	cmp	ip, r1
10003882:	d117      	bne.n	100038b4 <vendord_xfer_cb+0x40>
10003884:	f8b4 3134 	ldrh.w	r3, [r4, #308]	; 0x134
10003888:	b963      	cbnz	r3, 100038a4 <vendord_xfer_cb+0x30>
1000388a:	4b18      	ldr	r3, [pc, #96]	; (100038ec <vendord_xfer_cb+0x78>)
1000388c:	b123      	cbz	r3, 10003898 <vendord_xfer_cb+0x24>
1000388e:	2000      	movs	r0, #0
10003890:	4917      	ldr	r1, [pc, #92]	; (100038f0 <vendord_xfer_cb+0x7c>)
10003892:	b2aa      	uxth	r2, r5
10003894:	e000      	b.n	10003898 <vendord_xfer_cb+0x24>
10003896:	bf00      	nop
10003898:	4630      	mov	r0, r6
1000389a:	4916      	ldr	r1, [pc, #88]	; (100038f4 <vendord_xfer_cb+0x80>)
1000389c:	f000 f9ac 	bl	10003bf8 <tu_edpt_stream_read_xfer>
100038a0:	2001      	movs	r0, #1
100038a2:	bd70      	pop	{r4, r5, r6, pc}
100038a4:	f8d4 112c 	ldr.w	r1, [r4, #300]	; 0x12c
100038a8:	b2aa      	uxth	r2, r5
100038aa:	f504 7098 	add.w	r0, r4, #304	; 0x130
100038ae:	f000 fb61 	bl	10003f74 <tu_fifo_write_n>
100038b2:	e7ea      	b.n	1000388a <vendord_xfer_cb+0x16>
100038b4:	7963      	ldrb	r3, [r4, #5]
100038b6:	428b      	cmp	r3, r1
100038b8:	d001      	beq.n	100038be <vendord_xfer_cb+0x4a>
100038ba:	2000      	movs	r0, #0
100038bc:	bd70      	pop	{r4, r5, r6, pc}
100038be:	4b0e      	ldr	r3, [pc, #56]	; (100038f8 <vendord_xfer_cb+0x84>)
100038c0:	b11b      	cbz	r3, 100038ca <vendord_xfer_cb+0x56>
100038c2:	2000      	movs	r0, #0
100038c4:	b2a9      	uxth	r1, r5
100038c6:	e000      	b.n	100038ca <vendord_xfer_cb+0x56>
100038c8:	bf00      	nop
100038ca:	4630      	mov	r0, r6
100038cc:	490b      	ldr	r1, [pc, #44]	; (100038fc <vendord_xfer_cb+0x88>)
100038ce:	f000 f959 	bl	10003b84 <tu_edpt_stream_write_xfer>
100038d2:	b108      	cbz	r0, 100038d8 <vendord_xfer_cb+0x64>
100038d4:	2001      	movs	r0, #1
100038d6:	bd70      	pop	{r4, r5, r6, pc}
100038d8:	462a      	mov	r2, r5
100038da:	4630      	mov	r0, r6
100038dc:	4907      	ldr	r1, [pc, #28]	; (100038fc <vendord_xfer_cb+0x88>)
100038de:	f000 f91d 	bl	10003b1c <tu_edpt_stream_write_zlp_if_needed>
100038e2:	2001      	movs	r0, #1
100038e4:	bd70      	pop	{r4, r5, r6, pc}
100038e6:	bf00      	nop
100038e8:	20001798 	.word	0x20001798
100038ec:	00000000 	.word	0x00000000
100038f0:	20001718 	.word	0x20001718
100038f4:	200018c0 	.word	0x200018c0
100038f8:	00000000 	.word	0x00000000
100038fc:	2000179c 	.word	0x2000179c

10003900 <tusb_rhport_init>:
10003900:	b510      	push	{r4, lr}
10003902:	b082      	sub	sp, #8
10003904:	b1a9      	cbz	r1, 10003932 <tusb_rhport_init+0x32>
10003906:	2801      	cmp	r0, #1
10003908:	d808      	bhi.n	1000391c <tusb_rhport_init+0x1c>
1000390a:	780b      	ldrb	r3, [r1, #0]
1000390c:	b133      	cbz	r3, 1000391c <tusb_rhport_init+0x1c>
1000390e:	4c18      	ldr	r4, [pc, #96]	; (10003970 <tusb_rhport_init+0x70>)
10003910:	2b01      	cmp	r3, #1
10003912:	5423      	strb	r3, [r4, r0]
10003914:	d020      	beq.n	10003958 <tusb_rhport_init+0x58>
10003916:	2001      	movs	r0, #1
10003918:	b002      	add	sp, #8
1000391a:	bd10      	pop	{r4, pc}
1000391c:	f04f 23e0 	mov.w	r3, #3758153728	; 0xe000e000
10003920:	f8d3 3df0 	ldr.w	r3, [r3, #3568]	; 0xdf0
10003924:	07da      	lsls	r2, r3, #31
10003926:	d402      	bmi.n	1000392e <tusb_rhport_init+0x2e>
10003928:	2000      	movs	r0, #0
1000392a:	b002      	add	sp, #8
1000392c:	bd10      	pop	{r4, pc}
1000392e:	be00      	bkpt	0x0000
10003930:	e7fa      	b.n	10003928 <tusb_rhport_init+0x28>
10003932:	2401      	movs	r4, #1
10003934:	4608      	mov	r0, r1
10003936:	a901      	add	r1, sp, #4
10003938:	f8ad 4004 	strh.w	r4, [sp, #4]
1000393c:	f7fe fdb8 	bl	100024b0 <tud_rhport_init>
10003940:	b938      	cbnz	r0, 10003952 <tusb_rhport_init+0x52>
10003942:	f04f 23e0 	mov.w	r3, #3758153728	; 0xe000e000
10003946:	f8d3 3df0 	ldr.w	r3, [r3, #3568]	; 0xdf0
1000394a:	07d9      	lsls	r1, r3, #31
1000394c:	d5ed      	bpl.n	1000392a <tusb_rhport_init+0x2a>
1000394e:	be00      	bkpt	0x0000
10003950:	e7eb      	b.n	1000392a <tusb_rhport_init+0x2a>
10003952:	4b07      	ldr	r3, [pc, #28]	; (10003970 <tusb_rhport_init+0x70>)
10003954:	701c      	strb	r4, [r3, #0]
10003956:	e7e8      	b.n	1000392a <tusb_rhport_init+0x2a>
10003958:	f7fe fdaa 	bl	100024b0 <tud_rhport_init>
1000395c:	2800      	cmp	r0, #0
1000395e:	d1da      	bne.n	10003916 <tusb_rhport_init+0x16>
10003960:	f04f 23e0 	mov.w	r3, #3758153728	; 0xe000e000
10003964:	f8d3 3df0 	ldr.w	r3, [r3, #3568]	; 0xdf0
10003968:	07db      	lsls	r3, r3, #31
1000396a:	d5dd      	bpl.n	10003928 <tusb_rhport_init+0x28>
1000396c:	e7ef      	b.n	1000394e <tusb_rhport_init+0x4e>
1000396e:	bf00      	nop
10003970:	200015f0 	.word	0x200015f0

10003974 <tu_edpt_claim>:
10003974:	b5f8      	push	{r3, r4, r5, r6, r7, lr}
10003976:	7803      	ldrb	r3, [r0, #0]
10003978:	f013 0401 	ands.w	r4, r3, #1
1000397c:	d11a      	bne.n	100039b4 <tu_edpt_claim+0x40>
1000397e:	7803      	ldrb	r3, [r0, #0]
10003980:	4605      	mov	r5, r0
10003982:	075a      	lsls	r2, r3, #29
10003984:	f3c3 0780 	ubfx	r7, r3, #2, #1
10003988:	d501      	bpl.n	1000398e <tu_edpt_claim+0x1a>
1000398a:	4620      	mov	r0, r4
1000398c:	bdf8      	pop	{r3, r4, r5, r6, r7, pc}
1000398e:	460e      	mov	r6, r1
10003990:	f04f 31ff 	mov.w	r1, #4294967295
10003994:	4630      	mov	r0, r6
10003996:	f003 f803 	bl	100069a0 <__mutex_enter_timeout_ms_veneer>
1000399a:	782b      	ldrb	r3, [r5, #0]
1000399c:	f013 0401 	ands.w	r4, r3, #1
100039a0:	d10b      	bne.n	100039ba <tu_edpt_claim+0x46>
100039a2:	782b      	ldrb	r3, [r5, #0]
100039a4:	075b      	lsls	r3, r3, #29
100039a6:	d409      	bmi.n	100039bc <tu_edpt_claim+0x48>
100039a8:	782b      	ldrb	r3, [r5, #0]
100039aa:	2401      	movs	r4, #1
100039ac:	f043 0304 	orr.w	r3, r3, #4
100039b0:	702b      	strb	r3, [r5, #0]
100039b2:	e003      	b.n	100039bc <tu_edpt_claim+0x48>
100039b4:	2400      	movs	r4, #0
100039b6:	4620      	mov	r0, r4
100039b8:	bdf8      	pop	{r3, r4, r5, r6, r7, pc}
100039ba:	463c      	mov	r4, r7
100039bc:	4630      	mov	r0, r6
100039be:	f002 ffdf 	bl	10006980 <__mutex_exit_veneer>
100039c2:	4620      	mov	r0, r4
100039c4:	bdf8      	pop	{r3, r4, r5, r6, r7, pc}
100039c6:	bf00      	nop

100039c8 <tu_edpt_release>:
100039c8:	b570      	push	{r4, r5, r6, lr}
100039ca:	460d      	mov	r5, r1
100039cc:	4604      	mov	r4, r0
100039ce:	f04f 31ff 	mov.w	r1, #4294967295
100039d2:	4628      	mov	r0, r5
100039d4:	f002 ffe4 	bl	100069a0 <__mutex_enter_timeout_ms_veneer>
100039d8:	7823      	ldrb	r3, [r4, #0]
100039da:	f3c3 0680 	ubfx	r6, r3, #2, #1
100039de:	075b      	lsls	r3, r3, #29
100039e0:	d508      	bpl.n	100039f4 <tu_edpt_release+0x2c>
100039e2:	7823      	ldrb	r3, [r4, #0]
100039e4:	f013 0201 	ands.w	r2, r3, #1
100039e8:	bf11      	iteee	ne
100039ea:	2600      	movne	r6, #0
100039ec:	7823      	ldrbeq	r3, [r4, #0]
100039ee:	f362 0382 	bfieq	r3, r2, #2, #1
100039f2:	7023      	strbeq	r3, [r4, #0]
100039f4:	4628      	mov	r0, r5
100039f6:	f002 ffc3 	bl	10006980 <__mutex_exit_veneer>
100039fa:	4630      	mov	r0, r6
100039fc:	bd70      	pop	{r4, r5, r6, pc}
100039fe:	bf00      	nop

10003a00 <tu_edpt_validate>:
10003a00:	78c3      	ldrb	r3, [r0, #3]
10003a02:	8882      	ldrh	r2, [r0, #4]
10003a04:	f003 0003 	and.w	r0, r3, #3
10003a08:	2802      	cmp	r0, #2
10003a0a:	f3c2 020a 	ubfx	r2, r2, #0, #11
10003a0e:	d005      	beq.n	10003a1c <tu_edpt_validate+0x1c>
10003a10:	2803      	cmp	r0, #3
10003a12:	d01b      	beq.n	10003a4c <tu_edpt_validate+0x4c>
10003a14:	2801      	cmp	r0, #1
10003a16:	d007      	beq.n	10003a28 <tu_edpt_validate+0x28>
10003a18:	2000      	movs	r0, #0
10003a1a:	4770      	bx	lr
10003a1c:	2902      	cmp	r1, #2
10003a1e:	d01e      	beq.n	10003a5e <tu_edpt_validate+0x5e>
10003a20:	2a40      	cmp	r2, #64	; 0x40
10003a22:	d809      	bhi.n	10003a38 <tu_edpt_validate+0x38>
10003a24:	2001      	movs	r0, #1
10003a26:	4770      	bx	lr
10003a28:	2902      	cmp	r1, #2
10003a2a:	f240 33ff 	movw	r3, #1023	; 0x3ff
10003a2e:	bf08      	it	eq
10003a30:	f44f 6380 	moveq.w	r3, #1024	; 0x400
10003a34:	4293      	cmp	r3, r2
10003a36:	d2f6      	bcs.n	10003a26 <tu_edpt_validate+0x26>
10003a38:	f04f 23e0 	mov.w	r3, #3758153728	; 0xe000e000
10003a3c:	f8d3 0df0 	ldr.w	r0, [r3, #3568]	; 0xdf0
10003a40:	f010 0001 	ands.w	r0, r0, #1
10003a44:	d0ef      	beq.n	10003a26 <tu_edpt_validate+0x26>
10003a46:	be00      	bkpt	0x0000
10003a48:	2000      	movs	r0, #0
10003a4a:	4770      	bx	lr
10003a4c:	2902      	cmp	r1, #2
10003a4e:	bf0c      	ite	eq
10003a50:	f44f 6380 	moveq.w	r3, #1024	; 0x400
10003a54:	2340      	movne	r3, #64	; 0x40
10003a56:	4293      	cmp	r3, r2
10003a58:	d3ee      	bcc.n	10003a38 <tu_edpt_validate+0x38>
10003a5a:	2001      	movs	r0, #1
10003a5c:	e7e3      	b.n	10003a26 <tu_edpt_validate+0x26>
10003a5e:	f5b2 7f00 	cmp.w	r2, #512	; 0x200
10003a62:	d0df      	beq.n	10003a24 <tu_edpt_validate+0x24>
10003a64:	e7e8      	b.n	10003a38 <tu_edpt_validate+0x38>
10003a66:	bf00      	nop

10003a68 <tu_edpt_bind_driver>:
10003a68:	440a      	add	r2, r1
10003a6a:	4291      	cmp	r1, r2
10003a6c:	d226      	bcs.n	10003abc <tu_edpt_bind_driver+0x54>
10003a6e:	f891 c001 	ldrb.w	ip, [r1, #1]
10003a72:	f1bc 0f05 	cmp.w	ip, #5
10003a76:	d005      	beq.n	10003a84 <tu_edpt_bind_driver+0x1c>
10003a78:	f891 c000 	ldrb.w	ip, [r1]
10003a7c:	4461      	add	r1, ip
10003a7e:	428a      	cmp	r2, r1
10003a80:	d8f5      	bhi.n	10003a6e <tu_edpt_bind_driver+0x6>
10003a82:	4770      	bx	lr
10003a84:	b500      	push	{lr}
10003a86:	f891 c002 	ldrb.w	ip, [r1, #2]
10003a8a:	f00c 0e7f 	and.w	lr, ip, #127	; 0x7f
10003a8e:	eb00 0e4e 	add.w	lr, r0, lr, lsl #1
10003a92:	ea4f 1cdc 	mov.w	ip, ip, lsr #7
10003a96:	f80e 300c 	strb.w	r3, [lr, ip]
10003a9a:	f891 c000 	ldrb.w	ip, [r1]
10003a9e:	4461      	add	r1, ip
10003aa0:	428a      	cmp	r2, r1
10003aa2:	d909      	bls.n	10003ab8 <tu_edpt_bind_driver+0x50>
10003aa4:	f891 c001 	ldrb.w	ip, [r1, #1]
10003aa8:	f1bc 0f05 	cmp.w	ip, #5
10003aac:	d0eb      	beq.n	10003a86 <tu_edpt_bind_driver+0x1e>
10003aae:	f891 c000 	ldrb.w	ip, [r1]
10003ab2:	4461      	add	r1, ip
10003ab4:	428a      	cmp	r2, r1
10003ab6:	d8f5      	bhi.n	10003aa4 <tu_edpt_bind_driver+0x3c>
10003ab8:	f85d fb04 	ldr.w	pc, [sp], #4
10003abc:	4770      	bx	lr
10003abe:	bf00      	nop

10003ac0 <tu_edpt_stream_init>:
10003ac0:	e92d 41f0 	stmdb	sp!, {r4, r5, r6, r7, r8, lr}
10003ac4:	468e      	mov	lr, r1
10003ac6:	b082      	sub	sp, #8
10003ac8:	9300      	str	r3, [sp, #0]
10003aca:	f890 c000 	ldrb.w	ip, [r0]
10003ace:	9e08      	ldr	r6, [sp, #32]
10003ad0:	f8bd 7024 	ldrh.w	r7, [sp, #36]	; 0x24
10003ad4:	f36e 0c00 	bfi	ip, lr, #0, #1
10003ad8:	4604      	mov	r4, r0
10003ada:	4615      	mov	r5, r2
10003adc:	2301      	movs	r3, #1
10003ade:	4631      	mov	r1, r6
10003ae0:	463a      	mov	r2, r7
10003ae2:	f800 cb08 	strb.w	ip, [r0], #8
10003ae6:	f8bd 802c 	ldrh.w	r8, [sp, #44]	; 0x2c
10003aea:	f000 f8ef 	bl	10003ccc <tu_fifo_config>
10003aee:	b106      	cbz	r6, 10003af2 <tu_edpt_stream_init+0x32>
10003af0:	b93f      	cbnz	r7, 10003b02 <tu_edpt_stream_init+0x42>
10003af2:	2001      	movs	r0, #1
10003af4:	9b0a      	ldr	r3, [sp, #40]	; 0x28
10003af6:	f8a4 8002 	strh.w	r8, [r4, #2]
10003afa:	6063      	str	r3, [r4, #4]
10003afc:	b002      	add	sp, #8
10003afe:	e8bd 81f0 	ldmia.w	sp!, {r4, r5, r6, r7, r8, pc}
10003b02:	f104 061c 	add.w	r6, r4, #28
10003b06:	4630      	mov	r0, r6
10003b08:	f7fc ff46 	bl	10000998 <mutex_init>
10003b0c:	b10d      	cbz	r5, 10003b12 <tu_edpt_stream_init+0x52>
10003b0e:	4635      	mov	r5, r6
10003b10:	2600      	movs	r6, #0
10003b12:	e9c4 5605 	strd	r5, r6, [r4, #20]
10003b16:	e7ec      	b.n	10003af2 <tu_edpt_stream_init+0x32>

10003b18 <tu_edpt_stream_deinit>:
10003b18:	2001      	movs	r0, #1
10003b1a:	4770      	bx	lr

10003b1c <tu_edpt_stream_write_zlp_if_needed>:
10003b1c:	b5f8      	push	{r3, r4, r5, r6, r7, lr}
10003b1e:	4607      	mov	r7, r0
10003b20:	4608      	mov	r0, r1
10003b22:	f240 13ff 	movw	r3, #511	; 0x1ff
10003b26:	4615      	mov	r5, r2
10003b28:	f810 2b08 	ldrb.w	r2, [r0], #8
10003b2c:	460c      	mov	r4, r1
10003b2e:	f012 0f02 	tst.w	r2, #2
10003b32:	bf14      	ite	ne
10003b34:	461e      	movne	r6, r3
10003b36:	263f      	moveq	r6, #63	; 0x3f
10003b38:	f000 f8fa 	bl	10003d30 <tu_fifo_count>
10003b3c:	b928      	cbnz	r0, 10003b4a <tu_edpt_stream_write_zlp_if_needed+0x2e>
10003b3e:	b125      	cbz	r5, 10003b4a <tu_edpt_stream_write_zlp_if_needed+0x2e>
10003b40:	4235      	tst	r5, r6
10003b42:	d102      	bne.n	10003b4a <tu_edpt_stream_write_zlp_if_needed+0x2e>
10003b44:	7823      	ldrb	r3, [r4, #0]
10003b46:	07da      	lsls	r2, r3, #31
10003b48:	d501      	bpl.n	10003b4e <tu_edpt_stream_write_zlp_if_needed+0x32>
10003b4a:	2000      	movs	r0, #0
10003b4c:	bdf8      	pop	{r3, r4, r5, r6, r7, pc}
10003b4e:	4638      	mov	r0, r7
10003b50:	7861      	ldrb	r1, [r4, #1]
10003b52:	f7ff f977 	bl	10002e44 <usbd_edpt_claim>
10003b56:	2800      	cmp	r0, #0
10003b58:	d0f7      	beq.n	10003b4a <tu_edpt_stream_write_zlp_if_needed+0x2e>
10003b5a:	7823      	ldrb	r3, [r4, #0]
10003b5c:	f013 0301 	ands.w	r3, r3, #1
10003b60:	d007      	beq.n	10003b72 <tu_edpt_stream_write_zlp_if_needed+0x56>
10003b62:	f04f 23e0 	mov.w	r3, #3758153728	; 0xe000e000
10003b66:	f8d3 3df0 	ldr.w	r3, [r3, #3568]	; 0xdf0
10003b6a:	07db      	lsls	r3, r3, #31
10003b6c:	d5ed      	bpl.n	10003b4a <tu_edpt_stream_write_zlp_if_needed+0x2e>
10003b6e:	be00      	bkpt	0x0000
10003b70:	e7eb      	b.n	10003b4a <tu_edpt_stream_write_zlp_if_needed+0x2e>
10003b72:	461a      	mov	r2, r3
10003b74:	4638      	mov	r0, r7
10003b76:	7861      	ldrb	r1, [r4, #1]
10003b78:	f7ff f988 	bl	10002e8c <usbd_edpt_xfer>
10003b7c:	2800      	cmp	r0, #0
10003b7e:	d0f0      	beq.n	10003b62 <tu_edpt_stream_write_zlp_if_needed+0x46>
10003b80:	bdf8      	pop	{r3, r4, r5, r6, r7, pc}
10003b82:	bf00      	nop

10003b84 <tu_edpt_stream_write_xfer>:
10003b84:	b570      	push	{r4, r5, r6, lr}
10003b86:	f101 0508 	add.w	r5, r1, #8
10003b8a:	4606      	mov	r6, r0
10003b8c:	4628      	mov	r0, r5
10003b8e:	460c      	mov	r4, r1
10003b90:	f000 f8ce 	bl	10003d30 <tu_fifo_count>
10003b94:	b110      	cbz	r0, 10003b9c <tu_edpt_stream_write_xfer+0x18>
10003b96:	7823      	ldrb	r3, [r4, #0]
10003b98:	07d9      	lsls	r1, r3, #31
10003b9a:	d501      	bpl.n	10003ba0 <tu_edpt_stream_write_xfer+0x1c>
10003b9c:	2000      	movs	r0, #0
10003b9e:	bd70      	pop	{r4, r5, r6, pc}
10003ba0:	4630      	mov	r0, r6
10003ba2:	7861      	ldrb	r1, [r4, #1]
10003ba4:	f7ff f94e 	bl	10002e44 <usbd_edpt_claim>
10003ba8:	2800      	cmp	r0, #0
10003baa:	d0f7      	beq.n	10003b9c <tu_edpt_stream_write_xfer+0x18>
10003bac:	4628      	mov	r0, r5
10003bae:	8862      	ldrh	r2, [r4, #2]
10003bb0:	6861      	ldr	r1, [r4, #4]
10003bb2:	f000 f933 	bl	10003e1c <tu_fifo_read_n>
10003bb6:	7823      	ldrb	r3, [r4, #0]
10003bb8:	4605      	mov	r5, r0
10003bba:	b148      	cbz	r0, 10003bd0 <tu_edpt_stream_write_xfer+0x4c>
10003bbc:	07da      	lsls	r2, r3, #31
10003bbe:	d510      	bpl.n	10003be2 <tu_edpt_stream_write_xfer+0x5e>
10003bc0:	f04f 23e0 	mov.w	r3, #3758153728	; 0xe000e000
10003bc4:	f8d3 3df0 	ldr.w	r3, [r3, #3568]	; 0xdf0
10003bc8:	07db      	lsls	r3, r3, #31
10003bca:	d5e7      	bpl.n	10003b9c <tu_edpt_stream_write_xfer+0x18>
10003bcc:	be00      	bkpt	0x0000
10003bce:	e7e5      	b.n	10003b9c <tu_edpt_stream_write_xfer+0x18>
10003bd0:	f013 0501 	ands.w	r5, r3, #1
10003bd4:	d1e2      	bne.n	10003b9c <tu_edpt_stream_write_xfer+0x18>
10003bd6:	4630      	mov	r0, r6
10003bd8:	7861      	ldrb	r1, [r4, #1]
10003bda:	f7ff f945 	bl	10002e68 <usbd_edpt_release>
10003bde:	4628      	mov	r0, r5
10003be0:	bd70      	pop	{r4, r5, r6, pc}
10003be2:	4603      	mov	r3, r0
10003be4:	6862      	ldr	r2, [r4, #4]
10003be6:	4630      	mov	r0, r6
10003be8:	7861      	ldrb	r1, [r4, #1]
10003bea:	f7ff f94f 	bl	10002e8c <usbd_edpt_xfer>
10003bee:	2800      	cmp	r0, #0
10003bf0:	d0e6      	beq.n	10003bc0 <tu_edpt_stream_write_xfer+0x3c>
10003bf2:	4628      	mov	r0, r5
10003bf4:	e7f4      	b.n	10003be0 <tu_edpt_stream_write_xfer+0x5c>
10003bf6:	bf00      	nop

10003bf8 <tu_edpt_stream_read_xfer>:
10003bf8:	898b      	ldrh	r3, [r1, #12]
10003bfa:	e92d 41f0 	stmdb	sp!, {r4, r5, r6, r7, r8, lr}
10003bfe:	460c      	mov	r4, r1
10003c00:	4605      	mov	r5, r0
10003c02:	b92b      	cbnz	r3, 10003c10 <tu_edpt_stream_read_xfer+0x18>
10003c04:	780b      	ldrb	r3, [r1, #0]
10003c06:	07de      	lsls	r6, r3, #31
10003c08:	d53d      	bpl.n	10003c86 <tu_edpt_stream_read_xfer+0x8e>
10003c0a:	2000      	movs	r0, #0
10003c0c:	e8bd 81f0 	ldmia.w	sp!, {r4, r5, r6, r7, r8, pc}
10003c10:	460e      	mov	r6, r1
10003c12:	f816 3b08 	ldrb.w	r3, [r6], #8
10003c16:	4a2c      	ldr	r2, [pc, #176]	; (10003cc8 <tu_edpt_stream_read_xfer+0xd0>)
10003c18:	f003 0302 	and.w	r3, r3, #2
10003c1c:	2b00      	cmp	r3, #0
10003c1e:	4630      	mov	r0, r6
10003c20:	bf15      	itete	ne
10003c22:	4690      	movne	r8, r2
10003c24:	f06f 083f 	mvneq.w	r8, #63	; 0x3f
10003c28:	f44f 7700 	movne.w	r7, #512	; 0x200
10003c2c:	2740      	moveq	r7, #64	; 0x40
10003c2e:	f000 f899 	bl	10003d64 <tu_fifo_remaining>
10003c32:	4287      	cmp	r7, r0
10003c34:	d8e9      	bhi.n	10003c0a <tu_edpt_stream_read_xfer+0x12>
10003c36:	7823      	ldrb	r3, [r4, #0]
10003c38:	07d9      	lsls	r1, r3, #31
10003c3a:	d4e6      	bmi.n	10003c0a <tu_edpt_stream_read_xfer+0x12>
10003c3c:	4628      	mov	r0, r5
10003c3e:	7861      	ldrb	r1, [r4, #1]
10003c40:	f7ff f900 	bl	10002e44 <usbd_edpt_claim>
10003c44:	2800      	cmp	r0, #0
10003c46:	d0e0      	beq.n	10003c0a <tu_edpt_stream_read_xfer+0x12>
10003c48:	4630      	mov	r0, r6
10003c4a:	f000 f88b 	bl	10003d64 <tu_fifo_remaining>
10003c4e:	4287      	cmp	r7, r0
10003c50:	7823      	ldrb	r3, [r4, #0]
10003c52:	d82b      	bhi.n	10003cac <tu_edpt_stream_read_xfer+0xb4>
10003c54:	07da      	lsls	r2, r3, #31
10003c56:	d40e      	bmi.n	10003c76 <tu_edpt_stream_read_xfer+0x7e>
10003c58:	8866      	ldrh	r6, [r4, #2]
10003c5a:	ea08 0200 	and.w	r2, r8, r0
10003c5e:	b290      	uxth	r0, r2
10003c60:	4286      	cmp	r6, r0
10003c62:	bf28      	it	cs
10003c64:	4606      	movcs	r6, r0
10003c66:	7861      	ldrb	r1, [r4, #1]
10003c68:	b35e      	cbz	r6, 10003cc2 <tu_edpt_stream_read_xfer+0xca>
10003c6a:	6862      	ldr	r2, [r4, #4]
10003c6c:	4633      	mov	r3, r6
10003c6e:	4628      	mov	r0, r5
10003c70:	f7ff f90c 	bl	10002e8c <usbd_edpt_xfer>
10003c74:	bb08      	cbnz	r0, 10003cba <tu_edpt_stream_read_xfer+0xc2>
10003c76:	f04f 23e0 	mov.w	r3, #3758153728	; 0xe000e000
10003c7a:	f8d3 3df0 	ldr.w	r3, [r3, #3568]	; 0xdf0
10003c7e:	07db      	lsls	r3, r3, #31
10003c80:	d5c3      	bpl.n	10003c0a <tu_edpt_stream_read_xfer+0x12>
10003c82:	be00      	bkpt	0x0000
10003c84:	e7c1      	b.n	10003c0a <tu_edpt_stream_read_xfer+0x12>
10003c86:	7849      	ldrb	r1, [r1, #1]
10003c88:	f7ff f8dc 	bl	10002e44 <usbd_edpt_claim>
10003c8c:	2800      	cmp	r0, #0
10003c8e:	d0bc      	beq.n	10003c0a <tu_edpt_stream_read_xfer+0x12>
10003c90:	7823      	ldrb	r3, [r4, #0]
10003c92:	07d8      	lsls	r0, r3, #31
10003c94:	d4ef      	bmi.n	10003c76 <tu_edpt_stream_read_xfer+0x7e>
10003c96:	8863      	ldrh	r3, [r4, #2]
10003c98:	7861      	ldrb	r1, [r4, #1]
10003c9a:	b183      	cbz	r3, 10003cbe <tu_edpt_stream_read_xfer+0xc6>
10003c9c:	6862      	ldr	r2, [r4, #4]
10003c9e:	4628      	mov	r0, r5
10003ca0:	f7ff f8f4 	bl	10002e8c <usbd_edpt_xfer>
10003ca4:	2800      	cmp	r0, #0
10003ca6:	d0e6      	beq.n	10003c76 <tu_edpt_stream_read_xfer+0x7e>
10003ca8:	8860      	ldrh	r0, [r4, #2]
10003caa:	e7af      	b.n	10003c0c <tu_edpt_stream_read_xfer+0x14>
10003cac:	f013 0601 	ands.w	r6, r3, #1
10003cb0:	d1ab      	bne.n	10003c0a <tu_edpt_stream_read_xfer+0x12>
10003cb2:	4628      	mov	r0, r5
10003cb4:	7861      	ldrb	r1, [r4, #1]
10003cb6:	f7ff f8d7 	bl	10002e68 <usbd_edpt_release>
10003cba:	4630      	mov	r0, r6
10003cbc:	e7a6      	b.n	10003c0c <tu_edpt_stream_read_xfer+0x14>
10003cbe:	461a      	mov	r2, r3
10003cc0:	e7ed      	b.n	10003c9e <tu_edpt_stream_read_xfer+0xa6>
10003cc2:	4632      	mov	r2, r6
10003cc4:	e7d2      	b.n	10003c6c <tu_edpt_stream_read_xfer+0x74>
10003cc6:	bf00      	nop
10003cc8:	fffffe00 	.word	0xfffffe00

10003ccc <tu_fifo_config>:
10003ccc:	e92d 41f0 	stmdb	sp!, {r4, r5, r6, r7, r8, lr}
10003cd0:	f5b2 4f00 	cmp.w	r2, #32768	; 0x8000
10003cd4:	f89d 8018 	ldrb.w	r8, [sp, #24]
10003cd8:	d827      	bhi.n	10003d2a <tu_fifo_config+0x5e>
10003cda:	4604      	mov	r4, r0
10003cdc:	68c0      	ldr	r0, [r0, #12]
10003cde:	4617      	mov	r7, r2
10003ce0:	460e      	mov	r6, r1
10003ce2:	461d      	mov	r5, r3
10003ce4:	b118      	cbz	r0, 10003cee <tu_fifo_config+0x22>
10003ce6:	f04f 31ff 	mov.w	r1, #4294967295
10003cea:	f002 fe59 	bl	100069a0 <__mutex_enter_timeout_ms_veneer>
10003cee:	6920      	ldr	r0, [r4, #16]
10003cf0:	b118      	cbz	r0, 10003cfa <tu_fifo_config+0x2e>
10003cf2:	f04f 31ff 	mov.w	r1, #4294967295
10003cf6:	f002 fe53 	bl	100069a0 <__mutex_enter_timeout_ms_veneer>
10003cfa:	2200      	movs	r2, #0
10003cfc:	f3c5 030e 	ubfx	r3, r5, #0, #15
10003d00:	68e0      	ldr	r0, [r4, #12]
10003d02:	ea43 33c8 	orr.w	r3, r3, r8, lsl #15
10003d06:	8162      	strh	r2, [r4, #10]
10003d08:	6026      	str	r6, [r4, #0]
10003d0a:	80a7      	strh	r7, [r4, #4]
10003d0c:	80e3      	strh	r3, [r4, #6]
10003d0e:	8122      	strh	r2, [r4, #8]
10003d10:	b108      	cbz	r0, 10003d16 <tu_fifo_config+0x4a>
10003d12:	f002 fe35 	bl	10006980 <__mutex_exit_veneer>
10003d16:	6920      	ldr	r0, [r4, #16]
10003d18:	b120      	cbz	r0, 10003d24 <tu_fifo_config+0x58>
10003d1a:	f002 fe31 	bl	10006980 <__mutex_exit_veneer>
10003d1e:	2001      	movs	r0, #1
10003d20:	e8bd 81f0 	ldmia.w	sp!, {r4, r5, r6, r7, r8, pc}
10003d24:	2001      	movs	r0, #1
10003d26:	e8bd 81f0 	ldmia.w	sp!, {r4, r5, r6, r7, r8, pc}
10003d2a:	2000      	movs	r0, #0
10003d2c:	e8bd 81f0 	ldmia.w	sp!, {r4, r5, r6, r7, r8, pc}

10003d30 <tu_fifo_count>:
10003d30:	8903      	ldrh	r3, [r0, #8]
10003d32:	8942      	ldrh	r2, [r0, #10]
10003d34:	b29b      	uxth	r3, r3
10003d36:	b292      	uxth	r2, r2
10003d38:	8880      	ldrh	r0, [r0, #4]
10003d3a:	4293      	cmp	r3, r2
10003d3c:	bf36      	itet	cc
10003d3e:	ebc2 0240 	rsbcc	r2, r2, r0, lsl #1
10003d42:	1a9b      	subcs	r3, r3, r2
10003d44:	189b      	addcc	r3, r3, r2
10003d46:	b29b      	uxth	r3, r3
10003d48:	4298      	cmp	r0, r3
10003d4a:	bf28      	it	cs
10003d4c:	4618      	movcs	r0, r3
10003d4e:	4770      	bx	lr

10003d50 <tu_fifo_empty>:
10003d50:	8902      	ldrh	r2, [r0, #8]
10003d52:	8943      	ldrh	r3, [r0, #10]
10003d54:	b290      	uxth	r0, r2
10003d56:	b29b      	uxth	r3, r3
10003d58:	1ac0      	subs	r0, r0, r3
10003d5a:	fab0 f080 	clz	r0, r0
10003d5e:	0940      	lsrs	r0, r0, #5
10003d60:	4770      	bx	lr
10003d62:	bf00      	nop

10003d64 <tu_fifo_remaining>:
10003d64:	8903      	ldrh	r3, [r0, #8]
10003d66:	8942      	ldrh	r2, [r0, #10]
10003d68:	b29b      	uxth	r3, r3
10003d6a:	8880      	ldrh	r0, [r0, #4]
10003d6c:	b292      	uxth	r2, r2
10003d6e:	4293      	cmp	r3, r2
10003d70:	bf36      	itet	cc
10003d72:	ebc2 0240 	rsbcc	r2, r2, r0, lsl #1
10003d76:	1a9b      	subcs	r3, r3, r2
10003d78:	189b      	addcc	r3, r3, r2
10003d7a:	b29b      	uxth	r3, r3
10003d7c:	4298      	cmp	r0, r3
10003d7e:	bf86      	itte	hi
10003d80:	1ac0      	subhi	r0, r0, r3
10003d82:	b280      	uxthhi	r0, r0
10003d84:	2000      	movls	r0, #0
10003d86:	4770      	bx	lr

10003d88 <tu_fifo_read>:
10003d88:	b538      	push	{r3, r4, r5, lr}
10003d8a:	4604      	mov	r4, r0
10003d8c:	6900      	ldr	r0, [r0, #16]
10003d8e:	460d      	mov	r5, r1
10003d90:	b118      	cbz	r0, 10003d9a <tu_fifo_read+0x12>
10003d92:	f04f 31ff 	mov.w	r1, #4294967295
10003d96:	f002 fe03 	bl	100069a0 <__mutex_enter_timeout_ms_veneer>
10003d9a:	8921      	ldrh	r1, [r4, #8]
10003d9c:	8963      	ldrh	r3, [r4, #10]
10003d9e:	b289      	uxth	r1, r1
10003da0:	b29b      	uxth	r3, r3
10003da2:	88a2      	ldrh	r2, [r4, #4]
10003da4:	4299      	cmp	r1, r3
10003da6:	bf36      	itet	cc
10003da8:	ebc3 0042 	rsbcc	r0, r3, r2, lsl #1
10003dac:	1ac8      	subcs	r0, r1, r3
10003dae:	1840      	addcc	r0, r0, r1
10003db0:	b280      	uxth	r0, r0
10003db2:	b350      	cbz	r0, 10003e0a <tu_fifo_read+0x82>
10003db4:	4282      	cmp	r2, r0
10003db6:	d209      	bcs.n	10003dcc <tu_fifo_read+0x44>
10003db8:	4291      	cmp	r1, r2
10003dba:	bf2c      	ite	cs
10003dbc:	1a89      	subcs	r1, r1, r2
10003dbe:	1889      	addcc	r1, r1, r2
10003dc0:	b28b      	uxth	r3, r1
10003dc2:	429a      	cmp	r2, r3
10003dc4:	8163      	strh	r3, [r4, #10]
10003dc6:	d803      	bhi.n	10003dd0 <tu_fifo_read+0x48>
10003dc8:	1a9b      	subs	r3, r3, r2
10003dca:	b29b      	uxth	r3, r3
10003dcc:	429a      	cmp	r2, r3
10003dce:	d9fb      	bls.n	10003dc8 <tu_fifo_read+0x40>
10003dd0:	88e2      	ldrh	r2, [r4, #6]
10003dd2:	6821      	ldr	r1, [r4, #0]
10003dd4:	f3c2 020e 	ubfx	r2, r2, #0, #15
10003dd8:	fb02 1103 	mla	r1, r2, r3, r1
10003ddc:	4628      	mov	r0, r5
10003dde:	f002 fcc5 	bl	1000676c <memcpy>
10003de2:	8961      	ldrh	r1, [r4, #10]
10003de4:	2501      	movs	r5, #1
10003de6:	b289      	uxth	r1, r1
10003de8:	1c4b      	adds	r3, r1, #1
10003dea:	b29b      	uxth	r3, r3
10003dec:	4299      	cmp	r1, r3
10003dee:	88a2      	ldrh	r2, [r4, #4]
10003df0:	d90e      	bls.n	10003e10 <tu_fifo_read+0x88>
10003df2:	2300      	movs	r3, #0
10003df4:	fa02 f105 	lsl.w	r1, r2, r5
10003df8:	1a5b      	subs	r3, r3, r1
10003dfa:	b29b      	uxth	r3, r3
10003dfc:	6920      	ldr	r0, [r4, #16]
10003dfe:	8163      	strh	r3, [r4, #10]
10003e00:	b108      	cbz	r0, 10003e06 <tu_fifo_read+0x7e>
10003e02:	f002 fdbd 	bl	10006980 <__mutex_exit_veneer>
10003e06:	4628      	mov	r0, r5
10003e08:	bd38      	pop	{r3, r4, r5, pc}
10003e0a:	4605      	mov	r5, r0
10003e0c:	8963      	ldrh	r3, [r4, #10]
10003e0e:	b29b      	uxth	r3, r3
10003e10:	ebb3 0f42 	cmp.w	r3, r2, lsl #1
10003e14:	ea4f 0142 	mov.w	r1, r2, lsl #1
10003e18:	dbf0      	blt.n	10003dfc <tu_fifo_read+0x74>
10003e1a:	e7ed      	b.n	10003df8 <tu_fifo_read+0x70>

10003e1c <tu_fifo_read_n>:
10003e1c:	e92d 47f0 	stmdb	sp!, {r4, r5, r6, r7, r8, r9, sl, lr}
10003e20:	4606      	mov	r6, r0
10003e22:	6900      	ldr	r0, [r0, #16]
10003e24:	4688      	mov	r8, r1
10003e26:	4691      	mov	r9, r2
10003e28:	b118      	cbz	r0, 10003e32 <tu_fifo_read_n+0x16>
10003e2a:	f04f 31ff 	mov.w	r1, #4294967295
10003e2e:	f002 fdb7 	bl	100069a0 <__mutex_enter_timeout_ms_veneer>
10003e32:	8933      	ldrh	r3, [r6, #8]
10003e34:	8974      	ldrh	r4, [r6, #10]
10003e36:	b29b      	uxth	r3, r3
10003e38:	b2a4      	uxth	r4, r4
10003e3a:	88b5      	ldrh	r5, [r6, #4]
10003e3c:	42a3      	cmp	r3, r4
10003e3e:	bf36      	itet	cc
10003e40:	ebc4 0745 	rsbcc	r7, r4, r5, lsl #1
10003e44:	1b1f      	subcs	r7, r3, r4
10003e46:	18ff      	addcc	r7, r7, r3
10003e48:	b2bf      	uxth	r7, r7
10003e4a:	2f00      	cmp	r7, #0
10003e4c:	d048      	beq.n	10003ee0 <tu_fifo_read_n+0xc4>
10003e4e:	42bd      	cmp	r5, r7
10003e50:	d33e      	bcc.n	10003ed0 <tu_fifo_read_n+0xb4>
10003e52:	454f      	cmp	r7, r9
10003e54:	bf28      	it	cs
10003e56:	464f      	movcs	r7, r9
10003e58:	42a5      	cmp	r5, r4
10003e5a:	b2bf      	uxth	r7, r7
10003e5c:	d803      	bhi.n	10003e66 <tu_fifo_read_n+0x4a>
10003e5e:	1b64      	subs	r4, r4, r5
10003e60:	b2a4      	uxth	r4, r4
10003e62:	42a5      	cmp	r5, r4
10003e64:	d9fb      	bls.n	10003e5e <tu_fifo_read_n+0x42>
10003e66:	88f2      	ldrh	r2, [r6, #6]
10003e68:	1b2b      	subs	r3, r5, r4
10003e6a:	6831      	ldr	r1, [r6, #0]
10003e6c:	b29b      	uxth	r3, r3
10003e6e:	f3c2 0c0e 	ubfx	ip, r2, #0, #15
10003e72:	429f      	cmp	r7, r3
10003e74:	46e2      	mov	sl, ip
10003e76:	fb0c 1104 	mla	r1, ip, r4, r1
10003e7a:	d923      	bls.n	10003ec4 <tu_fifo_read_n+0xa8>
10003e7c:	fb13 f30c 	smulbb	r3, r3, ip
10003e80:	fa1f f983 	uxth.w	r9, r3
10003e84:	464a      	mov	r2, r9
10003e86:	4640      	mov	r0, r8
10003e88:	f002 fc70 	bl	1000676c <memcpy>
10003e8c:	1b7a      	subs	r2, r7, r5
10003e8e:	4422      	add	r2, r4
10003e90:	fb12 f20a 	smulbb	r2, r2, sl
10003e94:	6831      	ldr	r1, [r6, #0]
10003e96:	eb08 0009 	add.w	r0, r8, r9
10003e9a:	b292      	uxth	r2, r2
10003e9c:	f002 fc66 	bl	1000676c <memcpy>
10003ea0:	8972      	ldrh	r2, [r6, #10]
10003ea2:	88b5      	ldrh	r5, [r6, #4]
10003ea4:	b292      	uxth	r2, r2
10003ea6:	19d3      	adds	r3, r2, r7
10003ea8:	b29b      	uxth	r3, r3
10003eaa:	429a      	cmp	r2, r3
10003eac:	d91a      	bls.n	10003ee4 <tu_fifo_read_n+0xc8>
10003eae:	006a      	lsls	r2, r5, #1
10003eb0:	1a9b      	subs	r3, r3, r2
10003eb2:	b29b      	uxth	r3, r3
10003eb4:	6930      	ldr	r0, [r6, #16]
10003eb6:	8173      	strh	r3, [r6, #10]
10003eb8:	b108      	cbz	r0, 10003ebe <tu_fifo_read_n+0xa2>
10003eba:	f002 fd61 	bl	10006980 <__mutex_exit_veneer>
10003ebe:	4638      	mov	r0, r7
10003ec0:	e8bd 87f0 	ldmia.w	sp!, {r4, r5, r6, r7, r8, r9, sl, pc}
10003ec4:	4640      	mov	r0, r8
10003ec6:	fb0c f207 	mul.w	r2, ip, r7
10003eca:	f002 fc4f 	bl	1000676c <memcpy>
10003ece:	e7e7      	b.n	10003ea0 <tu_fifo_read_n+0x84>
10003ed0:	42ab      	cmp	r3, r5
10003ed2:	bf2c      	ite	cs
10003ed4:	1b5b      	subcs	r3, r3, r5
10003ed6:	195b      	addcc	r3, r3, r5
10003ed8:	b29c      	uxth	r4, r3
10003eda:	462f      	mov	r7, r5
10003edc:	8174      	strh	r4, [r6, #10]
10003ede:	e7b8      	b.n	10003e52 <tu_fifo_read_n+0x36>
10003ee0:	8973      	ldrh	r3, [r6, #10]
10003ee2:	b29b      	uxth	r3, r3
10003ee4:	ebb3 0f45 	cmp.w	r3, r5, lsl #1
10003ee8:	ea4f 0245 	mov.w	r2, r5, lsl #1
10003eec:	dbe2      	blt.n	10003eb4 <tu_fifo_read_n+0x98>
10003eee:	e7df      	b.n	10003eb0 <tu_fifo_read_n+0x94>

10003ef0 <tu_fifo_write>:
10003ef0:	b5f8      	push	{r3, r4, r5, r6, r7, lr}
10003ef2:	4604      	mov	r4, r0
10003ef4:	68c0      	ldr	r0, [r0, #12]
10003ef6:	460e      	mov	r6, r1
10003ef8:	b118      	cbz	r0, 10003f02 <tu_fifo_write+0x12>
10003efa:	f04f 31ff 	mov.w	r1, #4294967295
10003efe:	f002 fd4f 	bl	100069a0 <__mutex_enter_timeout_ms_veneer>
10003f02:	8925      	ldrh	r5, [r4, #8]
10003f04:	8923      	ldrh	r3, [r4, #8]
10003f06:	8961      	ldrh	r1, [r4, #10]
10003f08:	b29b      	uxth	r3, r3
10003f0a:	b289      	uxth	r1, r1
10003f0c:	88a2      	ldrh	r2, [r4, #4]
10003f0e:	428b      	cmp	r3, r1
10003f10:	bf36      	itet	cc
10003f12:	ebc1 0142 	rsbcc	r1, r1, r2, lsl #1
10003f16:	1a5b      	subcs	r3, r3, r1
10003f18:	185b      	addcc	r3, r3, r1
10003f1a:	b29b      	uxth	r3, r3
10003f1c:	429a      	cmp	r2, r3
10003f1e:	b2ad      	uxth	r5, r5
10003f20:	d808      	bhi.n	10003f34 <tu_fifo_write+0x44>
10003f22:	79e7      	ldrb	r7, [r4, #7]
10003f24:	09ff      	lsrs	r7, r7, #7
10003f26:	d105      	bne.n	10003f34 <tu_fifo_write+0x44>
10003f28:	68e0      	ldr	r0, [r4, #12]
10003f2a:	b108      	cbz	r0, 10003f30 <tu_fifo_write+0x40>
10003f2c:	f002 fd28 	bl	10006980 <__mutex_exit_veneer>
10003f30:	4638      	mov	r0, r7
10003f32:	bdf8      	pop	{r3, r4, r5, r6, r7, pc}
10003f34:	4295      	cmp	r5, r2
10003f36:	462b      	mov	r3, r5
10003f38:	d303      	bcc.n	10003f42 <tu_fifo_write+0x52>
10003f3a:	1a9b      	subs	r3, r3, r2
10003f3c:	b29b      	uxth	r3, r3
10003f3e:	4293      	cmp	r3, r2
10003f40:	d2fb      	bcs.n	10003f3a <tu_fifo_write+0x4a>
10003f42:	88e2      	ldrh	r2, [r4, #6]
10003f44:	6820      	ldr	r0, [r4, #0]
10003f46:	f3c2 020e 	ubfx	r2, r2, #0, #15
10003f4a:	fb02 0003 	mla	r0, r2, r3, r0
10003f4e:	4631      	mov	r1, r6
10003f50:	f002 fc0c 	bl	1000676c <memcpy>
10003f54:	1c6b      	adds	r3, r5, #1
10003f56:	88a2      	ldrh	r2, [r4, #4]
10003f58:	b29b      	uxth	r3, r3
10003f5a:	429d      	cmp	r5, r3
10003f5c:	ea4f 0142 	mov.w	r1, r2, lsl #1
10003f60:	d904      	bls.n	10003f6c <tu_fifo_write+0x7c>
10003f62:	1a5b      	subs	r3, r3, r1
10003f64:	b29b      	uxth	r3, r3
10003f66:	2701      	movs	r7, #1
10003f68:	8123      	strh	r3, [r4, #8]
10003f6a:	e7dd      	b.n	10003f28 <tu_fifo_write+0x38>
10003f6c:	ebb3 0f42 	cmp.w	r3, r2, lsl #1
10003f70:	dbf9      	blt.n	10003f66 <tu_fifo_write+0x76>
10003f72:	e7f6      	b.n	10003f62 <tu_fifo_write+0x72>

10003f74 <tu_fifo_write_n>:
10003f74:	e92d 4ff0 	stmdb	sp!, {r4, r5, r6, r7, r8, r9, sl, fp, lr}
10003f78:	4614      	mov	r4, r2
10003f7a:	b083      	sub	sp, #12
10003f7c:	2a00      	cmp	r2, #0
10003f7e:	d05c      	beq.n	1000403a <tu_fifo_write_n+0xc6>
10003f80:	4605      	mov	r5, r0
10003f82:	68c0      	ldr	r0, [r0, #12]
10003f84:	468b      	mov	fp, r1
10003f86:	b118      	cbz	r0, 10003f90 <tu_fifo_write_n+0x1c>
10003f88:	f04f 31ff 	mov.w	r1, #4294967295
10003f8c:	f002 fd08 	bl	100069a0 <__mutex_enter_timeout_ms_veneer>
10003f90:	79ea      	ldrb	r2, [r5, #7]
10003f92:	892f      	ldrh	r7, [r5, #8]
10003f94:	896b      	ldrh	r3, [r5, #10]
10003f96:	09d2      	lsrs	r2, r2, #7
10003f98:	b2bf      	uxth	r7, r7
10003f9a:	b29b      	uxth	r3, r3
10003f9c:	d13b      	bne.n	10004016 <tu_fifo_write_n+0xa2>
10003f9e:	88ae      	ldrh	r6, [r5, #4]
10003fa0:	429f      	cmp	r7, r3
10003fa2:	bf36      	itet	cc
10003fa4:	ebc3 0346 	rsbcc	r3, r3, r6, lsl #1
10003fa8:	1afb      	subcs	r3, r7, r3
10003faa:	19db      	addcc	r3, r3, r7
10003fac:	b29b      	uxth	r3, r3
10003fae:	429e      	cmp	r6, r3
10003fb0:	d948      	bls.n	10004044 <tu_fifo_write_n+0xd0>
10003fb2:	eba6 0803 	sub.w	r8, r6, r3
10003fb6:	fa1f f888 	uxth.w	r8, r8
10003fba:	45a0      	cmp	r8, r4
10003fbc:	bf28      	it	cs
10003fbe:	46a0      	movcs	r8, r4
10003fc0:	f8b5 a006 	ldrh.w	sl, [r5, #6]
10003fc4:	eb08 0907 	add.w	r9, r8, r7
10003fc8:	fa1f f989 	uxth.w	r9, r9
10003fcc:	42be      	cmp	r6, r7
10003fce:	463c      	mov	r4, r7
10003fd0:	d803      	bhi.n	10003fda <tu_fifo_write_n+0x66>
10003fd2:	1ba4      	subs	r4, r4, r6
10003fd4:	b2a4      	uxth	r4, r4
10003fd6:	42b4      	cmp	r4, r6
10003fd8:	d2fb      	bcs.n	10003fd2 <tu_fifo_write_n+0x5e>
10003fda:	1b33      	subs	r3, r6, r4
10003fdc:	6828      	ldr	r0, [r5, #0]
10003fde:	b29b      	uxth	r3, r3
10003fe0:	f3ca 020e 	ubfx	r2, sl, #0, #15
10003fe4:	4543      	cmp	r3, r8
10003fe6:	4692      	mov	sl, r2
10003fe8:	fb02 0004 	mla	r0, r2, r4, r0
10003fec:	d355      	bcc.n	1000409a <tu_fifo_write_n+0x126>
10003fee:	4659      	mov	r1, fp
10003ff0:	fb02 f208 	mul.w	r2, r2, r8
10003ff4:	f002 fbba 	bl	1000676c <memcpy>
10003ff8:	88aa      	ldrh	r2, [r5, #4]
10003ffa:	45b9      	cmp	r9, r7
10003ffc:	ea4f 0342 	mov.w	r3, r2, lsl #1
10004000:	d302      	bcc.n	10004008 <tu_fifo_write_n+0x94>
10004002:	ebb9 0f42 	cmp.w	r9, r2, lsl #1
10004006:	db03      	blt.n	10004010 <tu_fifo_write_n+0x9c>
10004008:	eba9 0903 	sub.w	r9, r9, r3
1000400c:	fa1f f989 	uxth.w	r9, r9
10004010:	f8a5 9008 	strh.w	r9, [r5, #8]
10004014:	e018      	b.n	10004048 <tu_fifo_write_n+0xd4>
10004016:	f8b5 8004 	ldrh.w	r8, [r5, #4]
1000401a:	4544      	cmp	r4, r8
1000401c:	d31d      	bcc.n	1000405a <tu_fifo_write_n+0xe6>
1000401e:	f8b5 a006 	ldrh.w	sl, [r5, #6]
10004022:	eba4 0408 	sub.w	r4, r4, r8
10004026:	f3ca 020e 	ubfx	r2, sl, #0, #15
1000402a:	fb02 bb04 	mla	fp, r2, r4, fp
1000402e:	f1b8 0f00 	cmp.w	r8, #0
10004032:	d009      	beq.n	10004048 <tu_fifo_write_n+0xd4>
10004034:	461f      	mov	r7, r3
10004036:	4646      	mov	r6, r8
10004038:	e7c4      	b.n	10003fc4 <tu_fifo_write_n+0x50>
1000403a:	4690      	mov	r8, r2
1000403c:	4640      	mov	r0, r8
1000403e:	b003      	add	sp, #12
10004040:	e8bd 8ff0 	ldmia.w	sp!, {r4, r5, r6, r7, r8, r9, sl, fp, pc}
10004044:	f04f 0800 	mov.w	r8, #0
10004048:	68e8      	ldr	r0, [r5, #12]
1000404a:	2800      	cmp	r0, #0
1000404c:	d0f6      	beq.n	1000403c <tu_fifo_write_n+0xc8>
1000404e:	f002 fc97 	bl	10006980 <__mutex_exit_veneer>
10004052:	4640      	mov	r0, r8
10004054:	b003      	add	sp, #12
10004056:	e8bd 8ff0 	ldmia.w	sp!, {r4, r5, r6, r7, r8, r9, sl, fp, pc}
1000405a:	429f      	cmp	r7, r3
1000405c:	bf36      	itet	cc
1000405e:	ebc3 0248 	rsbcc	r2, r3, r8, lsl #1
10004062:	1afa      	subcs	r2, r7, r3
10004064:	19d2      	addcc	r2, r2, r7
10004066:	b292      	uxth	r2, r2
10004068:	ea4f 0148 	mov.w	r1, r8, lsl #1
1000406c:	4422      	add	r2, r4
1000406e:	428a      	cmp	r2, r1
10004070:	db0a      	blt.n	10004088 <tu_fifo_write_n+0x114>
10004072:	eb03 0908 	add.w	r9, r3, r8
10004076:	fa1f f989 	uxth.w	r9, r9
1000407a:	eba9 0704 	sub.w	r7, r9, r4
1000407e:	b2bf      	uxth	r7, r7
10004080:	42bb      	cmp	r3, r7
10004082:	d91e      	bls.n	100040c2 <tu_fifo_write_n+0x14e>
10004084:	1a7f      	subs	r7, r7, r1
10004086:	b2bf      	uxth	r7, r7
10004088:	eb04 0907 	add.w	r9, r4, r7
1000408c:	4646      	mov	r6, r8
1000408e:	f8b5 a006 	ldrh.w	sl, [r5, #6]
10004092:	46a0      	mov	r8, r4
10004094:	fa1f f989 	uxth.w	r9, r9
10004098:	e798      	b.n	10003fcc <tu_fifo_write_n+0x58>
1000409a:	fb13 f302 	smulbb	r3, r3, r2
1000409e:	4659      	mov	r1, fp
100040a0:	b29a      	uxth	r2, r3
100040a2:	9201      	str	r2, [sp, #4]
100040a4:	f002 fb62 	bl	1000676c <memcpy>
100040a8:	9a01      	ldr	r2, [sp, #4]
100040aa:	6828      	ldr	r0, [r5, #0]
100040ac:	eb0b 0102 	add.w	r1, fp, r2
100040b0:	eba8 0206 	sub.w	r2, r8, r6
100040b4:	4422      	add	r2, r4
100040b6:	fb12 f20a 	smulbb	r2, r2, sl
100040ba:	b292      	uxth	r2, r2
100040bc:	f002 fb56 	bl	1000676c <memcpy>
100040c0:	e79a      	b.n	10003ff8 <tu_fifo_write_n+0x84>
100040c2:	42b9      	cmp	r1, r7
100040c4:	ddde      	ble.n	10004084 <tu_fifo_write_n+0x110>
100040c6:	4646      	mov	r6, r8
100040c8:	f8b5 a006 	ldrh.w	sl, [r5, #6]
100040cc:	46a0      	mov	r8, r4
100040ce:	e77d      	b.n	10003fcc <tu_fifo_write_n+0x58>

100040d0 <tu_fifo_clear>:
100040d0:	b510      	push	{r4, lr}
100040d2:	4604      	mov	r4, r0
100040d4:	68c0      	ldr	r0, [r0, #12]
100040d6:	b118      	cbz	r0, 100040e0 <tu_fifo_clear+0x10>
100040d8:	f04f 31ff 	mov.w	r1, #4294967295
100040dc:	f002 fc60 	bl	100069a0 <__mutex_enter_timeout_ms_veneer>
100040e0:	6920      	ldr	r0, [r4, #16]
100040e2:	b118      	cbz	r0, 100040ec <tu_fifo_clear+0x1c>
100040e4:	f04f 31ff 	mov.w	r1, #4294967295
100040e8:	f002 fc5a 	bl	100069a0 <__mutex_enter_timeout_ms_veneer>
100040ec:	2300      	movs	r3, #0
100040ee:	68e0      	ldr	r0, [r4, #12]
100040f0:	8163      	strh	r3, [r4, #10]
100040f2:	8123      	strh	r3, [r4, #8]
100040f4:	b108      	cbz	r0, 100040fa <tu_fifo_clear+0x2a>
100040f6:	f002 fc43 	bl	10006980 <__mutex_exit_veneer>
100040fa:	6920      	ldr	r0, [r4, #16]
100040fc:	b108      	cbz	r0, 10004102 <tu_fifo_clear+0x32>
100040fe:	f002 fc3f 	bl	10006980 <__mutex_exit_veneer>
10004102:	2001      	movs	r0, #1
10004104:	bd10      	pop	{r4, pc}
10004106:	bf00      	nop

10004108 <tu_fifo_set_overwritable>:
10004108:	b538      	push	{r3, r4, r5, lr}
1000410a:	4604      	mov	r4, r0
1000410c:	68c0      	ldr	r0, [r0, #12]
1000410e:	460d      	mov	r5, r1
10004110:	b118      	cbz	r0, 1000411a <tu_fifo_set_overwritable+0x12>
10004112:	f04f 31ff 	mov.w	r1, #4294967295
10004116:	f002 fc43 	bl	100069a0 <__mutex_enter_timeout_ms_veneer>
1000411a:	6920      	ldr	r0, [r4, #16]
1000411c:	b118      	cbz	r0, 10004126 <tu_fifo_set_overwritable+0x1e>
1000411e:	f04f 31ff 	mov.w	r1, #4294967295
10004122:	f002 fc3d 	bl	100069a0 <__mutex_enter_timeout_ms_veneer>
10004126:	79e3      	ldrb	r3, [r4, #7]
10004128:	68e0      	ldr	r0, [r4, #12]
1000412a:	f365 13c7 	bfi	r3, r5, #7, #1
1000412e:	71e3      	strb	r3, [r4, #7]
10004130:	b108      	cbz	r0, 10004136 <tu_fifo_set_overwritable+0x2e>
10004132:	f002 fc25 	bl	10006980 <__mutex_exit_veneer>
10004136:	6920      	ldr	r0, [r4, #16]
10004138:	b108      	cbz	r0, 1000413e <tu_fifo_set_overwritable+0x36>
1000413a:	f002 fc21 	bl	10006980 <__mutex_exit_veneer>
1000413e:	2001      	movs	r0, #1
10004140:	bd38      	pop	{r3, r4, r5, pc}
10004142:	bf00      	nop

10004144 <prvTaskExitError>:
10004144:	2200      	movs	r2, #0
10004146:	b500      	push	{lr}
10004148:	4b07      	ldr	r3, [pc, #28]	; (10004168 <prvTaskExitError+0x24>)
1000414a:	b083      	sub	sp, #12
1000414c:	9201      	str	r2, [sp, #4]
1000414e:	681b      	ldr	r3, [r3, #0]
10004150:	3301      	adds	r3, #1
10004152:	d000      	beq.n	10004156 <prvTaskExitError+0x12>
10004154:	e7fe      	b.n	10004154 <prvTaskExitError+0x10>
10004156:	f000 fae1 	bl	1000471c <ulSetInterruptMask>
1000415a:	9b01      	ldr	r3, [sp, #4]
1000415c:	2b00      	cmp	r3, #0
1000415e:	d0fc      	beq.n	1000415a <prvTaskExitError+0x16>
10004160:	b003      	add	sp, #12
10004162:	f85d fb04 	ldr.w	pc, [sp], #4
10004166:	bf00      	nop
10004168:	2000126c 	.word	0x2000126c

1000416c <SysTick_Handler>:
1000416c:	b510      	push	{r4, lr}
1000416e:	f000 fad5 	bl	1000471c <ulSetInterruptMask>
10004172:	4604      	mov	r4, r0
10004174:	f001 fc1c 	bl	100059b0 <xTaskIncrementTick>
10004178:	b128      	cbz	r0, 10004186 <SysTick_Handler+0x1a>
1000417a:	f04f 23e0 	mov.w	r3, #3758153728	; 0xe000e000
1000417e:	f04f 5280 	mov.w	r2, #268435456	; 0x10000000
10004182:	f8c3 2d04 	str.w	r2, [r3, #3332]	; 0xd04
10004186:	4620      	mov	r0, r4
10004188:	e8bd 4010 	ldmia.w	sp!, {r4, lr}
1000418c:	f000 bad2 	b.w	10004734 <vClearInterruptMask>

10004190 <prvDoorbellInterruptHandler>:
10004190:	4b1f      	ldr	r3, [pc, #124]	; (10004210 <prvDoorbellInterruptHandler+0x80>)
10004192:	f993 3000 	ldrsb.w	r3, [r3]
10004196:	2b00      	cmp	r3, #0
10004198:	db08      	blt.n	100041ac <prvDoorbellInterruptHandler+0x1c>
1000419a:	f04f 4150 	mov.w	r1, #3489660928	; 0xd0000000
1000419e:	2201      	movs	r2, #1
100041a0:	f8d1 0188 	ldr.w	r0, [r1, #392]	; 0x188
100041a4:	fa02 f303 	lsl.w	r3, r2, r3
100041a8:	4218      	tst	r0, r3
100041aa:	d100      	bne.n	100041ae <prvDoorbellInterruptHandler+0x1e>
100041ac:	4770      	bx	lr
100041ae:	2000      	movs	r0, #0
100041b0:	b510      	push	{r4, lr}
100041b2:	4a18      	ldr	r2, [pc, #96]	; (10004214 <prvDoorbellInterruptHandler+0x84>)
100041b4:	b082      	sub	sp, #8
100041b6:	f8c1 318c 	str.w	r3, [r1, #396]	; 0x18c
100041ba:	6813      	ldr	r3, [r2, #0]
100041bc:	9001      	str	r0, [sp, #4]
100041be:	f3ef 8110 	mrs	r1, PRIMASK
100041c2:	b672      	cpsid	i
100041c4:	e8d3 cfcf 	ldaexb	ip, [r3]
100041c8:	2401      	movs	r4, #1
100041ca:	f1bc 0f00 	cmp.w	ip, #0
100041ce:	d1f9      	bne.n	100041c4 <prvDoorbellInterruptHandler+0x34>
100041d0:	e8c3 4f4c 	strexb	ip, r4, [r3]
100041d4:	f1bc 0f00 	cmp.w	ip, #0
100041d8:	d1f4      	bne.n	100041c4 <prvDoorbellInterruptHandler+0x34>
100041da:	f3bf 8f5f 	dmb	sy
100041de:	4b0e      	ldr	r3, [pc, #56]	; (10004218 <prvDoorbellInterruptHandler+0x88>)
100041e0:	6814      	ldr	r4, [r2, #0]
100041e2:	681a      	ldr	r2, [r3, #0]
100041e4:	6018      	str	r0, [r3, #0]
100041e6:	e8c4 0f8f 	stlb	r0, [r4]
100041ea:	f381 8810 	msr	PRIMASK, r1
100041ee:	4b0b      	ldr	r3, [pc, #44]	; (1000421c <prvDoorbellInterruptHandler+0x8c>)
100041f0:	480b      	ldr	r0, [pc, #44]	; (10004220 <prvDoorbellInterruptHandler+0x90>)
100041f2:	6819      	ldr	r1, [r3, #0]
100041f4:	ab01      	add	r3, sp, #4
100041f6:	f002 f8ff 	bl	100063f8 <xTimerPendFunctionCallFromISR>
100041fa:	9b01      	ldr	r3, [sp, #4]
100041fc:	b12b      	cbz	r3, 1000420a <prvDoorbellInterruptHandler+0x7a>
100041fe:	f04f 23e0 	mov.w	r3, #3758153728	; 0xe000e000
10004202:	f04f 5280 	mov.w	r2, #268435456	; 0x10000000
10004206:	f8c3 2d04 	str.w	r2, [r3, #3332]	; 0xd04
1000420a:	b002      	add	sp, #8
1000420c:	bd10      	pop	{r4, pc}
1000420e:	bf00      	nop
10004210:	20001269 	.word	0x20001269
10004214:	20001e88 	.word	0x20001e88
10004218:	20005f38 	.word	0x20005f38
1000421c:	20005fa0 	.word	0x20005fa0
10004220:	10004915 	.word	0x10004915

10004224 <vPortSetupTimerInterrupt>:
10004224:	b510      	push	{r4, lr}
10004226:	2204      	movs	r2, #4
10004228:	f04f 24e0 	mov.w	r4, #3758153728	; 0xe000e000
1000422c:	2300      	movs	r3, #0
1000422e:	6122      	str	r2, [r4, #16]
10004230:	2005      	movs	r0, #5
10004232:	61a3      	str	r3, [r4, #24]
10004234:	f7fc fffe 	bl	10001234 <clock_get_hz>
10004238:	2207      	movs	r2, #7
1000423a:	4b04      	ldr	r3, [pc, #16]	; (1000424c <vPortSetupTimerInterrupt+0x28>)
1000423c:	fba3 3000 	umull	r3, r0, r3, r0
10004240:	0983      	lsrs	r3, r0, #6
10004242:	3b01      	subs	r3, #1
10004244:	6163      	str	r3, [r4, #20]
10004246:	6122      	str	r2, [r4, #16]
10004248:	bd10      	pop	{r4, pc}
1000424a:	bf00      	nop
1000424c:	10624dd3 	.word	0x10624dd3

10004250 <vPortYield>:
10004250:	f04f 23e0 	mov.w	r3, #3758153728	; 0xe000e000
10004254:	f04f 5280 	mov.w	r2, #268435456	; 0x10000000
10004258:	f8c3 2d04 	str.w	r2, [r3, #3332]	; 0xd04
1000425c:	f3bf 8f4f 	dsb	sy
10004260:	f3bf 8f6f 	isb	sy
10004264:	4770      	bx	lr
10004266:	bf00      	nop

10004268 <vPortEnterCritical>:
10004268:	b508      	push	{r3, lr}
1000426a:	f000 fa57 	bl	1000471c <ulSetInterruptMask>
1000426e:	4a04      	ldr	r2, [pc, #16]	; (10004280 <vPortEnterCritical+0x18>)
10004270:	6813      	ldr	r3, [r2, #0]
10004272:	3301      	adds	r3, #1
10004274:	6013      	str	r3, [r2, #0]
10004276:	f3bf 8f4f 	dsb	sy
1000427a:	f3bf 8f6f 	isb	sy
1000427e:	bd08      	pop	{r3, pc}
10004280:	2000126c 	.word	0x2000126c

10004284 <vPortExitCritical>:
10004284:	4b05      	ldr	r3, [pc, #20]	; (1000429c <vPortExitCritical+0x18>)
10004286:	681a      	ldr	r2, [r3, #0]
10004288:	b12a      	cbz	r2, 10004296 <vPortExitCritical+0x12>
1000428a:	681a      	ldr	r2, [r3, #0]
1000428c:	3a01      	subs	r2, #1
1000428e:	601a      	str	r2, [r3, #0]
10004290:	6818      	ldr	r0, [r3, #0]
10004292:	b108      	cbz	r0, 10004298 <vPortExitCritical+0x14>
10004294:	4770      	bx	lr
10004296:	e7fe      	b.n	10004296 <vPortExitCritical+0x12>
10004298:	f000 ba4c 	b.w	10004734 <vClearInterruptMask>
1000429c:	2000126c 	.word	0x2000126c

100042a0 <vPortSVCHandler_C>:
100042a0:	6983      	ldr	r3, [r0, #24]
100042a2:	f813 3c02 	ldrb.w	r3, [r3, #-2]
100042a6:	2b66      	cmp	r3, #102	; 0x66
100042a8:	d000      	beq.n	100042ac <vPortSVCHandler_C+0xc>
100042aa:	e7fe      	b.n	100042aa <vPortSVCHandler_C+0xa>
100042ac:	f000 ba18 	b.w	100046e0 <vRestoreContextOfFirstTask>

100042b0 <pxPortInitialiseStack>:
100042b0:	e92d 47f0 	stmdb	sp!, {r4, r5, r6, r7, r8, r9, sl, lr}
100042b4:	f04f 7480 	mov.w	r4, #16777216	; 0x1000000
100042b8:	f04f 3710 	mov.w	r7, #269488144	; 0x10101010
100042bc:	f04f 3509 	mov.w	r5, #151587081	; 0x9090909
100042c0:	f840 4c04 	str.w	r4, [r0, #-4]
100042c4:	f04f 3407 	mov.w	r4, #117901063	; 0x7070707
100042c8:	e940 570b 	strd	r5, r7, [r0, #-44]	; 0x2c
100042cc:	4d16      	ldr	r5, [pc, #88]	; (10004328 <pxPortInitialiseStack+0x78>)
100042ce:	f840 4c34 	str.w	r4, [r0, #-52]
100042d2:	e940 5203 	strd	r5, r2, [r0, #-12]
100042d6:	f04f 3c11 	mov.w	ip, #286331153	; 0x11111111
100042da:	f04f 3406 	mov.w	r4, #101058054	; 0x6060606
100042de:	f04f 3205 	mov.w	r2, #84215045	; 0x5050505
100042e2:	e940 c309 	strd	ip, r3, [r0, #-36]	; 0x24
100042e6:	e940 240f 	strd	r2, r4, [r0, #-60]	; 0x3c
100042ea:	4603      	mov	r3, r0
100042ec:	f04f 3a12 	mov.w	sl, #303174162	; 0x12121212
100042f0:	f04f 3903 	mov.w	r9, #50529027	; 0x3030303
100042f4:	f04f 3802 	mov.w	r8, #33686018	; 0x2020202
100042f8:	f04f 3e01 	mov.w	lr, #16843009	; 0x1010101
100042fc:	f04f 3608 	mov.w	r6, #134744072	; 0x8080808
10004300:	f04f 3504 	mov.w	r5, #67372036	; 0x4040404
10004304:	f06f 0202 	mvn.w	r2, #2
10004308:	e940 9a05 	strd	r9, sl, [r0, #-20]
1000430c:	e940 e807 	strd	lr, r8, [r0, #-28]
10004310:	f840 6c30 	str.w	r6, [r0, #-48]
10004314:	f840 5c40 	str.w	r5, [r0, #-64]
10004318:	f840 2c44 	str.w	r2, [r0, #-68]
1000431c:	f843 1d48 	str.w	r1, [r3, #-72]!
10004320:	4618      	mov	r0, r3
10004322:	e8bd 87f0 	ldmia.w	sp!, {r4, r5, r6, r7, r8, r9, sl, pc}
10004326:	bf00      	nop
10004328:	10004145 	.word	0x10004145

1000432c <xPortStartScheduler>:
1000432c:	f04f 23e0 	mov.w	r3, #3758153728	; 0xe000e000
10004330:	2000      	movs	r0, #0
10004332:	f04f 417f 	mov.w	r1, #4278190080	; 0xff000000
10004336:	b5f0      	push	{r4, r5, r6, r7, lr}
10004338:	b085      	sub	sp, #20
1000433a:	9002      	str	r0, [sp, #8]
1000433c:	f8c3 1d1c 	str.w	r1, [r3, #3356]	; 0xd1c
10004340:	f8d3 3d1c 	ldr.w	r3, [r3, #3356]	; 0xd1c
10004344:	4a3d      	ldr	r2, [pc, #244]	; (1000443c <xPortStartScheduler+0x110>)
10004346:	0e1b      	lsrs	r3, r3, #24
10004348:	f88d 3007 	strb.w	r3, [sp, #7]
1000434c:	f89d 3007 	ldrb.w	r3, [sp, #7]
10004350:	f003 0310 	and.w	r3, r3, #16
10004354:	7013      	strb	r3, [r2, #0]
10004356:	b123      	cbz	r3, 10004362 <xPortStartScheduler+0x36>
10004358:	f89d 3007 	ldrb.w	r3, [sp, #7]
1000435c:	06da      	lsls	r2, r3, #27
1000435e:	d40a      	bmi.n	10004376 <xPortStartScheduler+0x4a>
10004360:	e7fe      	b.n	10004360 <xPortStartScheduler+0x34>
10004362:	e7fe      	b.n	10004362 <xPortStartScheduler+0x36>
10004364:	9b02      	ldr	r3, [sp, #8]
10004366:	3301      	adds	r3, #1
10004368:	9302      	str	r3, [sp, #8]
1000436a:	f89d 3007 	ldrb.w	r3, [sp, #7]
1000436e:	005b      	lsls	r3, r3, #1
10004370:	b2db      	uxtb	r3, r3
10004372:	f88d 3007 	strb.w	r3, [sp, #7]
10004376:	f89d 3007 	ldrb.w	r3, [sp, #7]
1000437a:	061b      	lsls	r3, r3, #24
1000437c:	d4f2      	bmi.n	10004364 <xPortStartScheduler+0x38>
1000437e:	9b02      	ldr	r3, [sp, #8]
10004380:	2b08      	cmp	r3, #8
10004382:	d051      	beq.n	10004428 <xPortStartScheduler+0xfc>
10004384:	9a02      	ldr	r2, [sp, #8]
10004386:	f1c2 0207 	rsb	r2, r2, #7
1000438a:	0212      	lsls	r2, r2, #8
1000438c:	f402 62e0 	and.w	r2, r2, #1792	; 0x700
10004390:	f04f 23e0 	mov.w	r3, #3758153728	; 0xe000e000
10004394:	2400      	movs	r4, #0
10004396:	f04f 4550 	mov.w	r5, #3489660928	; 0xd0000000
1000439a:	2701      	movs	r7, #1
1000439c:	4828      	ldr	r0, [pc, #160]	; (10004440 <xPortStartScheduler+0x114>)
1000439e:	4929      	ldr	r1, [pc, #164]	; (10004444 <xPortStartScheduler+0x118>)
100043a0:	6002      	str	r2, [r0, #0]
100043a2:	f8d3 2d20 	ldr.w	r2, [r3, #3360]	; 0xd20
100043a6:	200e      	movs	r0, #14
100043a8:	f442 027f 	orr.w	r2, r2, #16711680	; 0xff0000
100043ac:	f8c3 2d20 	str.w	r2, [r3, #3360]	; 0xd20
100043b0:	f8d3 2d20 	ldr.w	r2, [r3, #3360]	; 0xd20
100043b4:	4e24      	ldr	r6, [pc, #144]	; (10004448 <xPortStartScheduler+0x11c>)
100043b6:	f042 427f 	orr.w	r2, r2, #4278190080	; 0xff000000
100043ba:	f8c3 2d20 	str.w	r2, [r3, #3360]	; 0xd20
100043be:	f8c3 4d1c 	str.w	r4, [r3, #3356]	; 0xd1c
100043c2:	f002 f831 	bl	10006428 <exception_set_exclusive_handler>
100043c6:	4921      	ldr	r1, [pc, #132]	; (1000444c <xPortStartScheduler+0x120>)
100043c8:	200f      	movs	r0, #15
100043ca:	f002 f82d 	bl	10006428 <exception_set_exclusive_handler>
100043ce:	4920      	ldr	r1, [pc, #128]	; (10004450 <xPortStartScheduler+0x124>)
100043d0:	200b      	movs	r0, #11
100043d2:	f002 f829 	bl	10006428 <exception_set_exclusive_handler>
100043d6:	f7ff ff25 	bl	10004224 <vPortSetupTimerInterrupt>
100043da:	6034      	str	r4, [r6, #0]
100043dc:	4b1d      	ldr	r3, [pc, #116]	; (10004454 <xPortStartScheduler+0x128>)
100043de:	682a      	ldr	r2, [r5, #0]
100043e0:	4639      	mov	r1, r7
100043e2:	2003      	movs	r0, #3
100043e4:	701a      	strb	r2, [r3, #0]
100043e6:	f002 f845 	bl	10006474 <multicore_doorbell_claim_unused>
100043ea:	4603      	mov	r3, r0
100043ec:	4a1a      	ldr	r2, [pc, #104]	; (10004458 <xPortStartScheduler+0x12c>)
100043ee:	b25b      	sxtb	r3, r3
100043f0:	7013      	strb	r3, [r2, #0]
100043f2:	fa07 f303 	lsl.w	r3, r7, r3
100043f6:	f8c5 318c 	str.w	r3, [r5, #396]	; 0x18c
100043fa:	21ff      	movs	r1, #255	; 0xff
100043fc:	f8c5 3184 	str.w	r3, [r5, #388]	; 0x184
10004400:	201a      	movs	r0, #26
10004402:	f7fc fa0b 	bl	1000081c <irq_set_priority>
10004406:	201a      	movs	r0, #26
10004408:	4914      	ldr	r1, [pc, #80]	; (1000445c <xPortStartScheduler+0x130>)
1000440a:	f7fc f8e3 	bl	100005d4 <irq_set_exclusive_handler>
1000440e:	4639      	mov	r1, r7
10004410:	201a      	movs	r0, #26
10004412:	f7fc f89b 	bl	1000054c <irq_set_enabled>
10004416:	f000 f979 	bl	1000470c <vStartFirstTask>
1000441a:	f001 fad9 	bl	100059d0 <vTaskSwitchContext>
1000441e:	9403      	str	r4, [sp, #12]
10004420:	6833      	ldr	r3, [r6, #0]
10004422:	3301      	adds	r3, #1
10004424:	d002      	beq.n	1000442c <xPortStartScheduler+0x100>
10004426:	e7fe      	b.n	10004426 <xPortStartScheduler+0xfa>
10004428:	2200      	movs	r2, #0
1000442a:	e7b1      	b.n	10004390 <xPortStartScheduler+0x64>
1000442c:	f000 f976 	bl	1000471c <ulSetInterruptMask>
10004430:	9b03      	ldr	r3, [sp, #12]
10004432:	2b00      	cmp	r3, #0
10004434:	d0fc      	beq.n	10004430 <xPortStartScheduler+0x104>
10004436:	2000      	movs	r0, #0
10004438:	b005      	add	sp, #20
1000443a:	bdf0      	pop	{r4, r5, r6, r7, pc}
1000443c:	20006027 	.word	0x20006027
10004440:	20005f20 	.word	0x20005f20
10004444:	10004745 	.word	0x10004745
10004448:	2000126c 	.word	0x2000126c
1000444c:	1000416d 	.word	0x1000416d
10004450:	100047b1 	.word	0x100047b1
10004454:	2000126a 	.word	0x2000126a
10004458:	20001269 	.word	0x20001269
1000445c:	10004191 	.word	0x10004191

10004460 <vPortValidateInterruptPriority>:
10004460:	f3ef 8305 	mrs	r3, IPSR
10004464:	2b0f      	cmp	r3, #15
10004466:	d906      	bls.n	10004476 <vPortValidateInterruptPriority+0x16>
10004468:	4909      	ldr	r1, [pc, #36]	; (10004490 <vPortValidateInterruptPriority+0x30>)
1000446a:	4a0a      	ldr	r2, [pc, #40]	; (10004494 <vPortValidateInterruptPriority+0x34>)
1000446c:	5c5b      	ldrb	r3, [r3, r1]
1000446e:	7812      	ldrb	r2, [r2, #0]
10004470:	429a      	cmp	r2, r3
10004472:	d900      	bls.n	10004476 <vPortValidateInterruptPriority+0x16>
10004474:	e7fe      	b.n	10004474 <vPortValidateInterruptPriority+0x14>
10004476:	f04f 23e0 	mov.w	r3, #3758153728	; 0xe000e000
1000447a:	4a07      	ldr	r2, [pc, #28]	; (10004498 <vPortValidateInterruptPriority+0x38>)
1000447c:	f8d3 3d0c 	ldr.w	r3, [r3, #3340]	; 0xd0c
10004480:	6812      	ldr	r2, [r2, #0]
10004482:	f403 63e0 	and.w	r3, r3, #1792	; 0x700
10004486:	4293      	cmp	r3, r2
10004488:	d900      	bls.n	1000448c <vPortValidateInterruptPriority+0x2c>
1000448a:	e7fe      	b.n	1000448a <vPortValidateInterruptPriority+0x2a>
1000448c:	4770      	bx	lr
1000448e:	bf00      	nop
10004490:	e000e3f0 	.word	0xe000e3f0
10004494:	20006027 	.word	0x20006027
10004498:	20005f20 	.word	0x20005f20

1000449c <ulPortLockGetCurrentOwnerId>:
1000449c:	f04f 4250 	mov.w	r2, #3489660928	; 0xd0000000
100044a0:	4b07      	ldr	r3, [pc, #28]	; (100044c0 <ulPortLockGetCurrentOwnerId+0x24>)
100044a2:	6810      	ldr	r0, [r2, #0]
100044a4:	781b      	ldrb	r3, [r3, #0]
100044a6:	4283      	cmp	r3, r0
100044a8:	d000      	beq.n	100044ac <ulPortLockGetCurrentOwnerId+0x10>
100044aa:	4770      	bx	lr
100044ac:	f3ef 8305 	mrs	r3, IPSR
100044b0:	b2db      	uxtb	r3, r3
100044b2:	b113      	cbz	r3, 100044ba <ulPortLockGetCurrentOwnerId+0x1e>
100044b4:	eb00 0043 	add.w	r0, r0, r3, lsl #1
100044b8:	4770      	bx	lr
100044ba:	f001 bd33 	b.w	10005f24 <xTaskGetCurrentTaskHandle>
100044be:	bf00      	nop
100044c0:	2000126a 	.word	0x2000126a

100044c4 <vPortLockInternalSpinUnlockWithNotify>:
100044c4:	b570      	push	{r4, r5, r6, lr}
100044c6:	f04f 4450 	mov.w	r4, #3489660928	; 0xd0000000
100044ca:	2201      	movs	r2, #1
100044cc:	4e35      	ldr	r6, [pc, #212]	; (100045a4 <vPortLockInternalSpinUnlockWithNotify+0xe0>)
100044ce:	4d36      	ldr	r5, [pc, #216]	; (100045a8 <vPortLockInternalSpinUnlockWithNotify+0xe4>)
100044d0:	f896 e000 	ldrb.w	lr, [r6]
100044d4:	6806      	ldr	r6, [r0, #0]
100044d6:	4b35      	ldr	r3, [pc, #212]	; (100045ac <vPortLockInternalSpinUnlockWithNotify+0xe8>)
100044d8:	eba6 0c05 	sub.w	ip, r6, r5
100044dc:	fba3 530c 	umull	r5, r3, r3, ip
100044e0:	6824      	ldr	r4, [r4, #0]
100044e2:	091b      	lsrs	r3, r3, #4
100044e4:	eb03 0343 	add.w	r3, r3, r3, lsl #1
100044e8:	ebac 03c3 	sub.w	r3, ip, r3, lsl #3
100044ec:	45a6      	cmp	lr, r4
100044ee:	b082      	sub	sp, #8
100044f0:	fa02 f203 	lsl.w	r2, r2, r3
100044f4:	d02c      	beq.n	10004550 <vPortLockInternalSpinUnlockWithNotify+0x8c>
100044f6:	bf40      	sev
100044f8:	4d2d      	ldr	r5, [pc, #180]	; (100045b0 <vPortLockInternalSpinUnlockWithNotify+0xec>)
100044fa:	6803      	ldr	r3, [r0, #0]
100044fc:	682c      	ldr	r4, [r5, #0]
100044fe:	42a3      	cmp	r3, r4
10004500:	d042      	beq.n	10004588 <vPortLockInternalSpinUnlockWithNotify+0xc4>
10004502:	e8d4 6fcf 	ldaexb	r6, [r4]
10004506:	2301      	movs	r3, #1
10004508:	2e00      	cmp	r6, #0
1000450a:	d1fa      	bne.n	10004502 <vPortLockInternalSpinUnlockWithNotify+0x3e>
1000450c:	e8c4 3f46 	strexb	r6, r3, [r4]
10004510:	2e00      	cmp	r6, #0
10004512:	d1f6      	bne.n	10004502 <vPortLockInternalSpinUnlockWithNotify+0x3e>
10004514:	f3bf 8f5f 	dmb	sy
10004518:	4c26      	ldr	r4, [pc, #152]	; (100045b4 <vPortLockInternalSpinUnlockWithNotify+0xf0>)
1000451a:	682d      	ldr	r5, [r5, #0]
1000451c:	6823      	ldr	r3, [r4, #0]
1000451e:	4313      	orrs	r3, r2
10004520:	6023      	str	r3, [r4, #0]
10004522:	2300      	movs	r3, #0
10004524:	e8c5 3f8f 	stlb	r3, [r5]
10004528:	6803      	ldr	r3, [r0, #0]
1000452a:	4a23      	ldr	r2, [pc, #140]	; (100045b8 <vPortLockInternalSpinUnlockWithNotify+0xf4>)
1000452c:	f992 2000 	ldrsb.w	r2, [r2]
10004530:	2a00      	cmp	r2, #0
10004532:	db06      	blt.n	10004542 <vPortLockInternalSpinUnlockWithNotify+0x7e>
10004534:	2001      	movs	r0, #1
10004536:	f04f 4450 	mov.w	r4, #3489660928	; 0xd0000000
1000453a:	fa00 f202 	lsl.w	r2, r0, r2
1000453e:	f8c4 2180 	str.w	r2, [r4, #384]	; 0x180
10004542:	2200      	movs	r2, #0
10004544:	e8c3 2f8f 	stlb	r2, [r3]
10004548:	f381 8810 	msr	PRIMASK, r1
1000454c:	b002      	add	sp, #8
1000454e:	bd70      	pop	{r4, r5, r6, pc}
10004550:	bf40      	sev
10004552:	2400      	movs	r4, #0
10004554:	6803      	ldr	r3, [r0, #0]
10004556:	e8c3 4f8f 	stlb	r4, [r3]
1000455a:	f381 8810 	msr	PRIMASK, r1
1000455e:	f3ef 8305 	mrs	r3, IPSR
10004562:	b2db      	uxtb	r3, r3
10004564:	b1ab      	cbz	r3, 10004592 <vPortLockInternalSpinUnlockWithNotify+0xce>
10004566:	4b15      	ldr	r3, [pc, #84]	; (100045bc <vPortLockInternalSpinUnlockWithNotify+0xf8>)
10004568:	4815      	ldr	r0, [pc, #84]	; (100045c0 <vPortLockInternalSpinUnlockWithNotify+0xfc>)
1000456a:	6819      	ldr	r1, [r3, #0]
1000456c:	ab01      	add	r3, sp, #4
1000456e:	9401      	str	r4, [sp, #4]
10004570:	f001 ff42 	bl	100063f8 <xTimerPendFunctionCallFromISR>
10004574:	9b01      	ldr	r3, [sp, #4]
10004576:	2b00      	cmp	r3, #0
10004578:	d0e8      	beq.n	1000454c <vPortLockInternalSpinUnlockWithNotify+0x88>
1000457a:	f04f 23e0 	mov.w	r3, #3758153728	; 0xe000e000
1000457e:	f04f 5280 	mov.w	r2, #268435456	; 0x10000000
10004582:	f8c3 2d04 	str.w	r2, [r3, #3332]	; 0xd04
10004586:	e7e1      	b.n	1000454c <vPortLockInternalSpinUnlockWithNotify+0x88>
10004588:	4c0a      	ldr	r4, [pc, #40]	; (100045b4 <vPortLockInternalSpinUnlockWithNotify+0xf0>)
1000458a:	6820      	ldr	r0, [r4, #0]
1000458c:	4302      	orrs	r2, r0
1000458e:	6022      	str	r2, [r4, #0]
10004590:	e7cb      	b.n	1000452a <vPortLockInternalSpinUnlockWithNotify+0x66>
10004592:	4611      	mov	r1, r2
10004594:	4b09      	ldr	r3, [pc, #36]	; (100045bc <vPortLockInternalSpinUnlockWithNotify+0xf8>)
10004596:	6818      	ldr	r0, [r3, #0]
10004598:	b002      	add	sp, #8
1000459a:	e8bd 4070 	ldmia.w	sp!, {r4, r5, r6, lr}
1000459e:	f000 b97f 	b.w	100048a0 <xEventGroupSetBits>
100045a2:	bf00      	nop
100045a4:	2000126a 	.word	0x2000126a
100045a8:	200015d0 	.word	0x200015d0
100045ac:	aaaaaaab 	.word	0xaaaaaaab
100045b0:	20001e88 	.word	0x20001e88
100045b4:	20005f38 	.word	0x20005f38
100045b8:	20001269 	.word	0x20001269
100045bc:	20005fa0 	.word	0x20005fa0
100045c0:	10004915 	.word	0x10004915

100045c4 <xPortLockInternalSpinUnlockWithBestEffortWaitOrTimeout>:
100045c4:	e92d 41f0 	stmdb	sp!, {r4, r5, r6, r7, r8, lr}
100045c8:	b082      	sub	sp, #8
100045ca:	f3ef 8c05 	mrs	ip, IPSR
100045ce:	f01c 04ff 	ands.w	r4, ip, #255	; 0xff
100045d2:	d12c      	bne.n	1000462e <xPortLockInternalSpinUnlockWithBestEffortWaitOrTimeout+0x6a>
100045d4:	461e      	mov	r6, r3
100045d6:	6803      	ldr	r3, [r0, #0]
100045d8:	4605      	mov	r5, r0
100045da:	b34b      	cbz	r3, 10004630 <xPortLockInternalSpinUnlockWithBestEffortWaitOrTimeout+0x6c>
100045dc:	4617      	mov	r7, r2
100045de:	f04f 4250 	mov.w	r2, #3489660928	; 0xd0000000
100045e2:	4688      	mov	r8, r1
100045e4:	4930      	ldr	r1, [pc, #192]	; (100046a8 <xPortLockInternalSpinUnlockWithBestEffortWaitOrTimeout+0xe4>)
100045e6:	6812      	ldr	r2, [r2, #0]
100045e8:	7809      	ldrb	r1, [r1, #0]
100045ea:	4291      	cmp	r1, r2
100045ec:	d121      	bne.n	10004632 <xPortLockInternalSpinUnlockWithBestEffortWaitOrTimeout+0x6e>
100045ee:	f7fc fdaf 	bl	10001150 <time_us_64>
100045f2:	f240 33e7 	movw	r3, #999	; 0x3e7
100045f6:	1a38      	subs	r0, r7, r0
100045f8:	eb66 0101 	sbc.w	r1, r6, r1
100045fc:	18c0      	adds	r0, r0, r3
100045fe:	f141 0100 	adc.w	r1, r1, #0
10004602:	f5b0 7f7a 	cmp.w	r0, #1000	; 0x3e8
10004606:	f171 0300 	sbcs.w	r3, r1, #0
1000460a:	da2b      	bge.n	10004664 <xPortLockInternalSpinUnlockWithBestEffortWaitOrTimeout+0xa0>
1000460c:	2300      	movs	r3, #0
1000460e:	682a      	ldr	r2, [r5, #0]
10004610:	e8c2 3f8f 	stlb	r3, [r2]
10004614:	f388 8810 	msr	PRIMASK, r8
10004618:	4a24      	ldr	r2, [pc, #144]	; (100046ac <xPortLockInternalSpinUnlockWithBestEffortWaitOrTimeout+0xe8>)
1000461a:	6a53      	ldr	r3, [r2, #36]	; 0x24
1000461c:	429e      	cmp	r6, r3
1000461e:	d815      	bhi.n	1000464c <xPortLockInternalSpinUnlockWithBestEffortWaitOrTimeout+0x88>
10004620:	6a92      	ldr	r2, [r2, #40]	; 0x28
10004622:	42ba      	cmp	r2, r7
10004624:	d310      	bcc.n	10004648 <xPortLockInternalSpinUnlockWithBestEffortWaitOrTimeout+0x84>
10004626:	2001      	movs	r0, #1
10004628:	b002      	add	sp, #8
1000462a:	e8bd 81f0 	ldmia.w	sp!, {r4, r5, r6, r7, r8, pc}
1000462e:	e7fe      	b.n	1000462e <xPortLockInternalSpinUnlockWithBestEffortWaitOrTimeout+0x6a>
10004630:	e7fe      	b.n	10004630 <xPortLockInternalSpinUnlockWithBestEffortWaitOrTimeout+0x6c>
10004632:	e8c3 4f8f 	stlb	r4, [r3]
10004636:	f388 8810 	msr	PRIMASK, r8
1000463a:	4638      	mov	r0, r7
1000463c:	4631      	mov	r1, r6
1000463e:	b002      	add	sp, #8
10004640:	e8bd 41f0 	ldmia.w	sp!, {r4, r5, r6, r7, r8, lr}
10004644:	f7fc bcfc 	b.w	10001040 <best_effort_wfe_or_timeout>
10004648:	429e      	cmp	r6, r3
1000464a:	d1ec      	bne.n	10004626 <xPortLockInternalSpinUnlockWithBestEffortWaitOrTimeout+0x62>
1000464c:	f04f 23e0 	mov.w	r3, #3758153728	; 0xe000e000
10004650:	f04f 5280 	mov.w	r2, #268435456	; 0x10000000
10004654:	f8c3 2d04 	str.w	r2, [r3, #3332]	; 0xd04
10004658:	f3bf 8f4f 	dsb	sy
1000465c:	f3bf 8f6f 	isb	sy
10004660:	2000      	movs	r0, #0
10004662:	e7e1      	b.n	10004628 <xPortLockInternalSpinUnlockWithBestEffortWaitOrTimeout+0x64>
10004664:	f44f 727a 	mov.w	r2, #1000	; 0x3e8
10004668:	2300      	movs	r3, #0
1000466a:	f002 f9a1 	bl	100069b0 <____aeabi_ldivmod_veneer>
1000466e:	2800      	cmp	r0, #0
10004670:	d0cc      	beq.n	1000460c <xPortLockInternalSpinUnlockWithBestEffortWaitOrTimeout+0x48>
10004672:	682b      	ldr	r3, [r5, #0]
10004674:	e8c3 4f8f 	stlb	r4, [r3]
10004678:	f388 8810 	msr	PRIMASK, r8
1000467c:	2201      	movs	r2, #1
1000467e:	9000      	str	r0, [sp, #0]
10004680:	6828      	ldr	r0, [r5, #0]
10004682:	490b      	ldr	r1, [pc, #44]	; (100046b0 <xPortLockInternalSpinUnlockWithBestEffortWaitOrTimeout+0xec>)
10004684:	4623      	mov	r3, r4
10004686:	1a40      	subs	r0, r0, r1
10004688:	490a      	ldr	r1, [pc, #40]	; (100046b4 <xPortLockInternalSpinUnlockWithBestEffortWaitOrTimeout+0xf0>)
1000468a:	fba1 4100 	umull	r4, r1, r1, r0
1000468e:	0909      	lsrs	r1, r1, #4
10004690:	eb01 0141 	add.w	r1, r1, r1, lsl #1
10004694:	eba0 01c1 	sub.w	r1, r0, r1, lsl #3
10004698:	4807      	ldr	r0, [pc, #28]	; (100046b8 <xPortLockInternalSpinUnlockWithBestEffortWaitOrTimeout+0xf4>)
1000469a:	fa02 f101 	lsl.w	r1, r2, r1
1000469e:	6800      	ldr	r0, [r0, #0]
100046a0:	f000 f8a0 	bl	100047e4 <xEventGroupWaitBits>
100046a4:	e7b8      	b.n	10004618 <xPortLockInternalSpinUnlockWithBestEffortWaitOrTimeout+0x54>
100046a6:	bf00      	nop
100046a8:	2000126a 	.word	0x2000126a
100046ac:	400b0000 	.word	0x400b0000
100046b0:	200015d0 	.word	0x200015d0
100046b4:	aaaaaaab 	.word	0xaaaaaaab
100046b8:	20005fa0 	.word	0x20005fa0

100046bc <prvRuntimeInitializer>:
100046bc:	b508      	push	{r3, lr}
100046be:	f7fb fef5 	bl	100004ac <next_striped_spin_lock_num>
100046c2:	4b04      	ldr	r3, [pc, #16]	; (100046d4 <prvRuntimeInitializer+0x18>)
100046c4:	4a04      	ldr	r2, [pc, #16]	; (100046d8 <prvRuntimeInitializer+0x1c>)
100046c6:	4418      	add	r0, r3
100046c8:	6010      	str	r0, [r2, #0]
100046ca:	f000 f87d 	bl	100047c8 <xEventGroupCreate>
100046ce:	4b03      	ldr	r3, [pc, #12]	; (100046dc <prvRuntimeInitializer+0x20>)
100046d0:	6018      	str	r0, [r3, #0]
100046d2:	bd08      	pop	{r3, pc}
100046d4:	200015d0 	.word	0x200015d0
100046d8:	20001e88 	.word	0x20001e88
100046dc:	20005fa0 	.word	0x20005fa0

100046e0 <vRestoreContextOfFirstTask>:
100046e0:	4a09      	ldr	r2, [pc, #36]	; (10004708 <vRestoreContextOfFirstTask+0x28>)
100046e2:	6811      	ldr	r1, [r2, #0]
100046e4:	6808      	ldr	r0, [r1, #0]
100046e6:	c806      	ldmia	r0!, {r1, r2}
100046e8:	f381 880b 	msr	PSPLIM, r1
100046ec:	2102      	movs	r1, #2
100046ee:	f381 8814 	msr	CONTROL, r1
100046f2:	3020      	adds	r0, #32
100046f4:	f380 8809 	msr	PSP, r0
100046f8:	f3bf 8f6f 	isb	sy
100046fc:	f04f 0000 	mov.w	r0, #0
10004700:	f380 8811 	msr	BASEPRI, r0
10004704:	4710      	bx	r2
10004706:	0000      	.short	0x0000
10004708:	20001e8c 	.word	0x20001e8c

1000470c <vStartFirstTask>:
1000470c:	b662      	cpsie	i
1000470e:	b661      	cpsie	f
10004710:	f3bf 8f4f 	dsb	sy
10004714:	f3bf 8f6f 	isb	sy
10004718:	df66      	svc	102	; 0x66
1000471a:	bf00      	nop

1000471c <ulSetInterruptMask>:
1000471c:	f3ef 8011 	mrs	r0, BASEPRI
10004720:	f04f 0110 	mov.w	r1, #16
10004724:	f381 8811 	msr	BASEPRI, r1
10004728:	f3bf 8f4f 	dsb	sy
1000472c:	f3bf 8f6f 	isb	sy
10004730:	4770      	bx	lr
10004732:	bf00      	nop

10004734 <vClearInterruptMask>:
10004734:	f380 8811 	msr	BASEPRI, r0
10004738:	f3bf 8f4f 	dsb	sy
1000473c:	f3bf 8f6f 	isb	sy
10004740:	4770      	bx	lr
10004742:	bf00      	nop

10004744 <PendSV_Handler>:
10004744:	f3ef 8109 	mrs	r1, PSP
10004748:	f3ef 820b 	mrs	r2, PSPLIM
1000474c:	4673      	mov	r3, lr
1000474e:	e921 0ffc 	stmdb	r1!, {r2, r3, r4, r5, r6, r7, r8, r9, sl, fp}
10004752:	fc55 4408 	dcp_pxmd r4, r5
10004756:	fc57 6409 	dcp_pymd r6, r7
1000475a:	fc59 840a 	dcp_pefd r8, r9
1000475e:	e901 03f0 	stmdb	r1, {r4, r5, r6, r7, r8, r9}
10004762:	4a12      	ldr	r2, [pc, #72]	; (100047ac <PendSV_Handler+0x68>)
10004764:	6813      	ldr	r3, [r2, #0]
10004766:	6019      	str	r1, [r3, #0]
10004768:	f04f 0110 	mov.w	r1, #16
1000476c:	f381 8811 	msr	BASEPRI, r1
10004770:	f3bf 8f4f 	dsb	sy
10004774:	f3bf 8f6f 	isb	sy
10004778:	f001 f92a 	bl	100059d0 <vTaskSwitchContext>
1000477c:	f04f 0000 	mov.w	r0, #0
10004780:	f380 8811 	msr	BASEPRI, r0
10004784:	4a09      	ldr	r2, [pc, #36]	; (100047ac <PendSV_Handler+0x68>)
10004786:	6811      	ldr	r1, [r2, #0]
10004788:	6808      	ldr	r0, [r1, #0]
1000478a:	3818      	subs	r0, #24
1000478c:	e8b0 03f0 	ldmia.w	r0!, {r4, r5, r6, r7, r8, r9}
10004790:	ec45 4400 	dcp_wxmd r4, r5
10004794:	ec47 6401 	dcp_wymd r6, r7
10004798:	ec49 8402 	dcp_wefd r8, r9
1000479c:	e8b0 0ffc 	ldmia.w	r0!, {r2, r3, r4, r5, r6, r7, r8, r9, sl, fp}
100047a0:	f382 880b 	msr	PSPLIM, r2
100047a4:	f380 8809 	msr	PSP, r0
100047a8:	4718      	bx	r3
100047aa:	0000      	.short	0x0000
100047ac:	20001e8c 	.word	0x20001e8c

100047b0 <SVC_Handler>:
100047b0:	f01e 0f04 	tst.w	lr, #4
100047b4:	bf0c      	ite	eq
100047b6:	f3ef 8008 	mrseq	r0, MSP
100047ba:	f3ef 8009 	mrsne	r0, PSP
100047be:	4901      	ldr	r1, [pc, #4]	; (100047c4 <SVC_Handler+0x14>)
100047c0:	4708      	bx	r1
100047c2:	0000      	.short	0x0000
100047c4:	100042a1 	.word	0x100042a1

100047c8 <xEventGroupCreate>:
100047c8:	b510      	push	{r4, lr}
100047ca:	2018      	movs	r0, #24
100047cc:	f001 fece 	bl	1000656c <pvPortMalloc>
100047d0:	4604      	mov	r4, r0
100047d2:	b120      	cbz	r0, 100047de <xEventGroupCreate+0x16>
100047d4:	2300      	movs	r3, #0
100047d6:	f840 3b04 	str.w	r3, [r0], #4
100047da:	f000 f8d3 	bl	10004984 <vListInitialise>
100047de:	4620      	mov	r0, r4
100047e0:	bd10      	pop	{r4, pc}
100047e2:	bf00      	nop

100047e4 <xEventGroupWaitBits>:
100047e4:	b130      	cbz	r0, 100047f4 <xEventGroupWaitBits+0x10>
100047e6:	e92d 43f8 	stmdb	sp!, {r3, r4, r5, r6, r7, r8, r9, lr}
100047ea:	f011 487f 	ands.w	r8, r1, #4278190080	; 0xff000000
100047ee:	460c      	mov	r4, r1
100047f0:	d001      	beq.n	100047f6 <xEventGroupWaitBits+0x12>
100047f2:	e7fe      	b.n	100047f2 <xEventGroupWaitBits+0xe>
100047f4:	e7fe      	b.n	100047f4 <xEventGroupWaitBits+0x10>
100047f6:	b901      	cbnz	r1, 100047fa <xEventGroupWaitBits+0x16>
100047f8:	e7fe      	b.n	100047f8 <xEventGroupWaitBits+0x14>
100047fa:	4607      	mov	r7, r0
100047fc:	4616      	mov	r6, r2
100047fe:	461d      	mov	r5, r3
10004800:	f001 fb96 	bl	10005f30 <xTaskGetSchedulerState>
10004804:	b910      	cbnz	r0, 1000480c <xEventGroupWaitBits+0x28>
10004806:	9b08      	ldr	r3, [sp, #32]
10004808:	b103      	cbz	r3, 1000480c <xEventGroupWaitBits+0x28>
1000480a:	e7fe      	b.n	1000480a <xEventGroupWaitBits+0x26>
1000480c:	f001 f8ae 	bl	1000596c <vTaskSuspendAll>
10004810:	f8d7 9000 	ldr.w	r9, [r7]
10004814:	b325      	cbz	r5, 10004860 <xEventGroupWaitBits+0x7c>
10004816:	ea34 0309 	bics.w	r3, r4, r9
1000481a:	d024      	beq.n	10004866 <xEventGroupWaitBits+0x82>
1000481c:	9b08      	ldr	r3, [sp, #32]
1000481e:	b34b      	cbz	r3, 10004874 <xEventGroupWaitBits+0x90>
10004820:	2e00      	cmp	r6, #0
10004822:	bf16      	itet	ne
10004824:	f04f 7880 	movne.w	r8, #16777216	; 0x1000000
10004828:	f04f 6180 	moveq.w	r1, #67108864	; 0x4000000
1000482c:	f04f 61a0 	movne.w	r1, #83886080	; 0x5000000
10004830:	2d00      	cmp	r5, #0
10004832:	bf08      	it	eq
10004834:	4641      	moveq	r1, r8
10004836:	461a      	mov	r2, r3
10004838:	1d38      	adds	r0, r7, #4
1000483a:	4321      	orrs	r1, r4
1000483c:	f001 f956 	bl	10005aec <vTaskPlaceOnUnorderedEventList>
10004840:	f001 f89c 	bl	1000597c <xTaskResumeAll>
10004844:	b908      	cbnz	r0, 1000484a <xEventGroupWaitBits+0x66>
10004846:	f7ff fd03 	bl	10004250 <vPortYield>
1000484a:	f001 fbd5 	bl	10005ff8 <uxTaskResetEventItemValue>
1000484e:	f010 7f00 	tst.w	r0, #33554432	; 0x2000000
10004852:	4681      	mov	r9, r0
10004854:	d011      	beq.n	1000487a <xEventGroupWaitBits+0x96>
10004856:	f029 497f 	bic.w	r9, r9, #4278190080	; 0xff000000
1000485a:	4648      	mov	r0, r9
1000485c:	e8bd 83f8 	ldmia.w	sp!, {r3, r4, r5, r6, r7, r8, r9, pc}
10004860:	ea14 0f09 	tst.w	r4, r9
10004864:	d0da      	beq.n	1000481c <xEventGroupWaitBits+0x38>
10004866:	b12e      	cbz	r6, 10004874 <xEventGroupWaitBits+0x90>
10004868:	ea29 0404 	bic.w	r4, r9, r4
1000486c:	603c      	str	r4, [r7, #0]
1000486e:	f001 f885 	bl	1000597c <xTaskResumeAll>
10004872:	e7f2      	b.n	1000485a <xEventGroupWaitBits+0x76>
10004874:	f001 f882 	bl	1000597c <xTaskResumeAll>
10004878:	e7ef      	b.n	1000485a <xEventGroupWaitBits+0x76>
1000487a:	f7ff fcf5 	bl	10004268 <vPortEnterCritical>
1000487e:	f8d7 9000 	ldr.w	r9, [r7]
10004882:	b94d      	cbnz	r5, 10004898 <xEventGroupWaitBits+0xb4>
10004884:	ea14 0f09 	tst.w	r4, r9
10004888:	d003      	beq.n	10004892 <xEventGroupWaitBits+0xae>
1000488a:	b116      	cbz	r6, 10004892 <xEventGroupWaitBits+0xae>
1000488c:	ea29 0404 	bic.w	r4, r9, r4
10004890:	603c      	str	r4, [r7, #0]
10004892:	f7ff fcf7 	bl	10004284 <vPortExitCritical>
10004896:	e7de      	b.n	10004856 <xEventGroupWaitBits+0x72>
10004898:	ea34 0309 	bics.w	r3, r4, r9
1000489c:	d1f9      	bne.n	10004892 <xEventGroupWaitBits+0xae>
1000489e:	e7f4      	b.n	1000488a <xEventGroupWaitBits+0xa6>

100048a0 <xEventGroupSetBits>:
100048a0:	b130      	cbz	r0, 100048b0 <xEventGroupSetBits+0x10>
100048a2:	e92d 41f0 	stmdb	sp!, {r4, r5, r6, r7, r8, lr}
100048a6:	f011 467f 	ands.w	r6, r1, #4278190080	; 0xff000000
100048aa:	4688      	mov	r8, r1
100048ac:	d001      	beq.n	100048b2 <xEventGroupSetBits+0x12>
100048ae:	e7fe      	b.n	100048ae <xEventGroupSetBits+0xe>
100048b0:	e7fe      	b.n	100048b0 <xEventGroupSetBits+0x10>
100048b2:	4605      	mov	r5, r0
100048b4:	f001 f85a 	bl	1000596c <vTaskSuspendAll>
100048b8:	682b      	ldr	r3, [r5, #0]
100048ba:	692c      	ldr	r4, [r5, #16]
100048bc:	f105 070c 	add.w	r7, r5, #12
100048c0:	ea48 0303 	orr.w	r3, r8, r3
100048c4:	42a7      	cmp	r7, r4
100048c6:	602b      	str	r3, [r5, #0]
100048c8:	d10c      	bne.n	100048e4 <xEventGroupSetBits+0x44>
100048ca:	e01c      	b.n	10004906 <xEventGroupSetBits+0x66>
100048cc:	ea13 0f0c 	tst.w	r3, ip
100048d0:	d006      	beq.n	100048e0 <xEventGroupSetBits+0x40>
100048d2:	01d3      	lsls	r3, r2, #7
100048d4:	bf48      	it	mi
100048d6:	ea46 060c 	orrmi.w	r6, r6, ip
100048da:	f001 fa79 	bl	10005dd0 <vTaskRemoveFromUnorderedEventList>
100048de:	682b      	ldr	r3, [r5, #0]
100048e0:	42a7      	cmp	r7, r4
100048e2:	d00e      	beq.n	10004902 <xEventGroupSetBits+0x62>
100048e4:	4620      	mov	r0, r4
100048e6:	6802      	ldr	r2, [r0, #0]
100048e8:	6864      	ldr	r4, [r4, #4]
100048ea:	f012 6f80 	tst.w	r2, #67108864	; 0x4000000
100048ee:	f043 7100 	orr.w	r1, r3, #33554432	; 0x2000000
100048f2:	f022 4c7f 	bic.w	ip, r2, #4278190080	; 0xff000000
100048f6:	d0e9      	beq.n	100048cc <xEventGroupSetBits+0x2c>
100048f8:	ea3c 0e03 	bics.w	lr, ip, r3
100048fc:	d0e9      	beq.n	100048d2 <xEventGroupSetBits+0x32>
100048fe:	42a7      	cmp	r7, r4
10004900:	d1f0      	bne.n	100048e4 <xEventGroupSetBits+0x44>
10004902:	ea23 0306 	bic.w	r3, r3, r6
10004906:	602b      	str	r3, [r5, #0]
10004908:	f001 f838 	bl	1000597c <xTaskResumeAll>
1000490c:	6828      	ldr	r0, [r5, #0]
1000490e:	e8bd 81f0 	ldmia.w	sp!, {r4, r5, r6, r7, r8, pc}
10004912:	bf00      	nop

10004914 <vEventGroupSetBitsCallback>:
10004914:	b130      	cbz	r0, 10004924 <vEventGroupSetBitsCallback+0x10>
10004916:	e92d 41f0 	stmdb	sp!, {r4, r5, r6, r7, r8, lr}
1000491a:	f011 467f 	ands.w	r6, r1, #4278190080	; 0xff000000
1000491e:	4688      	mov	r8, r1
10004920:	d001      	beq.n	10004926 <vEventGroupSetBitsCallback+0x12>
10004922:	e7fe      	b.n	10004922 <vEventGroupSetBitsCallback+0xe>
10004924:	e7fe      	b.n	10004924 <vEventGroupSetBitsCallback+0x10>
10004926:	4605      	mov	r5, r0
10004928:	f001 f820 	bl	1000596c <vTaskSuspendAll>
1000492c:	682b      	ldr	r3, [r5, #0]
1000492e:	692c      	ldr	r4, [r5, #16]
10004930:	f105 070c 	add.w	r7, r5, #12
10004934:	ea48 0303 	orr.w	r3, r8, r3
10004938:	42a7      	cmp	r7, r4
1000493a:	602b      	str	r3, [r5, #0]
1000493c:	d10c      	bne.n	10004958 <vEventGroupSetBitsCallback+0x44>
1000493e:	e01c      	b.n	1000497a <vEventGroupSetBitsCallback+0x66>
10004940:	ea1c 0f03 	tst.w	ip, r3
10004944:	d006      	beq.n	10004954 <vEventGroupSetBitsCallback+0x40>
10004946:	01d3      	lsls	r3, r2, #7
10004948:	bf48      	it	mi
1000494a:	ea46 060c 	orrmi.w	r6, r6, ip
1000494e:	f001 fa3f 	bl	10005dd0 <vTaskRemoveFromUnorderedEventList>
10004952:	682b      	ldr	r3, [r5, #0]
10004954:	42a7      	cmp	r7, r4
10004956:	d00e      	beq.n	10004976 <vEventGroupSetBitsCallback+0x62>
10004958:	4620      	mov	r0, r4
1000495a:	6802      	ldr	r2, [r0, #0]
1000495c:	6864      	ldr	r4, [r4, #4]
1000495e:	f012 6f80 	tst.w	r2, #67108864	; 0x4000000
10004962:	f043 7100 	orr.w	r1, r3, #33554432	; 0x2000000
10004966:	f022 4c7f 	bic.w	ip, r2, #4278190080	; 0xff000000
1000496a:	d0e9      	beq.n	10004940 <vEventGroupSetBitsCallback+0x2c>
1000496c:	ea3c 0e03 	bics.w	lr, ip, r3
10004970:	d0e9      	beq.n	10004946 <vEventGroupSetBitsCallback+0x32>
10004972:	42a7      	cmp	r7, r4
10004974:	d1f0      	bne.n	10004958 <vEventGroupSetBitsCallback+0x44>
10004976:	ea23 0306 	bic.w	r3, r3, r6
1000497a:	602b      	str	r3, [r5, #0]
1000497c:	e8bd 41f0 	ldmia.w	sp!, {r4, r5, r6, r7, r8, lr}
10004980:	f000 bffc 	b.w	1000597c <xTaskResumeAll>

10004984 <vListInitialise>:
10004984:	f04f 31ff 	mov.w	r1, #4294967295
10004988:	2200      	movs	r2, #0
1000498a:	f100 0308 	add.w	r3, r0, #8
1000498e:	e9c0 3101 	strd	r3, r1, [r0, #4]
10004992:	e9c0 3303 	strd	r3, r3, [r0, #12]
10004996:	6002      	str	r2, [r0, #0]
10004998:	4770      	bx	lr
1000499a:	bf00      	nop

1000499c <vListInitialiseItem>:
1000499c:	2300      	movs	r3, #0
1000499e:	6103      	str	r3, [r0, #16]
100049a0:	4770      	bx	lr
100049a2:	bf00      	nop

100049a4 <vListInsert>:
100049a4:	b430      	push	{r4, r5}
100049a6:	680d      	ldr	r5, [r1, #0]
100049a8:	1c6b      	adds	r3, r5, #1
100049aa:	d010      	beq.n	100049ce <vListInsert+0x2a>
100049ac:	f100 0308 	add.w	r3, r0, #8
100049b0:	461c      	mov	r4, r3
100049b2:	685b      	ldr	r3, [r3, #4]
100049b4:	681a      	ldr	r2, [r3, #0]
100049b6:	42aa      	cmp	r2, r5
100049b8:	d9fa      	bls.n	100049b0 <vListInsert+0xc>
100049ba:	6802      	ldr	r2, [r0, #0]
100049bc:	604b      	str	r3, [r1, #4]
100049be:	3201      	adds	r2, #1
100049c0:	6099      	str	r1, [r3, #8]
100049c2:	608c      	str	r4, [r1, #8]
100049c4:	6061      	str	r1, [r4, #4]
100049c6:	6108      	str	r0, [r1, #16]
100049c8:	bc30      	pop	{r4, r5}
100049ca:	6002      	str	r2, [r0, #0]
100049cc:	4770      	bx	lr
100049ce:	6904      	ldr	r4, [r0, #16]
100049d0:	6863      	ldr	r3, [r4, #4]
100049d2:	e7f2      	b.n	100049ba <vListInsert+0x16>

100049d4 <uxListRemove>:
100049d4:	4603      	mov	r3, r0
100049d6:	6902      	ldr	r2, [r0, #16]
100049d8:	b410      	push	{r4}
100049da:	6854      	ldr	r4, [r2, #4]
100049dc:	6840      	ldr	r0, [r0, #4]
100049de:	6899      	ldr	r1, [r3, #8]
100049e0:	429c      	cmp	r4, r3
100049e2:	6081      	str	r1, [r0, #8]
100049e4:	6048      	str	r0, [r1, #4]
100049e6:	bf08      	it	eq
100049e8:	6051      	streq	r1, [r2, #4]
100049ea:	2100      	movs	r1, #0
100049ec:	6810      	ldr	r0, [r2, #0]
100049ee:	f85d 4b04 	ldr.w	r4, [sp], #4
100049f2:	3801      	subs	r0, #1
100049f4:	6119      	str	r1, [r3, #16]
100049f6:	6010      	str	r0, [r2, #0]
100049f8:	4770      	bx	lr
100049fa:	bf00      	nop

100049fc <prvCopyDataToQueue>:
100049fc:	b570      	push	{r4, r5, r6, lr}
100049fe:	4615      	mov	r5, r2
10004a00:	6c02      	ldr	r2, [r0, #64]	; 0x40
10004a02:	4604      	mov	r4, r0
10004a04:	6b86      	ldr	r6, [r0, #56]	; 0x38
10004a06:	b92a      	cbnz	r2, 10004a14 <prvCopyDataToQueue+0x18>
10004a08:	6805      	ldr	r5, [r0, #0]
10004a0a:	b34d      	cbz	r5, 10004a60 <prvCopyDataToQueue+0x64>
10004a0c:	2000      	movs	r0, #0
10004a0e:	3601      	adds	r6, #1
10004a10:	63a6      	str	r6, [r4, #56]	; 0x38
10004a12:	bd70      	pop	{r4, r5, r6, pc}
10004a14:	b97d      	cbnz	r5, 10004a36 <prvCopyDataToQueue+0x3a>
10004a16:	6840      	ldr	r0, [r0, #4]
10004a18:	f001 fea8 	bl	1000676c <memcpy>
10004a1c:	6863      	ldr	r3, [r4, #4]
10004a1e:	6c22      	ldr	r2, [r4, #64]	; 0x40
10004a20:	4413      	add	r3, r2
10004a22:	68a2      	ldr	r2, [r4, #8]
10004a24:	6063      	str	r3, [r4, #4]
10004a26:	4293      	cmp	r3, r2
10004a28:	d3f0      	bcc.n	10004a0c <prvCopyDataToQueue+0x10>
10004a2a:	6823      	ldr	r3, [r4, #0]
10004a2c:	3601      	adds	r6, #1
10004a2e:	4628      	mov	r0, r5
10004a30:	6063      	str	r3, [r4, #4]
10004a32:	63a6      	str	r6, [r4, #56]	; 0x38
10004a34:	bd70      	pop	{r4, r5, r6, pc}
10004a36:	68c0      	ldr	r0, [r0, #12]
10004a38:	f001 fe98 	bl	1000676c <memcpy>
10004a3c:	6c22      	ldr	r2, [r4, #64]	; 0x40
10004a3e:	68e3      	ldr	r3, [r4, #12]
10004a40:	4251      	negs	r1, r2
10004a42:	1a9b      	subs	r3, r3, r2
10004a44:	6822      	ldr	r2, [r4, #0]
10004a46:	60e3      	str	r3, [r4, #12]
10004a48:	4293      	cmp	r3, r2
10004a4a:	d202      	bcs.n	10004a52 <prvCopyDataToQueue+0x56>
10004a4c:	68a3      	ldr	r3, [r4, #8]
10004a4e:	440b      	add	r3, r1
10004a50:	60e3      	str	r3, [r4, #12]
10004a52:	2d02      	cmp	r5, #2
10004a54:	d1da      	bne.n	10004a0c <prvCopyDataToQueue+0x10>
10004a56:	2e01      	cmp	r6, #1
10004a58:	bf38      	it	cc
10004a5a:	2601      	movcc	r6, #1
10004a5c:	2000      	movs	r0, #0
10004a5e:	e7d7      	b.n	10004a10 <prvCopyDataToQueue+0x14>
10004a60:	6880      	ldr	r0, [r0, #8]
10004a62:	f001 fa75 	bl	10005f50 <xTaskPriorityDisinherit>
10004a66:	3601      	adds	r6, #1
10004a68:	60a5      	str	r5, [r4, #8]
10004a6a:	e7d1      	b.n	10004a10 <prvCopyDataToQueue+0x14>

10004a6c <xQueueGenericCreate>:
10004a6c:	b900      	cbnz	r0, 10004a70 <xQueueGenericCreate+0x4>
10004a6e:	e7fe      	b.n	10004a6e <xQueueGenericCreate+0x2>
10004a70:	b570      	push	{r4, r5, r6, lr}
10004a72:	fba0 2301 	umull	r2, r3, r0, r1
10004a76:	4604      	mov	r4, r0
10004a78:	b082      	sub	sp, #8
10004a7a:	2b00      	cmp	r3, #0
10004a7c:	d135      	bne.n	10004aea <xQueueGenericCreate+0x7e>
10004a7e:	fb01 f000 	mul.w	r0, r1, r0
10004a82:	f110 0f49 	cmn.w	r0, #73	; 0x49
10004a86:	d900      	bls.n	10004a8a <xQueueGenericCreate+0x1e>
10004a88:	e7fe      	b.n	10004a88 <xQueueGenericCreate+0x1c>
10004a8a:	3048      	adds	r0, #72	; 0x48
10004a8c:	9101      	str	r1, [sp, #4]
10004a8e:	f001 fd6d 	bl	1000656c <pvPortMalloc>
10004a92:	4605      	mov	r5, r0
10004a94:	b320      	cbz	r0, 10004ae0 <xQueueGenericCreate+0x74>
10004a96:	9901      	ldr	r1, [sp, #4]
10004a98:	b329      	cbz	r1, 10004ae6 <xQueueGenericCreate+0x7a>
10004a9a:	f100 0348 	add.w	r3, r0, #72	; 0x48
10004a9e:	e9c5 410f 	strd	r4, r1, [r5, #60]	; 0x3c
10004aa2:	2600      	movs	r6, #0
10004aa4:	24ff      	movs	r4, #255	; 0xff
10004aa6:	602b      	str	r3, [r5, #0]
10004aa8:	f7ff fbde 	bl	10004268 <vPortEnterCritical>
10004aac:	6c29      	ldr	r1, [r5, #64]	; 0x40
10004aae:	6beb      	ldr	r3, [r5, #60]	; 0x3c
10004ab0:	682a      	ldr	r2, [r5, #0]
10004ab2:	fb01 f303 	mul.w	r3, r1, r3
10004ab6:	1a59      	subs	r1, r3, r1
10004ab8:	606a      	str	r2, [r5, #4]
10004aba:	4413      	add	r3, r2
10004abc:	440a      	add	r2, r1
10004abe:	63ae      	str	r6, [r5, #56]	; 0x38
10004ac0:	60ab      	str	r3, [r5, #8]
10004ac2:	f105 0010 	add.w	r0, r5, #16
10004ac6:	60ea      	str	r2, [r5, #12]
10004ac8:	f885 4044 	strb.w	r4, [r5, #68]	; 0x44
10004acc:	f885 4045 	strb.w	r4, [r5, #69]	; 0x45
10004ad0:	f7ff ff58 	bl	10004984 <vListInitialise>
10004ad4:	f105 0024 	add.w	r0, r5, #36	; 0x24
10004ad8:	f7ff ff54 	bl	10004984 <vListInitialise>
10004adc:	f7ff fbd2 	bl	10004284 <vPortExitCritical>
10004ae0:	4628      	mov	r0, r5
10004ae2:	b002      	add	sp, #8
10004ae4:	bd70      	pop	{r4, r5, r6, pc}
10004ae6:	4603      	mov	r3, r0
10004ae8:	e7d9      	b.n	10004a9e <xQueueGenericCreate+0x32>
10004aea:	e7cd      	b.n	10004a88 <xQueueGenericCreate+0x1c>

10004aec <xQueueGenericSend>:
10004aec:	e92d 43f0 	stmdb	sp!, {r4, r5, r6, r7, r8, r9, lr}
10004af0:	b085      	sub	sp, #20
10004af2:	9201      	str	r2, [sp, #4]
10004af4:	b158      	cbz	r0, 10004b0e <xQueueGenericSend+0x22>
10004af6:	4604      	mov	r4, r0
10004af8:	4688      	mov	r8, r1
10004afa:	461f      	mov	r7, r3
10004afc:	2900      	cmp	r1, #0
10004afe:	f000 808a 	beq.w	10004c16 <xQueueGenericSend+0x12a>
10004b02:	2f02      	cmp	r7, #2
10004b04:	d104      	bne.n	10004b10 <xQueueGenericSend+0x24>
10004b06:	6be3      	ldr	r3, [r4, #60]	; 0x3c
10004b08:	2b01      	cmp	r3, #1
10004b0a:	d001      	beq.n	10004b10 <xQueueGenericSend+0x24>
10004b0c:	e7fe      	b.n	10004b0c <xQueueGenericSend+0x20>
10004b0e:	e7fe      	b.n	10004b0e <xQueueGenericSend+0x22>
10004b10:	f001 fa0e 	bl	10005f30 <xTaskGetSchedulerState>
10004b14:	4605      	mov	r5, r0
10004b16:	2800      	cmp	r0, #0
10004b18:	f000 8082 	beq.w	10004c20 <xQueueGenericSend+0x134>
10004b1c:	2500      	movs	r5, #0
10004b1e:	f104 0624 	add.w	r6, r4, #36	; 0x24
10004b22:	f7ff fba1 	bl	10004268 <vPortEnterCritical>
10004b26:	6ba2      	ldr	r2, [r4, #56]	; 0x38
10004b28:	6be3      	ldr	r3, [r4, #60]	; 0x3c
10004b2a:	429a      	cmp	r2, r3
10004b2c:	f0c0 80ce 	bcc.w	10004ccc <xQueueGenericSend+0x1e0>
10004b30:	2f02      	cmp	r7, #2
10004b32:	f000 80cb 	beq.w	10004ccc <xQueueGenericSend+0x1e0>
10004b36:	9801      	ldr	r0, [sp, #4]
10004b38:	2800      	cmp	r0, #0
10004b3a:	f000 80db 	beq.w	10004cf4 <xQueueGenericSend+0x208>
10004b3e:	2d00      	cmp	r5, #0
10004b40:	f000 80c0 	beq.w	10004cc4 <xQueueGenericSend+0x1d8>
10004b44:	f7ff fb9e 	bl	10004284 <vPortExitCritical>
10004b48:	f000 ff10 	bl	1000596c <vTaskSuspendAll>
10004b4c:	f7ff fb8c 	bl	10004268 <vPortEnterCritical>
10004b50:	f894 3044 	ldrb.w	r3, [r4, #68]	; 0x44
10004b54:	2bff      	cmp	r3, #255	; 0xff
10004b56:	bf04      	itt	eq
10004b58:	2300      	moveq	r3, #0
10004b5a:	f884 3044 	strbeq.w	r3, [r4, #68]	; 0x44
10004b5e:	f894 3045 	ldrb.w	r3, [r4, #69]	; 0x45
10004b62:	2bff      	cmp	r3, #255	; 0xff
10004b64:	bf04      	itt	eq
10004b66:	2300      	moveq	r3, #0
10004b68:	f884 3045 	strbeq.w	r3, [r4, #69]	; 0x45
10004b6c:	f7ff fb8a 	bl	10004284 <vPortExitCritical>
10004b70:	a802      	add	r0, sp, #8
10004b72:	a901      	add	r1, sp, #4
10004b74:	f001 f99a 	bl	10005eac <xTaskCheckForTimeOut>
10004b78:	2800      	cmp	r0, #0
10004b7a:	f040 80c0 	bne.w	10004cfe <xQueueGenericSend+0x212>
10004b7e:	f7ff fb73 	bl	10004268 <vPortEnterCritical>
10004b82:	6ba2      	ldr	r2, [r4, #56]	; 0x38
10004b84:	6be3      	ldr	r3, [r4, #60]	; 0x3c
10004b86:	429a      	cmp	r2, r3
10004b88:	d04f      	beq.n	10004c2a <xQueueGenericSend+0x13e>
10004b8a:	f7ff fb7b 	bl	10004284 <vPortExitCritical>
10004b8e:	f7ff fb6b 	bl	10004268 <vPortEnterCritical>
10004b92:	f894 2045 	ldrb.w	r2, [r4, #69]	; 0x45
10004b96:	b255      	sxtb	r5, r2
10004b98:	2d00      	cmp	r5, #0
10004b9a:	dc04      	bgt.n	10004ba6 <xQueueGenericSend+0xba>
10004b9c:	e011      	b.n	10004bc2 <xQueueGenericSend+0xd6>
10004b9e:	1e6a      	subs	r2, r5, #1
10004ba0:	b2d3      	uxtb	r3, r2
10004ba2:	b255      	sxtb	r5, r2
10004ba4:	b16b      	cbz	r3, 10004bc2 <xQueueGenericSend+0xd6>
10004ba6:	6a63      	ldr	r3, [r4, #36]	; 0x24
10004ba8:	b15b      	cbz	r3, 10004bc2 <xQueueGenericSend+0xd6>
10004baa:	4630      	mov	r0, r6
10004bac:	f001 f89e 	bl	10005cec <xTaskRemoveFromEventList>
10004bb0:	2800      	cmp	r0, #0
10004bb2:	d0f4      	beq.n	10004b9e <xQueueGenericSend+0xb2>
10004bb4:	f001 f9b0 	bl	10005f18 <vTaskMissedYield>
10004bb8:	1e6a      	subs	r2, r5, #1
10004bba:	b2d3      	uxtb	r3, r2
10004bbc:	b255      	sxtb	r5, r2
10004bbe:	2b00      	cmp	r3, #0
10004bc0:	d1f1      	bne.n	10004ba6 <xQueueGenericSend+0xba>
10004bc2:	23ff      	movs	r3, #255	; 0xff
10004bc4:	f884 3045 	strb.w	r3, [r4, #69]	; 0x45
10004bc8:	f7ff fb5c 	bl	10004284 <vPortExitCritical>
10004bcc:	f7ff fb4c 	bl	10004268 <vPortEnterCritical>
10004bd0:	f894 2044 	ldrb.w	r2, [r4, #68]	; 0x44
10004bd4:	b255      	sxtb	r5, r2
10004bd6:	2d00      	cmp	r5, #0
10004bd8:	dd14      	ble.n	10004c04 <xQueueGenericSend+0x118>
10004bda:	f104 0910 	add.w	r9, r4, #16
10004bde:	e003      	b.n	10004be8 <xQueueGenericSend+0xfc>
10004be0:	1e6a      	subs	r2, r5, #1
10004be2:	b2d3      	uxtb	r3, r2
10004be4:	b255      	sxtb	r5, r2
10004be6:	b16b      	cbz	r3, 10004c04 <xQueueGenericSend+0x118>
10004be8:	6923      	ldr	r3, [r4, #16]
10004bea:	b15b      	cbz	r3, 10004c04 <xQueueGenericSend+0x118>
10004bec:	4648      	mov	r0, r9
10004bee:	f001 f87d 	bl	10005cec <xTaskRemoveFromEventList>
10004bf2:	2800      	cmp	r0, #0
10004bf4:	d0f4      	beq.n	10004be0 <xQueueGenericSend+0xf4>
10004bf6:	f001 f98f 	bl	10005f18 <vTaskMissedYield>
10004bfa:	1e6a      	subs	r2, r5, #1
10004bfc:	b2d3      	uxtb	r3, r2
10004bfe:	b255      	sxtb	r5, r2
10004c00:	2b00      	cmp	r3, #0
10004c02:	d1f1      	bne.n	10004be8 <xQueueGenericSend+0xfc>
10004c04:	23ff      	movs	r3, #255	; 0xff
10004c06:	f884 3044 	strb.w	r3, [r4, #68]	; 0x44
10004c0a:	f7ff fb3b 	bl	10004284 <vPortExitCritical>
10004c0e:	f000 feb5 	bl	1000597c <xTaskResumeAll>
10004c12:	2501      	movs	r5, #1
10004c14:	e785      	b.n	10004b22 <xQueueGenericSend+0x36>
10004c16:	6c03      	ldr	r3, [r0, #64]	; 0x40
10004c18:	2b00      	cmp	r3, #0
10004c1a:	f43f af72 	beq.w	10004b02 <xQueueGenericSend+0x16>
10004c1e:	e7fe      	b.n	10004c1e <xQueueGenericSend+0x132>
10004c20:	9b01      	ldr	r3, [sp, #4]
10004c22:	2b00      	cmp	r3, #0
10004c24:	f43f af7b 	beq.w	10004b1e <xQueueGenericSend+0x32>
10004c28:	e7fe      	b.n	10004c28 <xQueueGenericSend+0x13c>
10004c2a:	f104 0910 	add.w	r9, r4, #16
10004c2e:	f7ff fb29 	bl	10004284 <vPortExitCritical>
10004c32:	4648      	mov	r0, r9
10004c34:	9901      	ldr	r1, [sp, #4]
10004c36:	f000 fefd 	bl	10005a34 <vTaskPlaceOnEventList>
10004c3a:	f7ff fb15 	bl	10004268 <vPortEnterCritical>
10004c3e:	f894 3045 	ldrb.w	r3, [r4, #69]	; 0x45
10004c42:	b25d      	sxtb	r5, r3
10004c44:	2d00      	cmp	r5, #0
10004c46:	dc04      	bgt.n	10004c52 <xQueueGenericSend+0x166>
10004c48:	e011      	b.n	10004c6e <xQueueGenericSend+0x182>
10004c4a:	1e6b      	subs	r3, r5, #1
10004c4c:	b2da      	uxtb	r2, r3
10004c4e:	b25d      	sxtb	r5, r3
10004c50:	b16a      	cbz	r2, 10004c6e <xQueueGenericSend+0x182>
10004c52:	6a63      	ldr	r3, [r4, #36]	; 0x24
10004c54:	b15b      	cbz	r3, 10004c6e <xQueueGenericSend+0x182>
10004c56:	4630      	mov	r0, r6
10004c58:	f001 f848 	bl	10005cec <xTaskRemoveFromEventList>
10004c5c:	2800      	cmp	r0, #0
10004c5e:	d0f4      	beq.n	10004c4a <xQueueGenericSend+0x15e>
10004c60:	f001 f95a 	bl	10005f18 <vTaskMissedYield>
10004c64:	1e6b      	subs	r3, r5, #1
10004c66:	b2da      	uxtb	r2, r3
10004c68:	b25d      	sxtb	r5, r3
10004c6a:	2a00      	cmp	r2, #0
10004c6c:	d1f1      	bne.n	10004c52 <xQueueGenericSend+0x166>
10004c6e:	23ff      	movs	r3, #255	; 0xff
10004c70:	f884 3045 	strb.w	r3, [r4, #69]	; 0x45
10004c74:	f7ff fb06 	bl	10004284 <vPortExitCritical>
10004c78:	f7ff faf6 	bl	10004268 <vPortEnterCritical>
10004c7c:	f894 3044 	ldrb.w	r3, [r4, #68]	; 0x44
10004c80:	b25d      	sxtb	r5, r3
10004c82:	2d00      	cmp	r5, #0
10004c84:	dc04      	bgt.n	10004c90 <xQueueGenericSend+0x1a4>
10004c86:	e011      	b.n	10004cac <xQueueGenericSend+0x1c0>
10004c88:	1e6b      	subs	r3, r5, #1
10004c8a:	b2da      	uxtb	r2, r3
10004c8c:	b25d      	sxtb	r5, r3
10004c8e:	b16a      	cbz	r2, 10004cac <xQueueGenericSend+0x1c0>
10004c90:	6923      	ldr	r3, [r4, #16]
10004c92:	b15b      	cbz	r3, 10004cac <xQueueGenericSend+0x1c0>
10004c94:	4648      	mov	r0, r9
10004c96:	f001 f829 	bl	10005cec <xTaskRemoveFromEventList>
10004c9a:	2800      	cmp	r0, #0
10004c9c:	d0f4      	beq.n	10004c88 <xQueueGenericSend+0x19c>
10004c9e:	f001 f93b 	bl	10005f18 <vTaskMissedYield>
10004ca2:	1e6b      	subs	r3, r5, #1
10004ca4:	b2da      	uxtb	r2, r3
10004ca6:	b25d      	sxtb	r5, r3
10004ca8:	2a00      	cmp	r2, #0
10004caa:	d1f1      	bne.n	10004c90 <xQueueGenericSend+0x1a4>
10004cac:	23ff      	movs	r3, #255	; 0xff
10004cae:	f884 3044 	strb.w	r3, [r4, #68]	; 0x44
10004cb2:	f7ff fae7 	bl	10004284 <vPortExitCritical>
10004cb6:	f000 fe61 	bl	1000597c <xTaskResumeAll>
10004cba:	2800      	cmp	r0, #0
10004cbc:	d1a9      	bne.n	10004c12 <xQueueGenericSend+0x126>
10004cbe:	f7ff fac7 	bl	10004250 <vPortYield>
10004cc2:	e7a6      	b.n	10004c12 <xQueueGenericSend+0x126>
10004cc4:	a802      	add	r0, sp, #8
10004cc6:	f001 f8e5 	bl	10005e94 <vTaskInternalSetTimeOutState>
10004cca:	e73b      	b.n	10004b44 <xQueueGenericSend+0x58>
10004ccc:	463a      	mov	r2, r7
10004cce:	4641      	mov	r1, r8
10004cd0:	4620      	mov	r0, r4
10004cd2:	f7ff fe93 	bl	100049fc <prvCopyDataToQueue>
10004cd6:	6a63      	ldr	r3, [r4, #36]	; 0x24
10004cd8:	b93b      	cbnz	r3, 10004cea <xQueueGenericSend+0x1fe>
10004cda:	2800      	cmp	r0, #0
10004cdc:	d14d      	bne.n	10004d7a <xQueueGenericSend+0x28e>
10004cde:	f7ff fad1 	bl	10004284 <vPortExitCritical>
10004ce2:	2001      	movs	r0, #1
10004ce4:	b005      	add	sp, #20
10004ce6:	e8bd 83f0 	ldmia.w	sp!, {r4, r5, r6, r7, r8, r9, pc}
10004cea:	f104 0024 	add.w	r0, r4, #36	; 0x24
10004cee:	f000 fffd 	bl	10005cec <xTaskRemoveFromEventList>
10004cf2:	e7f2      	b.n	10004cda <xQueueGenericSend+0x1ee>
10004cf4:	9000      	str	r0, [sp, #0]
10004cf6:	f7ff fac5 	bl	10004284 <vPortExitCritical>
10004cfa:	9800      	ldr	r0, [sp, #0]
10004cfc:	e7f2      	b.n	10004ce4 <xQueueGenericSend+0x1f8>
10004cfe:	f7ff fab3 	bl	10004268 <vPortEnterCritical>
10004d02:	f894 3045 	ldrb.w	r3, [r4, #69]	; 0x45
10004d06:	b25d      	sxtb	r5, r3
10004d08:	2d00      	cmp	r5, #0
10004d0a:	dd10      	ble.n	10004d2e <xQueueGenericSend+0x242>
10004d0c:	f104 0624 	add.w	r6, r4, #36	; 0x24
10004d10:	e003      	b.n	10004d1a <xQueueGenericSend+0x22e>
10004d12:	1e6b      	subs	r3, r5, #1
10004d14:	b2da      	uxtb	r2, r3
10004d16:	b25d      	sxtb	r5, r3
10004d18:	b14a      	cbz	r2, 10004d2e <xQueueGenericSend+0x242>
10004d1a:	6a63      	ldr	r3, [r4, #36]	; 0x24
10004d1c:	b13b      	cbz	r3, 10004d2e <xQueueGenericSend+0x242>
10004d1e:	4630      	mov	r0, r6
10004d20:	f000 ffe4 	bl	10005cec <xTaskRemoveFromEventList>
10004d24:	2800      	cmp	r0, #0
10004d26:	d0f4      	beq.n	10004d12 <xQueueGenericSend+0x226>
10004d28:	f001 f8f6 	bl	10005f18 <vTaskMissedYield>
10004d2c:	e7f1      	b.n	10004d12 <xQueueGenericSend+0x226>
10004d2e:	23ff      	movs	r3, #255	; 0xff
10004d30:	f884 3045 	strb.w	r3, [r4, #69]	; 0x45
10004d34:	f7ff faa6 	bl	10004284 <vPortExitCritical>
10004d38:	f7ff fa96 	bl	10004268 <vPortEnterCritical>
10004d3c:	f894 3044 	ldrb.w	r3, [r4, #68]	; 0x44
10004d40:	b25d      	sxtb	r5, r3
10004d42:	2d00      	cmp	r5, #0
10004d44:	dd10      	ble.n	10004d68 <xQueueGenericSend+0x27c>
10004d46:	f104 0610 	add.w	r6, r4, #16
10004d4a:	e003      	b.n	10004d54 <xQueueGenericSend+0x268>
10004d4c:	1e6b      	subs	r3, r5, #1
10004d4e:	b2da      	uxtb	r2, r3
10004d50:	b25d      	sxtb	r5, r3
10004d52:	b14a      	cbz	r2, 10004d68 <xQueueGenericSend+0x27c>
10004d54:	6923      	ldr	r3, [r4, #16]
10004d56:	b13b      	cbz	r3, 10004d68 <xQueueGenericSend+0x27c>
10004d58:	4630      	mov	r0, r6
10004d5a:	f000 ffc7 	bl	10005cec <xTaskRemoveFromEventList>
10004d5e:	2800      	cmp	r0, #0
10004d60:	d0f4      	beq.n	10004d4c <xQueueGenericSend+0x260>
10004d62:	f001 f8d9 	bl	10005f18 <vTaskMissedYield>
10004d66:	e7f1      	b.n	10004d4c <xQueueGenericSend+0x260>
10004d68:	23ff      	movs	r3, #255	; 0xff
10004d6a:	f884 3044 	strb.w	r3, [r4, #68]	; 0x44
10004d6e:	f7ff fa89 	bl	10004284 <vPortExitCritical>
10004d72:	f000 fe03 	bl	1000597c <xTaskResumeAll>
10004d76:	2000      	movs	r0, #0
10004d78:	e7b4      	b.n	10004ce4 <xQueueGenericSend+0x1f8>
10004d7a:	f7ff fa69 	bl	10004250 <vPortYield>
10004d7e:	e7ae      	b.n	10004cde <xQueueGenericSend+0x1f2>

10004d80 <xQueueGenericSendFromISR>:
10004d80:	b160      	cbz	r0, 10004d9c <xQueueGenericSendFromISR+0x1c>
10004d82:	e92d 41f0 	stmdb	sp!, {r4, r5, r6, r7, r8, lr}
10004d86:	4604      	mov	r4, r0
10004d88:	460e      	mov	r6, r1
10004d8a:	4617      	mov	r7, r2
10004d8c:	461d      	mov	r5, r3
10004d8e:	b1b1      	cbz	r1, 10004dbe <xQueueGenericSendFromISR+0x3e>
10004d90:	2d02      	cmp	r5, #2
10004d92:	d104      	bne.n	10004d9e <xQueueGenericSendFromISR+0x1e>
10004d94:	6be3      	ldr	r3, [r4, #60]	; 0x3c
10004d96:	2b01      	cmp	r3, #1
10004d98:	d015      	beq.n	10004dc6 <xQueueGenericSendFromISR+0x46>
10004d9a:	e7fe      	b.n	10004d9a <xQueueGenericSendFromISR+0x1a>
10004d9c:	e7fe      	b.n	10004d9c <xQueueGenericSendFromISR+0x1c>
10004d9e:	f7ff fb5f 	bl	10004460 <vPortValidateInterruptPriority>
10004da2:	f7ff fcbb 	bl	1000471c <ulSetInterruptMask>
10004da6:	6ba2      	ldr	r2, [r4, #56]	; 0x38
10004da8:	6be3      	ldr	r3, [r4, #60]	; 0x3c
10004daa:	4680      	mov	r8, r0
10004dac:	429a      	cmp	r2, r3
10004dae:	d310      	bcc.n	10004dd2 <xQueueGenericSendFromISR+0x52>
10004db0:	2500      	movs	r5, #0
10004db2:	4640      	mov	r0, r8
10004db4:	f7ff fcbe 	bl	10004734 <vClearInterruptMask>
10004db8:	4628      	mov	r0, r5
10004dba:	e8bd 81f0 	ldmia.w	sp!, {r4, r5, r6, r7, r8, pc}
10004dbe:	6c03      	ldr	r3, [r0, #64]	; 0x40
10004dc0:	2b00      	cmp	r3, #0
10004dc2:	d0e5      	beq.n	10004d90 <xQueueGenericSendFromISR+0x10>
10004dc4:	e7fe      	b.n	10004dc4 <xQueueGenericSendFromISR+0x44>
10004dc6:	f7ff fb4b 	bl	10004460 <vPortValidateInterruptPriority>
10004dca:	f7ff fca7 	bl	1000471c <ulSetInterruptMask>
10004dce:	4680      	mov	r8, r0
10004dd0:	6ba3      	ldr	r3, [r4, #56]	; 0x38
10004dd2:	462a      	mov	r2, r5
10004dd4:	f894 5045 	ldrb.w	r5, [r4, #69]	; 0x45
10004dd8:	4631      	mov	r1, r6
10004dda:	4620      	mov	r0, r4
10004ddc:	b26d      	sxtb	r5, r5
10004dde:	6ba3      	ldr	r3, [r4, #56]	; 0x38
10004de0:	f7ff fe0c 	bl	100049fc <prvCopyDataToQueue>
10004de4:	1c6b      	adds	r3, r5, #1
10004de6:	d108      	bne.n	10004dfa <xQueueGenericSendFromISR+0x7a>
10004de8:	6a63      	ldr	r3, [r4, #36]	; 0x24
10004dea:	b99b      	cbnz	r3, 10004e14 <xQueueGenericSendFromISR+0x94>
10004dec:	2501      	movs	r5, #1
10004dee:	4640      	mov	r0, r8
10004df0:	f7ff fca0 	bl	10004734 <vClearInterruptMask>
10004df4:	4628      	mov	r0, r5
10004df6:	e8bd 81f0 	ldmia.w	sp!, {r4, r5, r6, r7, r8, pc}
10004dfa:	f000 fdd3 	bl	100059a4 <uxTaskGetNumberOfTasks>
10004dfe:	4285      	cmp	r5, r0
10004e00:	d2f4      	bcs.n	10004dec <xQueueGenericSendFromISR+0x6c>
10004e02:	2d7f      	cmp	r5, #127	; 0x7f
10004e04:	d005      	beq.n	10004e12 <xQueueGenericSendFromISR+0x92>
10004e06:	1c6b      	adds	r3, r5, #1
10004e08:	b25b      	sxtb	r3, r3
10004e0a:	2501      	movs	r5, #1
10004e0c:	f884 3045 	strb.w	r3, [r4, #69]	; 0x45
10004e10:	e7cf      	b.n	10004db2 <xQueueGenericSendFromISR+0x32>
10004e12:	e7fe      	b.n	10004e12 <xQueueGenericSendFromISR+0x92>
10004e14:	f104 0024 	add.w	r0, r4, #36	; 0x24
10004e18:	f000 ff68 	bl	10005cec <xTaskRemoveFromEventList>
10004e1c:	2800      	cmp	r0, #0
10004e1e:	d0e5      	beq.n	10004dec <xQueueGenericSendFromISR+0x6c>
10004e20:	2f00      	cmp	r7, #0
10004e22:	d0e3      	beq.n	10004dec <xQueueGenericSendFromISR+0x6c>
10004e24:	2301      	movs	r3, #1
10004e26:	461d      	mov	r5, r3
10004e28:	603b      	str	r3, [r7, #0]
10004e2a:	e7c2      	b.n	10004db2 <xQueueGenericSendFromISR+0x32>

10004e2c <xQueueReceive>:
10004e2c:	e92d 43f0 	stmdb	sp!, {r4, r5, r6, r7, r8, r9, lr}
10004e30:	b085      	sub	sp, #20
10004e32:	9201      	str	r2, [sp, #4]
10004e34:	2800      	cmp	r0, #0
10004e36:	f000 8087 	beq.w	10004f48 <xQueueReceive+0x11c>
10004e3a:	4604      	mov	r4, r0
10004e3c:	460f      	mov	r7, r1
10004e3e:	2900      	cmp	r1, #0
10004e40:	f000 8083 	beq.w	10004f4a <xQueueReceive+0x11e>
10004e44:	f001 f874 	bl	10005f30 <xTaskGetSchedulerState>
10004e48:	2800      	cmp	r0, #0
10004e4a:	f000 8083 	beq.w	10004f54 <xQueueReceive+0x128>
10004e4e:	f7ff fa0b 	bl	10004268 <vPortEnterCritical>
10004e52:	6ba5      	ldr	r5, [r4, #56]	; 0x38
10004e54:	2d00      	cmp	r5, #0
10004e56:	f040 811e 	bne.w	10005096 <xQueueReceive+0x26a>
10004e5a:	9b01      	ldr	r3, [sp, #4]
10004e5c:	2b00      	cmp	r3, #0
10004e5e:	f000 80cf 	beq.w	10005000 <xQueueReceive+0x1d4>
10004e62:	a802      	add	r0, sp, #8
10004e64:	f001 f816 	bl	10005e94 <vTaskInternalSetTimeOutState>
10004e68:	46a8      	mov	r8, r5
10004e6a:	f104 0624 	add.w	r6, r4, #36	; 0x24
10004e6e:	f7ff fa09 	bl	10004284 <vPortExitCritical>
10004e72:	f000 fd7b 	bl	1000596c <vTaskSuspendAll>
10004e76:	f7ff f9f7 	bl	10004268 <vPortEnterCritical>
10004e7a:	f894 3044 	ldrb.w	r3, [r4, #68]	; 0x44
10004e7e:	2bff      	cmp	r3, #255	; 0xff
10004e80:	bf08      	it	eq
10004e82:	f884 8044 	strbeq.w	r8, [r4, #68]	; 0x44
10004e86:	f894 3045 	ldrb.w	r3, [r4, #69]	; 0x45
10004e8a:	2bff      	cmp	r3, #255	; 0xff
10004e8c:	bf08      	it	eq
10004e8e:	f884 8045 	strbeq.w	r8, [r4, #69]	; 0x45
10004e92:	f7ff f9f7 	bl	10004284 <vPortExitCritical>
10004e96:	a901      	add	r1, sp, #4
10004e98:	a802      	add	r0, sp, #8
10004e9a:	f001 f807 	bl	10005eac <xTaskCheckForTimeOut>
10004e9e:	2800      	cmp	r0, #0
10004ea0:	d15d      	bne.n	10004f5e <xQueueReceive+0x132>
10004ea2:	f7ff f9e1 	bl	10004268 <vPortEnterCritical>
10004ea6:	6ba3      	ldr	r3, [r4, #56]	; 0x38
10004ea8:	2b00      	cmp	r3, #0
10004eaa:	f040 80af 	bne.w	1000500c <xQueueReceive+0x1e0>
10004eae:	f7ff f9e9 	bl	10004284 <vPortExitCritical>
10004eb2:	4630      	mov	r0, r6
10004eb4:	9901      	ldr	r1, [sp, #4]
10004eb6:	f000 fdbd 	bl	10005a34 <vTaskPlaceOnEventList>
10004eba:	f7ff f9d5 	bl	10004268 <vPortEnterCritical>
10004ebe:	f894 3045 	ldrb.w	r3, [r4, #69]	; 0x45
10004ec2:	b25d      	sxtb	r5, r3
10004ec4:	2d00      	cmp	r5, #0
10004ec6:	dc04      	bgt.n	10004ed2 <xQueueReceive+0xa6>
10004ec8:	e011      	b.n	10004eee <xQueueReceive+0xc2>
10004eca:	1e6b      	subs	r3, r5, #1
10004ecc:	b2da      	uxtb	r2, r3
10004ece:	b25d      	sxtb	r5, r3
10004ed0:	b16a      	cbz	r2, 10004eee <xQueueReceive+0xc2>
10004ed2:	6a63      	ldr	r3, [r4, #36]	; 0x24
10004ed4:	b15b      	cbz	r3, 10004eee <xQueueReceive+0xc2>
10004ed6:	4630      	mov	r0, r6
10004ed8:	f000 ff08 	bl	10005cec <xTaskRemoveFromEventList>
10004edc:	2800      	cmp	r0, #0
10004ede:	d0f4      	beq.n	10004eca <xQueueReceive+0x9e>
10004ee0:	f001 f81a 	bl	10005f18 <vTaskMissedYield>
10004ee4:	1e6b      	subs	r3, r5, #1
10004ee6:	b2da      	uxtb	r2, r3
10004ee8:	b25d      	sxtb	r5, r3
10004eea:	2a00      	cmp	r2, #0
10004eec:	d1f1      	bne.n	10004ed2 <xQueueReceive+0xa6>
10004eee:	23ff      	movs	r3, #255	; 0xff
10004ef0:	f884 3045 	strb.w	r3, [r4, #69]	; 0x45
10004ef4:	f7ff f9c6 	bl	10004284 <vPortExitCritical>
10004ef8:	f7ff f9b6 	bl	10004268 <vPortEnterCritical>
10004efc:	f894 3044 	ldrb.w	r3, [r4, #68]	; 0x44
10004f00:	b25d      	sxtb	r5, r3
10004f02:	2d00      	cmp	r5, #0
10004f04:	dd14      	ble.n	10004f30 <xQueueReceive+0x104>
10004f06:	f104 0910 	add.w	r9, r4, #16
10004f0a:	e003      	b.n	10004f14 <xQueueReceive+0xe8>
10004f0c:	1e6b      	subs	r3, r5, #1
10004f0e:	b2da      	uxtb	r2, r3
10004f10:	b25d      	sxtb	r5, r3
10004f12:	b16a      	cbz	r2, 10004f30 <xQueueReceive+0x104>
10004f14:	6923      	ldr	r3, [r4, #16]
10004f16:	b15b      	cbz	r3, 10004f30 <xQueueReceive+0x104>
10004f18:	4648      	mov	r0, r9
10004f1a:	f000 fee7 	bl	10005cec <xTaskRemoveFromEventList>
10004f1e:	2800      	cmp	r0, #0
10004f20:	d0f4      	beq.n	10004f0c <xQueueReceive+0xe0>
10004f22:	f000 fff9 	bl	10005f18 <vTaskMissedYield>
10004f26:	1e6b      	subs	r3, r5, #1
10004f28:	b2da      	uxtb	r2, r3
10004f2a:	b25d      	sxtb	r5, r3
10004f2c:	2a00      	cmp	r2, #0
10004f2e:	d1f1      	bne.n	10004f14 <xQueueReceive+0xe8>
10004f30:	23ff      	movs	r3, #255	; 0xff
10004f32:	f884 3044 	strb.w	r3, [r4, #68]	; 0x44
10004f36:	f7ff f9a5 	bl	10004284 <vPortExitCritical>
10004f3a:	f000 fd1f 	bl	1000597c <xTaskResumeAll>
10004f3e:	2800      	cmp	r0, #0
10004f40:	d155      	bne.n	10004fee <xQueueReceive+0x1c2>
10004f42:	f7ff f985 	bl	10004250 <vPortYield>
10004f46:	e052      	b.n	10004fee <xQueueReceive+0x1c2>
10004f48:	e7fe      	b.n	10004f48 <xQueueReceive+0x11c>
10004f4a:	6c03      	ldr	r3, [r0, #64]	; 0x40
10004f4c:	2b00      	cmp	r3, #0
10004f4e:	f43f af79 	beq.w	10004e44 <xQueueReceive+0x18>
10004f52:	e7fe      	b.n	10004f52 <xQueueReceive+0x126>
10004f54:	9b01      	ldr	r3, [sp, #4]
10004f56:	2b00      	cmp	r3, #0
10004f58:	f43f af79 	beq.w	10004e4e <xQueueReceive+0x22>
10004f5c:	e7fe      	b.n	10004f5c <xQueueReceive+0x130>
10004f5e:	f7ff f983 	bl	10004268 <vPortEnterCritical>
10004f62:	f894 3045 	ldrb.w	r3, [r4, #69]	; 0x45
10004f66:	b25d      	sxtb	r5, r3
10004f68:	2d00      	cmp	r5, #0
10004f6a:	dc04      	bgt.n	10004f76 <xQueueReceive+0x14a>
10004f6c:	e011      	b.n	10004f92 <xQueueReceive+0x166>
10004f6e:	1e6b      	subs	r3, r5, #1
10004f70:	b2da      	uxtb	r2, r3
10004f72:	b25d      	sxtb	r5, r3
10004f74:	b16a      	cbz	r2, 10004f92 <xQueueReceive+0x166>
10004f76:	6a63      	ldr	r3, [r4, #36]	; 0x24
10004f78:	b15b      	cbz	r3, 10004f92 <xQueueReceive+0x166>
10004f7a:	4630      	mov	r0, r6
10004f7c:	f000 feb6 	bl	10005cec <xTaskRemoveFromEventList>
10004f80:	2800      	cmp	r0, #0
10004f82:	d0f4      	beq.n	10004f6e <xQueueReceive+0x142>
10004f84:	f000 ffc8 	bl	10005f18 <vTaskMissedYield>
10004f88:	1e6b      	subs	r3, r5, #1
10004f8a:	b2da      	uxtb	r2, r3
10004f8c:	b25d      	sxtb	r5, r3
10004f8e:	2a00      	cmp	r2, #0
10004f90:	d1f1      	bne.n	10004f76 <xQueueReceive+0x14a>
10004f92:	23ff      	movs	r3, #255	; 0xff
10004f94:	f884 3045 	strb.w	r3, [r4, #69]	; 0x45
10004f98:	f7ff f974 	bl	10004284 <vPortExitCritical>
10004f9c:	f7ff f964 	bl	10004268 <vPortEnterCritical>
10004fa0:	f894 3044 	ldrb.w	r3, [r4, #68]	; 0x44
10004fa4:	b25d      	sxtb	r5, r3
10004fa6:	2d00      	cmp	r5, #0
10004fa8:	dd14      	ble.n	10004fd4 <xQueueReceive+0x1a8>
10004faa:	f104 0910 	add.w	r9, r4, #16
10004fae:	e003      	b.n	10004fb8 <xQueueReceive+0x18c>
10004fb0:	1e6b      	subs	r3, r5, #1
10004fb2:	b2da      	uxtb	r2, r3
10004fb4:	b25d      	sxtb	r5, r3
10004fb6:	b16a      	cbz	r2, 10004fd4 <xQueueReceive+0x1a8>
10004fb8:	6923      	ldr	r3, [r4, #16]
10004fba:	b15b      	cbz	r3, 10004fd4 <xQueueReceive+0x1a8>
10004fbc:	4648      	mov	r0, r9
10004fbe:	f000 fe95 	bl	10005cec <xTaskRemoveFromEventList>
10004fc2:	2800      	cmp	r0, #0
10004fc4:	d0f4      	beq.n	10004fb0 <xQueueReceive+0x184>
10004fc6:	f000 ffa7 	bl	10005f18 <vTaskMissedYield>
10004fca:	1e6b      	subs	r3, r5, #1
10004fcc:	b2da      	uxtb	r2, r3
10004fce:	b25d      	sxtb	r5, r3
10004fd0:	2a00      	cmp	r2, #0
10004fd2:	d1f1      	bne.n	10004fb8 <xQueueReceive+0x18c>
10004fd4:	23ff      	movs	r3, #255	; 0xff
10004fd6:	f884 3044 	strb.w	r3, [r4, #68]	; 0x44
10004fda:	f7ff f953 	bl	10004284 <vPortExitCritical>
10004fde:	f000 fccd 	bl	1000597c <xTaskResumeAll>
10004fe2:	f7ff f941 	bl	10004268 <vPortEnterCritical>
10004fe6:	6ba3      	ldr	r3, [r4, #56]	; 0x38
10004fe8:	b153      	cbz	r3, 10005000 <xQueueReceive+0x1d4>
10004fea:	f7ff f94b 	bl	10004284 <vPortExitCritical>
10004fee:	f7ff f93b 	bl	10004268 <vPortEnterCritical>
10004ff2:	6ba5      	ldr	r5, [r4, #56]	; 0x38
10004ff4:	2d00      	cmp	r5, #0
10004ff6:	d14e      	bne.n	10005096 <xQueueReceive+0x26a>
10004ff8:	9b01      	ldr	r3, [sp, #4]
10004ffa:	2b00      	cmp	r3, #0
10004ffc:	f47f af37 	bne.w	10004e6e <xQueueReceive+0x42>
10005000:	f7ff f940 	bl	10004284 <vPortExitCritical>
10005004:	2000      	movs	r0, #0
10005006:	b005      	add	sp, #20
10005008:	e8bd 83f0 	ldmia.w	sp!, {r4, r5, r6, r7, r8, r9, pc}
1000500c:	f7ff f93a 	bl	10004284 <vPortExitCritical>
10005010:	f7ff f92a 	bl	10004268 <vPortEnterCritical>
10005014:	f894 3045 	ldrb.w	r3, [r4, #69]	; 0x45
10005018:	b25d      	sxtb	r5, r3
1000501a:	2d00      	cmp	r5, #0
1000501c:	dc04      	bgt.n	10005028 <xQueueReceive+0x1fc>
1000501e:	e011      	b.n	10005044 <xQueueReceive+0x218>
10005020:	1e6b      	subs	r3, r5, #1
10005022:	b2da      	uxtb	r2, r3
10005024:	b25d      	sxtb	r5, r3
10005026:	b16a      	cbz	r2, 10005044 <xQueueReceive+0x218>
10005028:	6a63      	ldr	r3, [r4, #36]	; 0x24
1000502a:	b15b      	cbz	r3, 10005044 <xQueueReceive+0x218>
1000502c:	4630      	mov	r0, r6
1000502e:	f000 fe5d 	bl	10005cec <xTaskRemoveFromEventList>
10005032:	2800      	cmp	r0, #0
10005034:	d0f4      	beq.n	10005020 <xQueueReceive+0x1f4>
10005036:	f000 ff6f 	bl	10005f18 <vTaskMissedYield>
1000503a:	1e6b      	subs	r3, r5, #1
1000503c:	b2da      	uxtb	r2, r3
1000503e:	b25d      	sxtb	r5, r3
10005040:	2a00      	cmp	r2, #0
10005042:	d1f1      	bne.n	10005028 <xQueueReceive+0x1fc>
10005044:	23ff      	movs	r3, #255	; 0xff
10005046:	f884 3045 	strb.w	r3, [r4, #69]	; 0x45
1000504a:	f7ff f91b 	bl	10004284 <vPortExitCritical>
1000504e:	f7ff f90b 	bl	10004268 <vPortEnterCritical>
10005052:	f894 3044 	ldrb.w	r3, [r4, #68]	; 0x44
10005056:	b25d      	sxtb	r5, r3
10005058:	2d00      	cmp	r5, #0
1000505a:	dd14      	ble.n	10005086 <xQueueReceive+0x25a>
1000505c:	f104 0910 	add.w	r9, r4, #16
10005060:	e003      	b.n	1000506a <xQueueReceive+0x23e>
10005062:	1e6b      	subs	r3, r5, #1
10005064:	b2da      	uxtb	r2, r3
10005066:	b25d      	sxtb	r5, r3
10005068:	b16a      	cbz	r2, 10005086 <xQueueReceive+0x25a>
1000506a:	6923      	ldr	r3, [r4, #16]
1000506c:	b15b      	cbz	r3, 10005086 <xQueueReceive+0x25a>
1000506e:	4648      	mov	r0, r9
10005070:	f000 fe3c 	bl	10005cec <xTaskRemoveFromEventList>
10005074:	2800      	cmp	r0, #0
10005076:	d0f4      	beq.n	10005062 <xQueueReceive+0x236>
10005078:	f000 ff4e 	bl	10005f18 <vTaskMissedYield>
1000507c:	1e6b      	subs	r3, r5, #1
1000507e:	b2da      	uxtb	r2, r3
10005080:	b25d      	sxtb	r5, r3
10005082:	2a00      	cmp	r2, #0
10005084:	d1f1      	bne.n	1000506a <xQueueReceive+0x23e>
10005086:	23ff      	movs	r3, #255	; 0xff
10005088:	f884 3044 	strb.w	r3, [r4, #68]	; 0x44
1000508c:	f7ff f8fa 	bl	10004284 <vPortExitCritical>
10005090:	f000 fc74 	bl	1000597c <xTaskResumeAll>
10005094:	e7ab      	b.n	10004fee <xQueueReceive+0x1c2>
10005096:	6c22      	ldr	r2, [r4, #64]	; 0x40
10005098:	b15a      	cbz	r2, 100050b2 <xQueueReceive+0x286>
1000509a:	68e1      	ldr	r1, [r4, #12]
1000509c:	68a3      	ldr	r3, [r4, #8]
1000509e:	4411      	add	r1, r2
100050a0:	4299      	cmp	r1, r3
100050a2:	60e1      	str	r1, [r4, #12]
100050a4:	bf28      	it	cs
100050a6:	6821      	ldrcs	r1, [r4, #0]
100050a8:	4638      	mov	r0, r7
100050aa:	bf28      	it	cs
100050ac:	60e1      	strcs	r1, [r4, #12]
100050ae:	f001 fb5d 	bl	1000676c <memcpy>
100050b2:	6923      	ldr	r3, [r4, #16]
100050b4:	3d01      	subs	r5, #1
100050b6:	63a5      	str	r5, [r4, #56]	; 0x38
100050b8:	b91b      	cbnz	r3, 100050c2 <xQueueReceive+0x296>
100050ba:	f7ff f8e3 	bl	10004284 <vPortExitCritical>
100050be:	2001      	movs	r0, #1
100050c0:	e7a1      	b.n	10005006 <xQueueReceive+0x1da>
100050c2:	f104 0010 	add.w	r0, r4, #16
100050c6:	f000 fe11 	bl	10005cec <xTaskRemoveFromEventList>
100050ca:	2800      	cmp	r0, #0
100050cc:	d0f5      	beq.n	100050ba <xQueueReceive+0x28e>
100050ce:	f7ff f8bf 	bl	10004250 <vPortYield>
100050d2:	e7f2      	b.n	100050ba <xQueueReceive+0x28e>

100050d4 <vQueueWaitForMessageRestricted>:
100050d4:	b570      	push	{r4, r5, r6, lr}
100050d6:	4605      	mov	r5, r0
100050d8:	460e      	mov	r6, r1
100050da:	4614      	mov	r4, r2
100050dc:	f7ff f8c4 	bl	10004268 <vPortEnterCritical>
100050e0:	f895 3044 	ldrb.w	r3, [r5, #68]	; 0x44
100050e4:	2bff      	cmp	r3, #255	; 0xff
100050e6:	bf04      	itt	eq
100050e8:	2300      	moveq	r3, #0
100050ea:	f885 3044 	strbeq.w	r3, [r5, #68]	; 0x44
100050ee:	f895 3045 	ldrb.w	r3, [r5, #69]	; 0x45
100050f2:	2bff      	cmp	r3, #255	; 0xff
100050f4:	bf04      	itt	eq
100050f6:	2300      	moveq	r3, #0
100050f8:	f885 3045 	strbeq.w	r3, [r5, #69]	; 0x45
100050fc:	f7ff f8c2 	bl	10004284 <vPortExitCritical>
10005100:	6bab      	ldr	r3, [r5, #56]	; 0x38
10005102:	2b00      	cmp	r3, #0
10005104:	d043      	beq.n	1000518e <vQueueWaitForMessageRestricted+0xba>
10005106:	f7ff f8af 	bl	10004268 <vPortEnterCritical>
1000510a:	f895 3045 	ldrb.w	r3, [r5, #69]	; 0x45
1000510e:	b25c      	sxtb	r4, r3
10005110:	2c00      	cmp	r4, #0
10005112:	dd14      	ble.n	1000513e <vQueueWaitForMessageRestricted+0x6a>
10005114:	f105 0624 	add.w	r6, r5, #36	; 0x24
10005118:	e003      	b.n	10005122 <vQueueWaitForMessageRestricted+0x4e>
1000511a:	1e63      	subs	r3, r4, #1
1000511c:	b2da      	uxtb	r2, r3
1000511e:	b25c      	sxtb	r4, r3
10005120:	b16a      	cbz	r2, 1000513e <vQueueWaitForMessageRestricted+0x6a>
10005122:	6a6b      	ldr	r3, [r5, #36]	; 0x24
10005124:	b15b      	cbz	r3, 1000513e <vQueueWaitForMessageRestricted+0x6a>
10005126:	4630      	mov	r0, r6
10005128:	f000 fde0 	bl	10005cec <xTaskRemoveFromEventList>
1000512c:	2800      	cmp	r0, #0
1000512e:	d0f4      	beq.n	1000511a <vQueueWaitForMessageRestricted+0x46>
10005130:	f000 fef2 	bl	10005f18 <vTaskMissedYield>
10005134:	1e63      	subs	r3, r4, #1
10005136:	b2da      	uxtb	r2, r3
10005138:	b25c      	sxtb	r4, r3
1000513a:	2a00      	cmp	r2, #0
1000513c:	d1f1      	bne.n	10005122 <vQueueWaitForMessageRestricted+0x4e>
1000513e:	23ff      	movs	r3, #255	; 0xff
10005140:	f885 3045 	strb.w	r3, [r5, #69]	; 0x45
10005144:	f7ff f89e 	bl	10004284 <vPortExitCritical>
10005148:	f7ff f88e 	bl	10004268 <vPortEnterCritical>
1000514c:	f895 3044 	ldrb.w	r3, [r5, #68]	; 0x44
10005150:	b25c      	sxtb	r4, r3
10005152:	2c00      	cmp	r4, #0
10005154:	dd14      	ble.n	10005180 <vQueueWaitForMessageRestricted+0xac>
10005156:	f105 0610 	add.w	r6, r5, #16
1000515a:	e003      	b.n	10005164 <vQueueWaitForMessageRestricted+0x90>
1000515c:	1e63      	subs	r3, r4, #1
1000515e:	b2da      	uxtb	r2, r3
10005160:	b25c      	sxtb	r4, r3
10005162:	b16a      	cbz	r2, 10005180 <vQueueWaitForMessageRestricted+0xac>
10005164:	692b      	ldr	r3, [r5, #16]
10005166:	b15b      	cbz	r3, 10005180 <vQueueWaitForMessageRestricted+0xac>
10005168:	4630      	mov	r0, r6
1000516a:	f000 fdbf 	bl	10005cec <xTaskRemoveFromEventList>
1000516e:	2800      	cmp	r0, #0
10005170:	d0f4      	beq.n	1000515c <vQueueWaitForMessageRestricted+0x88>
10005172:	f000 fed1 	bl	10005f18 <vTaskMissedYield>
10005176:	1e63      	subs	r3, r4, #1
10005178:	b2da      	uxtb	r2, r3
1000517a:	b25c      	sxtb	r4, r3
1000517c:	2a00      	cmp	r2, #0
1000517e:	d1f1      	bne.n	10005164 <vQueueWaitForMessageRestricted+0x90>
10005180:	23ff      	movs	r3, #255	; 0xff
10005182:	f885 3044 	strb.w	r3, [r5, #68]	; 0x44
10005186:	e8bd 4070 	ldmia.w	sp!, {r4, r5, r6, lr}
1000518a:	f7ff b87b 	b.w	10004284 <vPortExitCritical>
1000518e:	4622      	mov	r2, r4
10005190:	4631      	mov	r1, r6
10005192:	f105 0024 	add.w	r0, r5, #36	; 0x24
10005196:	f000 fd21 	bl	10005bdc <vTaskPlaceOnEventListRestricted>
1000519a:	e7b4      	b.n	10005106 <vQueueWaitForMessageRestricted+0x32>

1000519c <prvAddNewTaskToReadyList>:
1000519c:	e92d 43f8 	stmdb	sp!, {r3, r4, r5, r6, r7, r8, r9, lr}
100051a0:	4604      	mov	r4, r0
100051a2:	f7ff f861 	bl	10004268 <vPortEnterCritical>
100051a6:	4a3d      	ldr	r2, [pc, #244]	; (1000529c <prvAddNewTaskToReadyList+0x100>)
100051a8:	4e3d      	ldr	r6, [pc, #244]	; (100052a0 <prvAddNewTaskToReadyList+0x104>)
100051aa:	6813      	ldr	r3, [r2, #0]
100051ac:	3301      	adds	r3, #1
100051ae:	6013      	str	r3, [r2, #0]
100051b0:	6833      	ldr	r3, [r6, #0]
100051b2:	2b00      	cmp	r3, #0
100051b4:	d040      	beq.n	10005238 <prvAddNewTaskToReadyList+0x9c>
100051b6:	4f3b      	ldr	r7, [pc, #236]	; (100052a4 <prvAddNewTaskToReadyList+0x108>)
100051b8:	683b      	ldr	r3, [r7, #0]
100051ba:	b3ab      	cbz	r3, 10005228 <prvAddNewTaskToReadyList+0x8c>
100051bc:	6ae2      	ldr	r2, [r4, #44]	; 0x2c
100051be:	4d3a      	ldr	r5, [pc, #232]	; (100052a8 <prvAddNewTaskToReadyList+0x10c>)
100051c0:	2101      	movs	r1, #1
100051c2:	eb02 0382 	add.w	r3, r2, r2, lsl #2
100051c6:	fa01 f202 	lsl.w	r2, r1, r2
100051ca:	eb05 0183 	add.w	r1, r5, r3, lsl #2
100051ce:	f8d1 c004 	ldr.w	ip, [r1, #4]
100051d2:	f8df 90ec 	ldr.w	r9, [pc, #236]	; 100052c0 <prvAddNewTaskToReadyList+0x124>
100051d6:	f8dc 0008 	ldr.w	r0, [ip, #8]
100051da:	f8df 80e8 	ldr.w	r8, [pc, #232]	; 100052c4 <prvAddNewTaskToReadyList+0x128>
100051de:	60e0      	str	r0, [r4, #12]
100051e0:	f8d9 0000 	ldr.w	r0, [r9]
100051e4:	009b      	lsls	r3, r3, #2
100051e6:	3001      	adds	r0, #1
100051e8:	f8c9 0000 	str.w	r0, [r9]
100051ec:	f8d8 0000 	ldr.w	r0, [r8]
100051f0:	f8c4 c008 	str.w	ip, [r4, #8]
100051f4:	4302      	orrs	r2, r0
100051f6:	f8c8 2000 	str.w	r2, [r8]
100051fa:	58ea      	ldr	r2, [r5, r3]
100051fc:	1d20      	adds	r0, r4, #4
100051fe:	f102 0e01 	add.w	lr, r2, #1
10005202:	f8dc 2008 	ldr.w	r2, [ip, #8]
10005206:	6050      	str	r0, [r2, #4]
10005208:	f8cc 0008 	str.w	r0, [ip, #8]
1000520c:	6161      	str	r1, [r4, #20]
1000520e:	f845 e003 	str.w	lr, [r5, r3]
10005212:	f7ff f837 	bl	10004284 <vPortExitCritical>
10005216:	683b      	ldr	r3, [r7, #0]
10005218:	b123      	cbz	r3, 10005224 <prvAddNewTaskToReadyList+0x88>
1000521a:	6832      	ldr	r2, [r6, #0]
1000521c:	6ae3      	ldr	r3, [r4, #44]	; 0x2c
1000521e:	6ad2      	ldr	r2, [r2, #44]	; 0x2c
10005220:	429a      	cmp	r2, r3
10005222:	d311      	bcc.n	10005248 <prvAddNewTaskToReadyList+0xac>
10005224:	e8bd 83f8 	ldmia.w	sp!, {r3, r4, r5, r6, r7, r8, r9, pc}
10005228:	6833      	ldr	r3, [r6, #0]
1000522a:	6ae2      	ldr	r2, [r4, #44]	; 0x2c
1000522c:	6adb      	ldr	r3, [r3, #44]	; 0x2c
1000522e:	4d1e      	ldr	r5, [pc, #120]	; (100052a8 <prvAddNewTaskToReadyList+0x10c>)
10005230:	4293      	cmp	r3, r2
10005232:	bf98      	it	ls
10005234:	6034      	strls	r4, [r6, #0]
10005236:	e7c3      	b.n	100051c0 <prvAddNewTaskToReadyList+0x24>
10005238:	6034      	str	r4, [r6, #0]
1000523a:	6813      	ldr	r3, [r2, #0]
1000523c:	2b01      	cmp	r3, #1
1000523e:	d007      	beq.n	10005250 <prvAddNewTaskToReadyList+0xb4>
10005240:	6ae2      	ldr	r2, [r4, #44]	; 0x2c
10005242:	4d19      	ldr	r5, [pc, #100]	; (100052a8 <prvAddNewTaskToReadyList+0x10c>)
10005244:	4f17      	ldr	r7, [pc, #92]	; (100052a4 <prvAddNewTaskToReadyList+0x108>)
10005246:	e7bb      	b.n	100051c0 <prvAddNewTaskToReadyList+0x24>
10005248:	e8bd 43f8 	ldmia.w	sp!, {r3, r4, r5, r6, r7, r8, r9, lr}
1000524c:	f7ff b800 	b.w	10004250 <vPortYield>
10005250:	4d15      	ldr	r5, [pc, #84]	; (100052a8 <prvAddNewTaskToReadyList+0x10c>)
10005252:	462f      	mov	r7, r5
10005254:	f105 0864 	add.w	r8, r5, #100	; 0x64
10005258:	4638      	mov	r0, r7
1000525a:	3714      	adds	r7, #20
1000525c:	f7ff fb92 	bl	10004984 <vListInitialise>
10005260:	45b8      	cmp	r8, r7
10005262:	d1f9      	bne.n	10005258 <prvAddNewTaskToReadyList+0xbc>
10005264:	f8df 9060 	ldr.w	r9, [pc, #96]	; 100052c8 <prvAddNewTaskToReadyList+0x12c>
10005268:	f8df 8060 	ldr.w	r8, [pc, #96]	; 100052cc <prvAddNewTaskToReadyList+0x130>
1000526c:	4648      	mov	r0, r9
1000526e:	f7ff fb89 	bl	10004984 <vListInitialise>
10005272:	4640      	mov	r0, r8
10005274:	f7ff fb86 	bl	10004984 <vListInitialise>
10005278:	480c      	ldr	r0, [pc, #48]	; (100052ac <prvAddNewTaskToReadyList+0x110>)
1000527a:	f7ff fb83 	bl	10004984 <vListInitialise>
1000527e:	480c      	ldr	r0, [pc, #48]	; (100052b0 <prvAddNewTaskToReadyList+0x114>)
10005280:	f7ff fb80 	bl	10004984 <vListInitialise>
10005284:	480b      	ldr	r0, [pc, #44]	; (100052b4 <prvAddNewTaskToReadyList+0x118>)
10005286:	f7ff fb7d 	bl	10004984 <vListInitialise>
1000528a:	4b0b      	ldr	r3, [pc, #44]	; (100052b8 <prvAddNewTaskToReadyList+0x11c>)
1000528c:	4f05      	ldr	r7, [pc, #20]	; (100052a4 <prvAddNewTaskToReadyList+0x108>)
1000528e:	f8c3 9000 	str.w	r9, [r3]
10005292:	4b0a      	ldr	r3, [pc, #40]	; (100052bc <prvAddNewTaskToReadyList+0x120>)
10005294:	6ae2      	ldr	r2, [r4, #44]	; 0x2c
10005296:	f8c3 8000 	str.w	r8, [r3]
1000529a:	e791      	b.n	100051c0 <prvAddNewTaskToReadyList+0x24>
1000529c:	20005f3c 	.word	0x20005f3c
100052a0:	20001e8c 	.word	0x20001e8c
100052a4:	20005fdc 	.word	0x20005fdc
100052a8:	20001ea4 	.word	0x20001ea4
100052ac:	20005fc8 	.word	0x20005fc8
100052b0:	20005ffc 	.word	0x20005ffc
100052b4:	20005fe8 	.word	0x20005fe8
100052b8:	20001e94 	.word	0x20001e94
100052bc:	20001e9c 	.word	0x20001e9c
100052c0:	20005f48 	.word	0x20005f48
100052c4:	20005f4c 	.word	0x20005f4c
100052c8:	20005f78 	.word	0x20005f78
100052cc:	20005f8c 	.word	0x20005f8c

100052d0 <prvAddCurrentTaskToDelayedList>:
100052d0:	e92d 43f8 	stmdb	sp!, {r3, r4, r5, r6, r7, r8, r9, lr}
100052d4:	4a24      	ldr	r2, [pc, #144]	; (10005368 <prvAddCurrentTaskToDelayedList+0x98>)
100052d6:	4605      	mov	r5, r0
100052d8:	4b24      	ldr	r3, [pc, #144]	; (1000536c <prvAddCurrentTaskToDelayedList+0x9c>)
100052da:	4825      	ldr	r0, [pc, #148]	; (10005370 <prvAddCurrentTaskToDelayedList+0xa0>)
100052dc:	4e25      	ldr	r6, [pc, #148]	; (10005374 <prvAddCurrentTaskToDelayedList+0xa4>)
100052de:	6804      	ldr	r4, [r0, #0]
100052e0:	f8d2 8000 	ldr.w	r8, [r2]
100052e4:	f8d3 9000 	ldr.w	r9, [r3]
100052e8:	6830      	ldr	r0, [r6, #0]
100052ea:	460f      	mov	r7, r1
100052ec:	3004      	adds	r0, #4
100052ee:	f7ff fb71 	bl	100049d4 <uxListRemove>
100052f2:	b948      	cbnz	r0, 10005308 <prvAddCurrentTaskToDelayedList+0x38>
100052f4:	2301      	movs	r3, #1
100052f6:	6832      	ldr	r2, [r6, #0]
100052f8:	491f      	ldr	r1, [pc, #124]	; (10005378 <prvAddCurrentTaskToDelayedList+0xa8>)
100052fa:	6ad2      	ldr	r2, [r2, #44]	; 0x2c
100052fc:	fa03 f202 	lsl.w	r2, r3, r2
10005300:	680b      	ldr	r3, [r1, #0]
10005302:	ea23 0302 	bic.w	r3, r3, r2
10005306:	600b      	str	r3, [r1, #0]
10005308:	1c6b      	adds	r3, r5, #1
1000530a:	d015      	beq.n	10005338 <prvAddCurrentTaskToDelayedList+0x68>
1000530c:	6833      	ldr	r3, [r6, #0]
1000530e:	1964      	adds	r4, r4, r5
10005310:	6831      	ldr	r1, [r6, #0]
10005312:	605c      	str	r4, [r3, #4]
10005314:	d20a      	bcs.n	1000532c <prvAddCurrentTaskToDelayedList+0x5c>
10005316:	4640      	mov	r0, r8
10005318:	3104      	adds	r1, #4
1000531a:	f7ff fb43 	bl	100049a4 <vListInsert>
1000531e:	4b17      	ldr	r3, [pc, #92]	; (1000537c <prvAddCurrentTaskToDelayedList+0xac>)
10005320:	681a      	ldr	r2, [r3, #0]
10005322:	42a2      	cmp	r2, r4
10005324:	bf88      	it	hi
10005326:	601c      	strhi	r4, [r3, #0]
10005328:	e8bd 83f8 	ldmia.w	sp!, {r3, r4, r5, r6, r7, r8, r9, pc}
1000532c:	4648      	mov	r0, r9
1000532e:	e8bd 43f8 	ldmia.w	sp!, {r3, r4, r5, r6, r7, r8, r9, lr}
10005332:	3104      	adds	r1, #4
10005334:	f7ff bb36 	b.w	100049a4 <vListInsert>
10005338:	2f00      	cmp	r7, #0
1000533a:	d0e7      	beq.n	1000530c <prvAddCurrentTaskToDelayedList+0x3c>
1000533c:	4b10      	ldr	r3, [pc, #64]	; (10005380 <prvAddCurrentTaskToDelayedList+0xb0>)
1000533e:	6830      	ldr	r0, [r6, #0]
10005340:	685a      	ldr	r2, [r3, #4]
10005342:	6831      	ldr	r1, [r6, #0]
10005344:	6082      	str	r2, [r0, #8]
10005346:	6890      	ldr	r0, [r2, #8]
10005348:	60c8      	str	r0, [r1, #12]
1000534a:	6831      	ldr	r1, [r6, #0]
1000534c:	6890      	ldr	r0, [r2, #8]
1000534e:	3104      	adds	r1, #4
10005350:	6041      	str	r1, [r0, #4]
10005352:	6830      	ldr	r0, [r6, #0]
10005354:	6819      	ldr	r1, [r3, #0]
10005356:	6834      	ldr	r4, [r6, #0]
10005358:	3004      	adds	r0, #4
1000535a:	3101      	adds	r1, #1
1000535c:	6090      	str	r0, [r2, #8]
1000535e:	6019      	str	r1, [r3, #0]
10005360:	6163      	str	r3, [r4, #20]
10005362:	e8bd 83f8 	ldmia.w	sp!, {r3, r4, r5, r6, r7, r8, r9, pc}
10005366:	bf00      	nop
10005368:	20001e94 	.word	0x20001e94
1000536c:	20001e9c 	.word	0x20001e9c
10005370:	20006010 	.word	0x20006010
10005374:	20001e8c 	.word	0x20001e8c
10005378:	20005f4c 	.word	0x20005f4c
1000537c:	20005fb4 	.word	0x20005fb4
10005380:	20005fe8 	.word	0x20005fe8

10005384 <prvIdleTask>:
10005384:	b580      	push	{r7, lr}
10005386:	4d12      	ldr	r5, [pc, #72]	; (100053d0 <prvIdleTask+0x4c>)
10005388:	4f12      	ldr	r7, [pc, #72]	; (100053d4 <prvIdleTask+0x50>)
1000538a:	4e13      	ldr	r6, [pc, #76]	; (100053d8 <prvIdleTask+0x54>)
1000538c:	f8df 804c 	ldr.w	r8, [pc, #76]	; 100053dc <prvIdleTask+0x58>
10005390:	e014      	b.n	100053bc <prvIdleTask+0x38>
10005392:	f7fe ff69 	bl	10004268 <vPortEnterCritical>
10005396:	68fb      	ldr	r3, [r7, #12]
10005398:	68dc      	ldr	r4, [r3, #12]
1000539a:	1d20      	adds	r0, r4, #4
1000539c:	f7ff fb1a 	bl	100049d4 <uxListRemove>
100053a0:	6833      	ldr	r3, [r6, #0]
100053a2:	3b01      	subs	r3, #1
100053a4:	6033      	str	r3, [r6, #0]
100053a6:	682b      	ldr	r3, [r5, #0]
100053a8:	3b01      	subs	r3, #1
100053aa:	602b      	str	r3, [r5, #0]
100053ac:	f7fe ff6a 	bl	10004284 <vPortExitCritical>
100053b0:	6b20      	ldr	r0, [r4, #48]	; 0x30
100053b2:	f001 f97b 	bl	100066ac <vPortFree>
100053b6:	4620      	mov	r0, r4
100053b8:	f001 f978 	bl	100066ac <vPortFree>
100053bc:	682b      	ldr	r3, [r5, #0]
100053be:	2b00      	cmp	r3, #0
100053c0:	d1e7      	bne.n	10005392 <prvIdleTask+0xe>
100053c2:	f8d8 3000 	ldr.w	r3, [r8]
100053c6:	2b01      	cmp	r3, #1
100053c8:	d9f8      	bls.n	100053bc <prvIdleTask+0x38>
100053ca:	f7fe ff41 	bl	10004250 <vPortYield>
100053ce:	e7f5      	b.n	100053bc <prvIdleTask+0x38>
100053d0:	20005f40 	.word	0x20005f40
100053d4:	20005ffc 	.word	0x20005ffc
100053d8:	20005f3c 	.word	0x20005f3c
100053dc:	20001ea4 	.word	0x20001ea4

100053e0 <xTaskIncrementTick.part.0>:
100053e0:	e92d 4ff0 	stmdb	sp!, {r4, r5, r6, r7, r8, r9, sl, fp, lr}
100053e4:	4b61      	ldr	r3, [pc, #388]	; (1000556c <xTaskIncrementTick.part.0+0x18c>)
100053e6:	b085      	sub	sp, #20
100053e8:	681c      	ldr	r4, [r3, #0]
100053ea:	3401      	adds	r4, #1
100053ec:	601c      	str	r4, [r3, #0]
100053ee:	2c00      	cmp	r4, #0
100053f0:	d079      	beq.n	100054e6 <xTaskIncrementTick.part.0+0x106>
100053f2:	4b5f      	ldr	r3, [pc, #380]	; (10005570 <xTaskIncrementTick.part.0+0x190>)
100053f4:	9303      	str	r3, [sp, #12]
100053f6:	681b      	ldr	r3, [r3, #0]
100053f8:	429c      	cmp	r4, r3
100053fa:	d379      	bcc.n	100054f0 <xTaskIncrementTick.part.0+0x110>
100053fc:	4d5d      	ldr	r5, [pc, #372]	; (10005574 <xTaskIncrementTick.part.0+0x194>)
100053fe:	682b      	ldr	r3, [r5, #0]
10005400:	681b      	ldr	r3, [r3, #0]
10005402:	2b00      	cmp	r3, #0
10005404:	f000 80a8 	beq.w	10005558 <xTaskIncrementTick.part.0+0x178>
10005408:	f04f 0c00 	mov.w	ip, #0
1000540c:	4b5a      	ldr	r3, [pc, #360]	; (10005578 <xTaskIncrementTick.part.0+0x198>)
1000540e:	4667      	mov	r7, ip
10005410:	485a      	ldr	r0, [pc, #360]	; (1000557c <xTaskIncrementTick.part.0+0x19c>)
10005412:	4e5b      	ldr	r6, [pc, #364]	; (10005580 <xTaskIncrementTick.part.0+0x1a0>)
10005414:	9301      	str	r3, [sp, #4]
10005416:	9402      	str	r4, [sp, #8]
10005418:	e058      	b.n	100054cc <xTaskIncrementTick.part.0+0xec>
1000541a:	f8d3 e014 	ldr.w	lr, [r3, #20]
1000541e:	e9d3 2902 	ldrd	r2, r9, [r3, #8]
10005422:	f8c2 9008 	str.w	r9, [r2, #8]
10005426:	f8c9 2004 	str.w	r2, [r9, #4]
1000542a:	f8de 2004 	ldr.w	r2, [lr, #4]
1000542e:	428a      	cmp	r2, r1
10005430:	f8de 2000 	ldr.w	r2, [lr]
10005434:	bf08      	it	eq
10005436:	f8ce 9004 	streq.w	r9, [lr, #4]
1000543a:	3a01      	subs	r2, #1
1000543c:	615f      	str	r7, [r3, #20]
1000543e:	f8ce 2000 	str.w	r2, [lr]
10005442:	f8d3 e028 	ldr.w	lr, [r3, #40]	; 0x28
10005446:	f1be 0f00 	cmp.w	lr, #0
1000544a:	d012      	beq.n	10005472 <xTaskIncrementTick.part.0+0x92>
1000544c:	e9d3 9207 	ldrd	r9, r2, [r3, #28]
10005450:	f8de 4004 	ldr.w	r4, [lr, #4]
10005454:	f8c9 2008 	str.w	r2, [r9, #8]
10005458:	6a1a      	ldr	r2, [r3, #32]
1000545a:	4544      	cmp	r4, r8
1000545c:	f8c2 9004 	str.w	r9, [r2, #4]
10005460:	bf08      	it	eq
10005462:	f8ce 2004 	streq.w	r2, [lr, #4]
10005466:	f8de 2000 	ldr.w	r2, [lr]
1000546a:	629f      	str	r7, [r3, #40]	; 0x28
1000546c:	3a01      	subs	r2, #1
1000546e:	f8ce 2000 	str.w	r2, [lr]
10005472:	2401      	movs	r4, #1
10005474:	6ada      	ldr	r2, [r3, #44]	; 0x2c
10005476:	f8d6 b000 	ldr.w	fp, [r6]
1000547a:	eb02 0882 	add.w	r8, r2, r2, lsl #2
1000547e:	eb00 0988 	add.w	r9, r0, r8, lsl #2
10005482:	f8d9 e004 	ldr.w	lr, [r9, #4]
10005486:	fa04 fa02 	lsl.w	sl, r4, r2
1000548a:	f8de 4008 	ldr.w	r4, [lr, #8]
1000548e:	ea4a 0a0b 	orr.w	sl, sl, fp
10005492:	60dc      	str	r4, [r3, #12]
10005494:	f850 4028 	ldr.w	r4, [r0, r8, lsl #2]
10005498:	f8c6 a000 	str.w	sl, [r6]
1000549c:	f104 0a01 	add.w	sl, r4, #1
100054a0:	f8de 4008 	ldr.w	r4, [lr, #8]
100054a4:	f8c3 e008 	str.w	lr, [r3, #8]
100054a8:	6061      	str	r1, [r4, #4]
100054aa:	f8ce 1008 	str.w	r1, [lr, #8]
100054ae:	f8c3 9014 	str.w	r9, [r3, #20]
100054b2:	9b01      	ldr	r3, [sp, #4]
100054b4:	f840 a028 	str.w	sl, [r0, r8, lsl #2]
100054b8:	6819      	ldr	r1, [r3, #0]
100054ba:	682b      	ldr	r3, [r5, #0]
100054bc:	6ac9      	ldr	r1, [r1, #44]	; 0x2c
100054be:	681b      	ldr	r3, [r3, #0]
100054c0:	428a      	cmp	r2, r1
100054c2:	bf88      	it	hi
100054c4:	f04f 0c01 	movhi.w	ip, #1
100054c8:	2b00      	cmp	r3, #0
100054ca:	d049      	beq.n	10005560 <xTaskIncrementTick.part.0+0x180>
100054cc:	682b      	ldr	r3, [r5, #0]
100054ce:	9c02      	ldr	r4, [sp, #8]
100054d0:	68db      	ldr	r3, [r3, #12]
100054d2:	68db      	ldr	r3, [r3, #12]
100054d4:	685a      	ldr	r2, [r3, #4]
100054d6:	1d19      	adds	r1, r3, #4
100054d8:	4294      	cmp	r4, r2
100054da:	f103 0818 	add.w	r8, r3, #24
100054de:	d29c      	bcs.n	1000541a <xTaskIncrementTick.part.0+0x3a>
100054e0:	9b03      	ldr	r3, [sp, #12]
100054e2:	601a      	str	r2, [r3, #0]
100054e4:	e009      	b.n	100054fa <xTaskIncrementTick.part.0+0x11a>
100054e6:	4b23      	ldr	r3, [pc, #140]	; (10005574 <xTaskIncrementTick.part.0+0x194>)
100054e8:	681a      	ldr	r2, [r3, #0]
100054ea:	6812      	ldr	r2, [r2, #0]
100054ec:	b1ca      	cbz	r2, 10005522 <xTaskIncrementTick.part.0+0x142>
100054ee:	e7fe      	b.n	100054ee <xTaskIncrementTick.part.0+0x10e>
100054f0:	f04f 0c00 	mov.w	ip, #0
100054f4:	4b20      	ldr	r3, [pc, #128]	; (10005578 <xTaskIncrementTick.part.0+0x198>)
100054f6:	4821      	ldr	r0, [pc, #132]	; (1000557c <xTaskIncrementTick.part.0+0x19c>)
100054f8:	9301      	str	r3, [sp, #4]
100054fa:	9b01      	ldr	r3, [sp, #4]
100054fc:	4a21      	ldr	r2, [pc, #132]	; (10005584 <xTaskIncrementTick.part.0+0x1a4>)
100054fe:	681b      	ldr	r3, [r3, #0]
10005500:	6812      	ldr	r2, [r2, #0]
10005502:	6adb      	ldr	r3, [r3, #44]	; 0x2c
10005504:	eb03 0383 	add.w	r3, r3, r3, lsl #2
10005508:	f850 3023 	ldr.w	r3, [r0, r3, lsl #2]
1000550c:	2b02      	cmp	r3, #2
1000550e:	bf28      	it	cs
10005510:	f04f 0c01 	movcs.w	ip, #1
10005514:	2a00      	cmp	r2, #0
10005516:	bf0c      	ite	eq
10005518:	4660      	moveq	r0, ip
1000551a:	2001      	movne	r0, #1
1000551c:	b005      	add	sp, #20
1000551e:	e8bd 8ff0 	ldmia.w	sp!, {r4, r5, r6, r7, r8, r9, sl, fp, pc}
10005522:	4a19      	ldr	r2, [pc, #100]	; (10005588 <xTaskIncrementTick.part.0+0x1a8>)
10005524:	6818      	ldr	r0, [r3, #0]
10005526:	6811      	ldr	r1, [r2, #0]
10005528:	6019      	str	r1, [r3, #0]
1000552a:	4918      	ldr	r1, [pc, #96]	; (1000558c <xTaskIncrementTick.part.0+0x1ac>)
1000552c:	6010      	str	r0, [r2, #0]
1000552e:	680a      	ldr	r2, [r1, #0]
10005530:	3201      	adds	r2, #1
10005532:	600a      	str	r2, [r1, #0]
10005534:	681a      	ldr	r2, [r3, #0]
10005536:	6812      	ldr	r2, [r2, #0]
10005538:	b932      	cbnz	r2, 10005548 <xTaskIncrementTick.part.0+0x168>
1000553a:	f04f 33ff 	mov.w	r3, #4294967295
1000553e:	4a0c      	ldr	r2, [pc, #48]	; (10005570 <xTaskIncrementTick.part.0+0x190>)
10005540:	6013      	str	r3, [r2, #0]
10005542:	9203      	str	r2, [sp, #12]
10005544:	4613      	mov	r3, r2
10005546:	e756      	b.n	100053f6 <xTaskIncrementTick.part.0+0x16>
10005548:	681b      	ldr	r3, [r3, #0]
1000554a:	4a09      	ldr	r2, [pc, #36]	; (10005570 <xTaskIncrementTick.part.0+0x190>)
1000554c:	68db      	ldr	r3, [r3, #12]
1000554e:	9203      	str	r2, [sp, #12]
10005550:	681b      	ldr	r3, [r3, #0]
10005552:	6013      	str	r3, [r2, #0]
10005554:	4613      	mov	r3, r2
10005556:	e74e      	b.n	100053f6 <xTaskIncrementTick.part.0+0x16>
10005558:	469c      	mov	ip, r3
1000555a:	4b07      	ldr	r3, [pc, #28]	; (10005578 <xTaskIncrementTick.part.0+0x198>)
1000555c:	4807      	ldr	r0, [pc, #28]	; (1000557c <xTaskIncrementTick.part.0+0x19c>)
1000555e:	9301      	str	r3, [sp, #4]
10005560:	f04f 33ff 	mov.w	r3, #4294967295
10005564:	9a03      	ldr	r2, [sp, #12]
10005566:	6013      	str	r3, [r2, #0]
10005568:	e7c7      	b.n	100054fa <xTaskIncrementTick.part.0+0x11a>
1000556a:	bf00      	nop
1000556c:	20006010 	.word	0x20006010
10005570:	20005fb4 	.word	0x20005fb4
10005574:	20001e94 	.word	0x20001e94
10005578:	20001e8c 	.word	0x20001e8c
1000557c:	20001ea4 	.word	0x20001ea4
10005580:	20005f4c 	.word	0x20005f4c
10005584:	2000601c 	.word	0x2000601c
10005588:	20001e9c 	.word	0x20001e9c
1000558c:	20005fb8 	.word	0x20005fb8

10005590 <xTaskResumeAll.part.0>:
10005590:	e92d 4ff0 	stmdb	sp!, {r4, r5, r6, r7, r8, r9, sl, fp, lr}
10005594:	4f58      	ldr	r7, [pc, #352]	; (100056f8 <xTaskResumeAll.part.0+0x168>)
10005596:	b083      	sub	sp, #12
10005598:	683b      	ldr	r3, [r7, #0]
1000559a:	3b01      	subs	r3, #1
1000559c:	603b      	str	r3, [r7, #0]
1000559e:	f8d7 8000 	ldr.w	r8, [r7]
100055a2:	f1b8 0f00 	cmp.w	r8, #0
100055a6:	f040 808d 	bne.w	100056c4 <xTaskResumeAll.part.0+0x134>
100055aa:	4b54      	ldr	r3, [pc, #336]	; (100056fc <xTaskResumeAll.part.0+0x16c>)
100055ac:	681b      	ldr	r3, [r3, #0]
100055ae:	2b00      	cmp	r3, #0
100055b0:	f000 8088 	beq.w	100056c4 <xTaskResumeAll.part.0+0x134>
100055b4:	f8df c160 	ldr.w	ip, [pc, #352]	; 10005718 <xTaskResumeAll.part.0+0x188>
100055b8:	f8dc 3000 	ldr.w	r3, [ip]
100055bc:	2b00      	cmp	r3, #0
100055be:	f000 8098 	beq.w	100056f2 <xTaskResumeAll.part.0+0x162>
100055c2:	f04f 0b01 	mov.w	fp, #1
100055c6:	46c2      	mov	sl, r8
100055c8:	4b4d      	ldr	r3, [pc, #308]	; (10005700 <xTaskResumeAll.part.0+0x170>)
100055ca:	f8df e150 	ldr.w	lr, [pc, #336]	; 1000571c <xTaskResumeAll.part.0+0x18c>
100055ce:	4d4d      	ldr	r5, [pc, #308]	; (10005704 <xTaskResumeAll.part.0+0x174>)
100055d0:	9301      	str	r3, [sp, #4]
100055d2:	f8dc 300c 	ldr.w	r3, [ip, #12]
100055d6:	68db      	ldr	r3, [r3, #12]
100055d8:	6a9a      	ldr	r2, [r3, #40]	; 0x28
100055da:	e9d3 0107 	ldrd	r0, r1, [r3, #28]
100055de:	6854      	ldr	r4, [r2, #4]
100055e0:	6081      	str	r1, [r0, #8]
100055e2:	6048      	str	r0, [r1, #4]
100055e4:	f103 0018 	add.w	r0, r3, #24
100055e8:	4284      	cmp	r4, r0
100055ea:	bf08      	it	eq
100055ec:	6051      	streq	r1, [r2, #4]
100055ee:	6811      	ldr	r1, [r2, #0]
100055f0:	f8c3 a028 	str.w	sl, [r3, #40]	; 0x28
100055f4:	3901      	subs	r1, #1
100055f6:	6011      	str	r1, [r2, #0]
100055f8:	6958      	ldr	r0, [r3, #20]
100055fa:	e9d3 2102 	ldrd	r2, r1, [r3, #8]
100055fe:	6091      	str	r1, [r2, #8]
10005600:	604a      	str	r2, [r1, #4]
10005602:	6842      	ldr	r2, [r0, #4]
10005604:	1d1e      	adds	r6, r3, #4
10005606:	42b2      	cmp	r2, r6
10005608:	bf08      	it	eq
1000560a:	6041      	streq	r1, [r0, #4]
1000560c:	6801      	ldr	r1, [r0, #0]
1000560e:	6ada      	ldr	r2, [r3, #44]	; 0x2c
10005610:	3901      	subs	r1, #1
10005612:	6001      	str	r1, [r0, #0]
10005614:	eb02 0082 	add.w	r0, r2, r2, lsl #2
10005618:	f8de 4000 	ldr.w	r4, [lr]
1000561c:	eb05 0880 	add.w	r8, r5, r0, lsl #2
10005620:	f8d8 1004 	ldr.w	r1, [r8, #4]
10005624:	fa0b f902 	lsl.w	r9, fp, r2
10005628:	ea49 0404 	orr.w	r4, r9, r4
1000562c:	f8ce 4000 	str.w	r4, [lr]
10005630:	688c      	ldr	r4, [r1, #8]
10005632:	6099      	str	r1, [r3, #8]
10005634:	60dc      	str	r4, [r3, #12]
10005636:	4c34      	ldr	r4, [pc, #208]	; (10005708 <xTaskResumeAll.part.0+0x178>)
10005638:	6824      	ldr	r4, [r4, #0]
1000563a:	f8d4 902c 	ldr.w	r9, [r4, #44]	; 0x2c
1000563e:	f855 4020 	ldr.w	r4, [r5, r0, lsl #2]
10005642:	454a      	cmp	r2, r9
10005644:	f104 0401 	add.w	r4, r4, #1
10005648:	9400      	str	r4, [sp, #0]
1000564a:	688c      	ldr	r4, [r1, #8]
1000564c:	6066      	str	r6, [r4, #4]
1000564e:	608e      	str	r6, [r1, #8]
10005650:	f8c3 8014 	str.w	r8, [r3, #20]
10005654:	9b00      	ldr	r3, [sp, #0]
10005656:	f845 3020 	str.w	r3, [r5, r0, lsl #2]
1000565a:	d93b      	bls.n	100056d4 <xTaskResumeAll.part.0+0x144>
1000565c:	9b01      	ldr	r3, [sp, #4]
1000565e:	f8c3 b000 	str.w	fp, [r3]
10005662:	f8dc 3000 	ldr.w	r3, [ip]
10005666:	2b00      	cmp	r3, #0
10005668:	d1b3      	bne.n	100055d2 <xTaskResumeAll.part.0+0x42>
1000566a:	4b28      	ldr	r3, [pc, #160]	; (1000570c <xTaskResumeAll.part.0+0x17c>)
1000566c:	681a      	ldr	r2, [r3, #0]
1000566e:	6812      	ldr	r2, [r2, #0]
10005670:	2a00      	cmp	r2, #0
10005672:	d039      	beq.n	100056e8 <xTaskResumeAll.part.0+0x158>
10005674:	681a      	ldr	r2, [r3, #0]
10005676:	4b26      	ldr	r3, [pc, #152]	; (10005710 <xTaskResumeAll.part.0+0x180>)
10005678:	68d2      	ldr	r2, [r2, #12]
1000567a:	6812      	ldr	r2, [r2, #0]
1000567c:	601a      	str	r2, [r3, #0]
1000567e:	4d25      	ldr	r5, [pc, #148]	; (10005714 <xTaskResumeAll.part.0+0x184>)
10005680:	682c      	ldr	r4, [r5, #0]
10005682:	b1a4      	cbz	r4, 100056ae <xTaskResumeAll.part.0+0x11e>
10005684:	2601      	movs	r6, #1
10005686:	f8dd 8004 	ldr.w	r8, [sp, #4]
1000568a:	e006      	b.n	1000569a <xTaskResumeAll.part.0+0x10a>
1000568c:	f7ff fea8 	bl	100053e0 <xTaskIncrementTick.part.0>
10005690:	b108      	cbz	r0, 10005696 <xTaskResumeAll.part.0+0x106>
10005692:	f8c8 6000 	str.w	r6, [r8]
10005696:	3c01      	subs	r4, #1
10005698:	d008      	beq.n	100056ac <xTaskResumeAll.part.0+0x11c>
1000569a:	683b      	ldr	r3, [r7, #0]
1000569c:	2b00      	cmp	r3, #0
1000569e:	d0f5      	beq.n	1000568c <xTaskResumeAll.part.0+0xfc>
100056a0:	682b      	ldr	r3, [r5, #0]
100056a2:	3c01      	subs	r4, #1
100056a4:	f103 0301 	add.w	r3, r3, #1
100056a8:	602b      	str	r3, [r5, #0]
100056aa:	d1f6      	bne.n	1000569a <xTaskResumeAll.part.0+0x10a>
100056ac:	602c      	str	r4, [r5, #0]
100056ae:	9b01      	ldr	r3, [sp, #4]
100056b0:	681b      	ldr	r3, [r3, #0]
100056b2:	b13b      	cbz	r3, 100056c4 <xTaskResumeAll.part.0+0x134>
100056b4:	2001      	movs	r0, #1
100056b6:	4b14      	ldr	r3, [pc, #80]	; (10005708 <xTaskResumeAll.part.0+0x178>)
100056b8:	9000      	str	r0, [sp, #0]
100056ba:	681b      	ldr	r3, [r3, #0]
100056bc:	f7fe fdc8 	bl	10004250 <vPortYield>
100056c0:	9800      	ldr	r0, [sp, #0]
100056c2:	e000      	b.n	100056c6 <xTaskResumeAll.part.0+0x136>
100056c4:	2000      	movs	r0, #0
100056c6:	9000      	str	r0, [sp, #0]
100056c8:	f7fe fddc 	bl	10004284 <vPortExitCritical>
100056cc:	9800      	ldr	r0, [sp, #0]
100056ce:	b003      	add	sp, #12
100056d0:	e8bd 8ff0 	ldmia.w	sp!, {r4, r5, r6, r7, r8, r9, sl, fp, pc}
100056d4:	f8dc 3000 	ldr.w	r3, [ip]
100056d8:	2b00      	cmp	r3, #0
100056da:	f47f af7a 	bne.w	100055d2 <xTaskResumeAll.part.0+0x42>
100056de:	4b0b      	ldr	r3, [pc, #44]	; (1000570c <xTaskResumeAll.part.0+0x17c>)
100056e0:	681a      	ldr	r2, [r3, #0]
100056e2:	6812      	ldr	r2, [r2, #0]
100056e4:	2a00      	cmp	r2, #0
100056e6:	d1c5      	bne.n	10005674 <xTaskResumeAll.part.0+0xe4>
100056e8:	f04f 32ff 	mov.w	r2, #4294967295
100056ec:	4b08      	ldr	r3, [pc, #32]	; (10005710 <xTaskResumeAll.part.0+0x180>)
100056ee:	601a      	str	r2, [r3, #0]
100056f0:	e7c5      	b.n	1000567e <xTaskResumeAll.part.0+0xee>
100056f2:	4b03      	ldr	r3, [pc, #12]	; (10005700 <xTaskResumeAll.part.0+0x170>)
100056f4:	9301      	str	r3, [sp, #4]
100056f6:	e7c2      	b.n	1000567e <xTaskResumeAll.part.0+0xee>
100056f8:	20005f44 	.word	0x20005f44
100056fc:	20005f3c 	.word	0x20005f3c
10005700:	2000601c 	.word	0x2000601c
10005704:	20001ea4 	.word	0x20001ea4
10005708:	20001e8c 	.word	0x20001e8c
1000570c:	20001e94 	.word	0x20001e94
10005710:	20005fb4 	.word	0x20005fb4
10005714:	20005fc4 	.word	0x20005fc4
10005718:	20005fc8 	.word	0x20005fc8
1000571c:	20005f4c 	.word	0x20005f4c

10005720 <xTaskCreate>:
10005720:	e92d 43f8 	stmdb	sp!, {r3, r4, r5, r6, r7, r8, r9, lr}
10005724:	0097      	lsls	r7, r2, #2
10005726:	4606      	mov	r6, r0
10005728:	4638      	mov	r0, r7
1000572a:	460c      	mov	r4, r1
1000572c:	4698      	mov	r8, r3
1000572e:	f000 ff1d 	bl	1000656c <pvPortMalloc>
10005732:	2800      	cmp	r0, #0
10005734:	d069      	beq.n	1000580a <xTaskCreate+0xea>
10005736:	4605      	mov	r5, r0
10005738:	2054      	movs	r0, #84	; 0x54
1000573a:	f000 ff17 	bl	1000656c <pvPortMalloc>
1000573e:	4681      	mov	r9, r0
10005740:	2800      	cmp	r0, #0
10005742:	d066      	beq.n	10005812 <xTaskCreate+0xf2>
10005744:	2254      	movs	r2, #84	; 0x54
10005746:	2100      	movs	r1, #0
10005748:	f001 f886 	bl	10006858 <memset>
1000574c:	f8c9 5030 	str.w	r5, [r9, #48]	; 0x30
10005750:	2c00      	cmp	r4, #0
10005752:	d056      	beq.n	10005802 <xTaskCreate+0xe2>
10005754:	7823      	ldrb	r3, [r4, #0]
10005756:	f889 3034 	strb.w	r3, [r9, #52]	; 0x34
1000575a:	7823      	ldrb	r3, [r4, #0]
1000575c:	2b00      	cmp	r3, #0
1000575e:	d04d      	beq.n	100057fc <xTaskCreate+0xdc>
10005760:	7863      	ldrb	r3, [r4, #1]
10005762:	f889 3035 	strb.w	r3, [r9, #53]	; 0x35
10005766:	7863      	ldrb	r3, [r4, #1]
10005768:	2b00      	cmp	r3, #0
1000576a:	d047      	beq.n	100057fc <xTaskCreate+0xdc>
1000576c:	78a3      	ldrb	r3, [r4, #2]
1000576e:	f889 3036 	strb.w	r3, [r9, #54]	; 0x36
10005772:	78a3      	ldrb	r3, [r4, #2]
10005774:	2b00      	cmp	r3, #0
10005776:	d041      	beq.n	100057fc <xTaskCreate+0xdc>
10005778:	78e3      	ldrb	r3, [r4, #3]
1000577a:	f889 3037 	strb.w	r3, [r9, #55]	; 0x37
1000577e:	78e3      	ldrb	r3, [r4, #3]
10005780:	2b00      	cmp	r3, #0
10005782:	d03b      	beq.n	100057fc <xTaskCreate+0xdc>
10005784:	7923      	ldrb	r3, [r4, #4]
10005786:	f889 3038 	strb.w	r3, [r9, #56]	; 0x38
1000578a:	7923      	ldrb	r3, [r4, #4]
1000578c:	2b00      	cmp	r3, #0
1000578e:	d035      	beq.n	100057fc <xTaskCreate+0xdc>
10005790:	7963      	ldrb	r3, [r4, #5]
10005792:	f889 3039 	strb.w	r3, [r9, #57]	; 0x39
10005796:	7963      	ldrb	r3, [r4, #5]
10005798:	2b00      	cmp	r3, #0
1000579a:	d02f      	beq.n	100057fc <xTaskCreate+0xdc>
1000579c:	79a3      	ldrb	r3, [r4, #6]
1000579e:	f889 303a 	strb.w	r3, [r9, #58]	; 0x3a
100057a2:	79a3      	ldrb	r3, [r4, #6]
100057a4:	b353      	cbz	r3, 100057fc <xTaskCreate+0xdc>
100057a6:	79e3      	ldrb	r3, [r4, #7]
100057a8:	f889 303b 	strb.w	r3, [r9, #59]	; 0x3b
100057ac:	79e3      	ldrb	r3, [r4, #7]
100057ae:	b32b      	cbz	r3, 100057fc <xTaskCreate+0xdc>
100057b0:	7a23      	ldrb	r3, [r4, #8]
100057b2:	f889 303c 	strb.w	r3, [r9, #60]	; 0x3c
100057b6:	7a23      	ldrb	r3, [r4, #8]
100057b8:	b303      	cbz	r3, 100057fc <xTaskCreate+0xdc>
100057ba:	7a63      	ldrb	r3, [r4, #9]
100057bc:	f889 303d 	strb.w	r3, [r9, #61]	; 0x3d
100057c0:	7a63      	ldrb	r3, [r4, #9]
100057c2:	b1db      	cbz	r3, 100057fc <xTaskCreate+0xdc>
100057c4:	7aa3      	ldrb	r3, [r4, #10]
100057c6:	f889 303e 	strb.w	r3, [r9, #62]	; 0x3e
100057ca:	7aa3      	ldrb	r3, [r4, #10]
100057cc:	b1b3      	cbz	r3, 100057fc <xTaskCreate+0xdc>
100057ce:	7ae3      	ldrb	r3, [r4, #11]
100057d0:	f889 303f 	strb.w	r3, [r9, #63]	; 0x3f
100057d4:	7ae3      	ldrb	r3, [r4, #11]
100057d6:	b18b      	cbz	r3, 100057fc <xTaskCreate+0xdc>
100057d8:	7b23      	ldrb	r3, [r4, #12]
100057da:	f889 3040 	strb.w	r3, [r9, #64]	; 0x40
100057de:	7b23      	ldrb	r3, [r4, #12]
100057e0:	b163      	cbz	r3, 100057fc <xTaskCreate+0xdc>
100057e2:	7b63      	ldrb	r3, [r4, #13]
100057e4:	f889 3041 	strb.w	r3, [r9, #65]	; 0x41
100057e8:	7b63      	ldrb	r3, [r4, #13]
100057ea:	b13b      	cbz	r3, 100057fc <xTaskCreate+0xdc>
100057ec:	7ba3      	ldrb	r3, [r4, #14]
100057ee:	f889 3042 	strb.w	r3, [r9, #66]	; 0x42
100057f2:	7ba3      	ldrb	r3, [r4, #14]
100057f4:	b113      	cbz	r3, 100057fc <xTaskCreate+0xdc>
100057f6:	7be3      	ldrb	r3, [r4, #15]
100057f8:	f889 3043 	strb.w	r3, [r9, #67]	; 0x43
100057fc:	2300      	movs	r3, #0
100057fe:	f889 3043 	strb.w	r3, [r9, #67]	; 0x43
10005802:	9b08      	ldr	r3, [sp, #32]
10005804:	2b04      	cmp	r3, #4
10005806:	d90b      	bls.n	10005820 <xTaskCreate+0x100>
10005808:	e7fe      	b.n	10005808 <xTaskCreate+0xe8>
1000580a:	f04f 30ff 	mov.w	r0, #4294967295
1000580e:	e8bd 83f8 	ldmia.w	sp!, {r3, r4, r5, r6, r7, r8, r9, pc}
10005812:	4628      	mov	r0, r5
10005814:	f000 ff4a 	bl	100066ac <vPortFree>
10005818:	f04f 30ff 	mov.w	r0, #4294967295
1000581c:	e8bd 83f8 	ldmia.w	sp!, {r3, r4, r5, r6, r7, r8, r9, pc}
10005820:	f8c9 302c 	str.w	r3, [r9, #44]	; 0x2c
10005824:	f8c9 3044 	str.w	r3, [r9, #68]	; 0x44
10005828:	f109 0004 	add.w	r0, r9, #4
1000582c:	f7ff f8b6 	bl	1000499c <vListInitialiseItem>
10005830:	f109 0018 	add.w	r0, r9, #24
10005834:	f7ff f8b2 	bl	1000499c <vListInitialiseItem>
10005838:	9c08      	ldr	r4, [sp, #32]
1000583a:	1f3a      	subs	r2, r7, #4
1000583c:	4415      	add	r5, r2
1000583e:	f1c4 0405 	rsb	r4, r4, #5
10005842:	4643      	mov	r3, r8
10005844:	4632      	mov	r2, r6
10005846:	f8d9 1030 	ldr.w	r1, [r9, #48]	; 0x30
1000584a:	f8c9 9010 	str.w	r9, [r9, #16]
1000584e:	f8c9 9024 	str.w	r9, [r9, #36]	; 0x24
10005852:	f025 0007 	bic.w	r0, r5, #7
10005856:	f8c9 4018 	str.w	r4, [r9, #24]
1000585a:	f7fe fd29 	bl	100042b0 <pxPortInitialiseStack>
1000585e:	9b09      	ldr	r3, [sp, #36]	; 0x24
10005860:	f8c9 0000 	str.w	r0, [r9]
10005864:	b10b      	cbz	r3, 1000586a <xTaskCreate+0x14a>
10005866:	f8c3 9000 	str.w	r9, [r3]
1000586a:	4648      	mov	r0, r9
1000586c:	f7ff fc96 	bl	1000519c <prvAddNewTaskToReadyList>
10005870:	2001      	movs	r0, #1
10005872:	e8bd 83f8 	ldmia.w	sp!, {r3, r4, r5, r6, r7, r8, r9, pc}
10005876:	bf00      	nop

10005878 <vTaskDelay>:
10005878:	b1b8      	cbz	r0, 100058aa <vTaskDelay+0x32>
1000587a:	b510      	push	{r4, lr}
1000587c:	4c0c      	ldr	r4, [pc, #48]	; (100058b0 <vTaskDelay+0x38>)
1000587e:	6823      	ldr	r3, [r4, #0]
10005880:	3301      	adds	r3, #1
10005882:	6023      	str	r3, [r4, #0]
10005884:	6823      	ldr	r3, [r4, #0]
10005886:	2b01      	cmp	r3, #1
10005888:	d000      	beq.n	1000588c <vTaskDelay+0x14>
1000588a:	e7fe      	b.n	1000588a <vTaskDelay+0x12>
1000588c:	2100      	movs	r1, #0
1000588e:	f7ff fd1f 	bl	100052d0 <prvAddCurrentTaskToDelayedList>
10005892:	f7fe fce9 	bl	10004268 <vPortEnterCritical>
10005896:	6823      	ldr	r3, [r4, #0]
10005898:	b133      	cbz	r3, 100058a8 <vTaskDelay+0x30>
1000589a:	f7ff fe79 	bl	10005590 <xTaskResumeAll.part.0>
1000589e:	b930      	cbnz	r0, 100058ae <vTaskDelay+0x36>
100058a0:	e8bd 4010 	ldmia.w	sp!, {r4, lr}
100058a4:	f7fe bcd4 	b.w	10004250 <vPortYield>
100058a8:	e7fe      	b.n	100058a8 <vTaskDelay+0x30>
100058aa:	f7fe bcd1 	b.w	10004250 <vPortYield>
100058ae:	bd10      	pop	{r4, pc}
100058b0:	20005f44 	.word	0x20005f44

100058b4 <vTaskStartScheduler>:
100058b4:	b570      	push	{r4, r5, r6, lr}
100058b6:	f44f 6080 	mov.w	r0, #1024	; 0x400
100058ba:	f000 fe57 	bl	1000656c <pvPortMalloc>
100058be:	2800      	cmp	r0, #0
100058c0:	d041      	beq.n	10005946 <vTaskStartScheduler+0x92>
100058c2:	4605      	mov	r5, r0
100058c4:	2054      	movs	r0, #84	; 0x54
100058c6:	f000 fe51 	bl	1000656c <pvPortMalloc>
100058ca:	4604      	mov	r4, r0
100058cc:	2800      	cmp	r0, #0
100058ce:	d037      	beq.n	10005940 <vTaskStartScheduler+0x8c>
100058d0:	2605      	movs	r6, #5
100058d2:	2254      	movs	r2, #84	; 0x54
100058d4:	2100      	movs	r1, #0
100058d6:	f000 ffbf 	bl	10006858 <memset>
100058da:	4b1d      	ldr	r3, [pc, #116]	; (10005950 <vTaskStartScheduler+0x9c>)
100058dc:	1d20      	adds	r0, r4, #4
100058de:	6363      	str	r3, [r4, #52]	; 0x34
100058e0:	6325      	str	r5, [r4, #48]	; 0x30
100058e2:	f505 757f 	add.w	r5, r5, #1020	; 0x3fc
100058e6:	f7ff f859 	bl	1000499c <vListInitialiseItem>
100058ea:	f025 0507 	bic.w	r5, r5, #7
100058ee:	f104 0018 	add.w	r0, r4, #24
100058f2:	f7ff f853 	bl	1000499c <vListInitialiseItem>
100058f6:	6b21      	ldr	r1, [r4, #48]	; 0x30
100058f8:	2300      	movs	r3, #0
100058fa:	4a16      	ldr	r2, [pc, #88]	; (10005954 <vTaskStartScheduler+0xa0>)
100058fc:	6124      	str	r4, [r4, #16]
100058fe:	6264      	str	r4, [r4, #36]	; 0x24
10005900:	61a6      	str	r6, [r4, #24]
10005902:	4628      	mov	r0, r5
10005904:	f7fe fcd4 	bl	100042b0 <pxPortInitialiseStack>
10005908:	4602      	mov	r2, r0
1000590a:	4b13      	ldr	r3, [pc, #76]	; (10005958 <vTaskStartScheduler+0xa4>)
1000590c:	6022      	str	r2, [r4, #0]
1000590e:	4620      	mov	r0, r4
10005910:	601c      	str	r4, [r3, #0]
10005912:	f7ff fc43 	bl	1000519c <prvAddNewTaskToReadyList>
10005916:	f000 fd31 	bl	1000637c <xTimerCreateTimerTask>
1000591a:	2801      	cmp	r0, #1
1000591c:	4604      	mov	r4, r0
1000591e:	d113      	bne.n	10005948 <vTaskStartScheduler+0x94>
10005920:	f7fe fefc 	bl	1000471c <ulSetInterruptMask>
10005924:	f04f 35ff 	mov.w	r5, #4294967295
10005928:	2200      	movs	r2, #0
1000592a:	480c      	ldr	r0, [pc, #48]	; (1000595c <vTaskStartScheduler+0xa8>)
1000592c:	490c      	ldr	r1, [pc, #48]	; (10005960 <vTaskStartScheduler+0xac>)
1000592e:	4b0d      	ldr	r3, [pc, #52]	; (10005964 <vTaskStartScheduler+0xb0>)
10005930:	6005      	str	r5, [r0, #0]
10005932:	600c      	str	r4, [r1, #0]
10005934:	601a      	str	r2, [r3, #0]
10005936:	f7fe fcf9 	bl	1000432c <xPortStartScheduler>
1000593a:	4b0b      	ldr	r3, [pc, #44]	; (10005968 <vTaskStartScheduler+0xb4>)
1000593c:	681b      	ldr	r3, [r3, #0]
1000593e:	bd70      	pop	{r4, r5, r6, pc}
10005940:	4628      	mov	r0, r5
10005942:	f000 feb3 	bl	100066ac <vPortFree>
10005946:	e7fe      	b.n	10005946 <vTaskStartScheduler+0x92>
10005948:	3401      	adds	r4, #1
1000594a:	d1f6      	bne.n	1000593a <vTaskStartScheduler+0x86>
1000594c:	e7fb      	b.n	10005946 <vTaskStartScheduler+0x92>
1000594e:	bf00      	nop
10005950:	454c4449 	.word	0x454c4449
10005954:	10005385 	.word	0x10005385
10005958:	20005fa8 	.word	0x20005fa8
1000595c:	20005fb4 	.word	0x20005fb4
10005960:	20005fdc 	.word	0x20005fdc
10005964:	20006010 	.word	0x20006010
10005968:	20001270 	.word	0x20001270

1000596c <vTaskSuspendAll>:
1000596c:	4a02      	ldr	r2, [pc, #8]	; (10005978 <vTaskSuspendAll+0xc>)
1000596e:	6813      	ldr	r3, [r2, #0]
10005970:	3301      	adds	r3, #1
10005972:	6013      	str	r3, [r2, #0]
10005974:	4770      	bx	lr
10005976:	bf00      	nop
10005978:	20005f44 	.word	0x20005f44

1000597c <xTaskResumeAll>:
1000597c:	b508      	push	{r3, lr}
1000597e:	f7fe fc73 	bl	10004268 <vPortEnterCritical>
10005982:	4b04      	ldr	r3, [pc, #16]	; (10005994 <xTaskResumeAll+0x18>)
10005984:	681b      	ldr	r3, [r3, #0]
10005986:	b11b      	cbz	r3, 10005990 <xTaskResumeAll+0x14>
10005988:	e8bd 4008 	ldmia.w	sp!, {r3, lr}
1000598c:	f7ff be00 	b.w	10005590 <xTaskResumeAll.part.0>
10005990:	e7fe      	b.n	10005990 <xTaskResumeAll+0x14>
10005992:	bf00      	nop
10005994:	20005f44 	.word	0x20005f44

10005998 <xTaskGetTickCount>:
10005998:	4b01      	ldr	r3, [pc, #4]	; (100059a0 <xTaskGetTickCount+0x8>)
1000599a:	6818      	ldr	r0, [r3, #0]
1000599c:	4770      	bx	lr
1000599e:	bf00      	nop
100059a0:	20006010 	.word	0x20006010

100059a4 <uxTaskGetNumberOfTasks>:
100059a4:	4b01      	ldr	r3, [pc, #4]	; (100059ac <uxTaskGetNumberOfTasks+0x8>)
100059a6:	6818      	ldr	r0, [r3, #0]
100059a8:	4770      	bx	lr
100059aa:	bf00      	nop
100059ac:	20005f3c 	.word	0x20005f3c

100059b0 <xTaskIncrementTick>:
100059b0:	4b05      	ldr	r3, [pc, #20]	; (100059c8 <xTaskIncrementTick+0x18>)
100059b2:	681b      	ldr	r3, [r3, #0]
100059b4:	b90b      	cbnz	r3, 100059ba <xTaskIncrementTick+0xa>
100059b6:	f7ff bd13 	b.w	100053e0 <xTaskIncrementTick.part.0>
100059ba:	4a04      	ldr	r2, [pc, #16]	; (100059cc <xTaskIncrementTick+0x1c>)
100059bc:	2000      	movs	r0, #0
100059be:	6813      	ldr	r3, [r2, #0]
100059c0:	3301      	adds	r3, #1
100059c2:	6013      	str	r3, [r2, #0]
100059c4:	4770      	bx	lr
100059c6:	bf00      	nop
100059c8:	20005f44 	.word	0x20005f44
100059cc:	20005fc4 	.word	0x20005fc4

100059d0 <vTaskSwitchContext>:
100059d0:	4b13      	ldr	r3, [pc, #76]	; (10005a20 <vTaskSwitchContext+0x50>)
100059d2:	681b      	ldr	r3, [r3, #0]
100059d4:	b11b      	cbz	r3, 100059de <vTaskSwitchContext+0xe>
100059d6:	2201      	movs	r2, #1
100059d8:	4b12      	ldr	r3, [pc, #72]	; (10005a24 <vTaskSwitchContext+0x54>)
100059da:	601a      	str	r2, [r3, #0]
100059dc:	4770      	bx	lr
100059de:	4911      	ldr	r1, [pc, #68]	; (10005a24 <vTaskSwitchContext+0x54>)
100059e0:	4a11      	ldr	r2, [pc, #68]	; (10005a28 <vTaskSwitchContext+0x58>)
100059e2:	600b      	str	r3, [r1, #0]
100059e4:	6813      	ldr	r3, [r2, #0]
100059e6:	fab3 f383 	clz	r3, r3
100059ea:	f1c3 031f 	rsb	r3, r3, #31
100059ee:	4a0f      	ldr	r2, [pc, #60]	; (10005a2c <vTaskSwitchContext+0x5c>)
100059f0:	eb03 0383 	add.w	r3, r3, r3, lsl #2
100059f4:	0099      	lsls	r1, r3, #2
100059f6:	5850      	ldr	r0, [r2, r1]
100059f8:	eb02 0383 	add.w	r3, r2, r3, lsl #2
100059fc:	b900      	cbnz	r0, 10005a00 <vTaskSwitchContext+0x30>
100059fe:	e7fe      	b.n	100059fe <vTaskSwitchContext+0x2e>
10005a00:	6858      	ldr	r0, [r3, #4]
10005a02:	3108      	adds	r1, #8
10005a04:	6840      	ldr	r0, [r0, #4]
10005a06:	440a      	add	r2, r1
10005a08:	4290      	cmp	r0, r2
10005a0a:	6058      	str	r0, [r3, #4]
10005a0c:	bf08      	it	eq
10005a0e:	68d8      	ldreq	r0, [r3, #12]
10005a10:	68c2      	ldr	r2, [r0, #12]
10005a12:	bf08      	it	eq
10005a14:	6058      	streq	r0, [r3, #4]
10005a16:	4b06      	ldr	r3, [pc, #24]	; (10005a30 <vTaskSwitchContext+0x60>)
10005a18:	601a      	str	r2, [r3, #0]
10005a1a:	681b      	ldr	r3, [r3, #0]
10005a1c:	4770      	bx	lr
10005a1e:	bf00      	nop
10005a20:	20005f44 	.word	0x20005f44
10005a24:	2000601c 	.word	0x2000601c
10005a28:	20005f4c 	.word	0x20005f4c
10005a2c:	20001ea4 	.word	0x20001ea4
10005a30:	20001e8c 	.word	0x20001e8c

10005a34 <vTaskPlaceOnEventList>:
10005a34:	b350      	cbz	r0, 10005a8c <vTaskPlaceOnEventList+0x58>
10005a36:	e92d 41f0 	stmdb	sp!, {r4, r5, r6, r7, r8, lr}
10005a3a:	4d25      	ldr	r5, [pc, #148]	; (10005ad0 <vTaskPlaceOnEventList+0x9c>)
10005a3c:	460c      	mov	r4, r1
10005a3e:	6829      	ldr	r1, [r5, #0]
10005a40:	3118      	adds	r1, #24
10005a42:	f7fe ffaf 	bl	100049a4 <vListInsert>
10005a46:	4923      	ldr	r1, [pc, #140]	; (10005ad4 <vTaskPlaceOnEventList+0xa0>)
10005a48:	4a23      	ldr	r2, [pc, #140]	; (10005ad8 <vTaskPlaceOnEventList+0xa4>)
10005a4a:	4b24      	ldr	r3, [pc, #144]	; (10005adc <vTaskPlaceOnEventList+0xa8>)
10005a4c:	680e      	ldr	r6, [r1, #0]
10005a4e:	6817      	ldr	r7, [r2, #0]
10005a50:	f8d3 8000 	ldr.w	r8, [r3]
10005a54:	6828      	ldr	r0, [r5, #0]
10005a56:	3004      	adds	r0, #4
10005a58:	f7fe ffbc 	bl	100049d4 <uxListRemove>
10005a5c:	b948      	cbnz	r0, 10005a72 <vTaskPlaceOnEventList+0x3e>
10005a5e:	2301      	movs	r3, #1
10005a60:	682a      	ldr	r2, [r5, #0]
10005a62:	491f      	ldr	r1, [pc, #124]	; (10005ae0 <vTaskPlaceOnEventList+0xac>)
10005a64:	6ad2      	ldr	r2, [r2, #44]	; 0x2c
10005a66:	fa03 f202 	lsl.w	r2, r3, r2
10005a6a:	680b      	ldr	r3, [r1, #0]
10005a6c:	ea23 0302 	bic.w	r3, r3, r2
10005a70:	600b      	str	r3, [r1, #0]
10005a72:	1c63      	adds	r3, r4, #1
10005a74:	d00b      	beq.n	10005a8e <vTaskPlaceOnEventList+0x5a>
10005a76:	682b      	ldr	r3, [r5, #0]
10005a78:	19a4      	adds	r4, r4, r6
10005a7a:	6829      	ldr	r1, [r5, #0]
10005a7c:	605c      	str	r4, [r3, #4]
10005a7e:	d31b      	bcc.n	10005ab8 <vTaskPlaceOnEventList+0x84>
10005a80:	4640      	mov	r0, r8
10005a82:	e8bd 41f0 	ldmia.w	sp!, {r4, r5, r6, r7, r8, lr}
10005a86:	3104      	adds	r1, #4
10005a88:	f7fe bf8c 	b.w	100049a4 <vListInsert>
10005a8c:	e7fe      	b.n	10005a8c <vTaskPlaceOnEventList+0x58>
10005a8e:	4b15      	ldr	r3, [pc, #84]	; (10005ae4 <vTaskPlaceOnEventList+0xb0>)
10005a90:	6828      	ldr	r0, [r5, #0]
10005a92:	685a      	ldr	r2, [r3, #4]
10005a94:	6829      	ldr	r1, [r5, #0]
10005a96:	6082      	str	r2, [r0, #8]
10005a98:	6890      	ldr	r0, [r2, #8]
10005a9a:	60c8      	str	r0, [r1, #12]
10005a9c:	6829      	ldr	r1, [r5, #0]
10005a9e:	6890      	ldr	r0, [r2, #8]
10005aa0:	3104      	adds	r1, #4
10005aa2:	6041      	str	r1, [r0, #4]
10005aa4:	6828      	ldr	r0, [r5, #0]
10005aa6:	6819      	ldr	r1, [r3, #0]
10005aa8:	682c      	ldr	r4, [r5, #0]
10005aaa:	3004      	adds	r0, #4
10005aac:	3101      	adds	r1, #1
10005aae:	6090      	str	r0, [r2, #8]
10005ab0:	6019      	str	r1, [r3, #0]
10005ab2:	6163      	str	r3, [r4, #20]
10005ab4:	e8bd 81f0 	ldmia.w	sp!, {r4, r5, r6, r7, r8, pc}
10005ab8:	4638      	mov	r0, r7
10005aba:	3104      	adds	r1, #4
10005abc:	f7fe ff72 	bl	100049a4 <vListInsert>
10005ac0:	4b09      	ldr	r3, [pc, #36]	; (10005ae8 <vTaskPlaceOnEventList+0xb4>)
10005ac2:	681a      	ldr	r2, [r3, #0]
10005ac4:	4294      	cmp	r4, r2
10005ac6:	bf38      	it	cc
10005ac8:	601c      	strcc	r4, [r3, #0]
10005aca:	e8bd 81f0 	ldmia.w	sp!, {r4, r5, r6, r7, r8, pc}
10005ace:	bf00      	nop
10005ad0:	20001e8c 	.word	0x20001e8c
10005ad4:	20006010 	.word	0x20006010
10005ad8:	20001e94 	.word	0x20001e94
10005adc:	20001e9c 	.word	0x20001e9c
10005ae0:	20005f4c 	.word	0x20005f4c
10005ae4:	20005fe8 	.word	0x20005fe8
10005ae8:	20005fb4 	.word	0x20005fb4

10005aec <vTaskPlaceOnUnorderedEventList>:
10005aec:	b128      	cbz	r0, 10005afa <vTaskPlaceOnUnorderedEventList+0xe>
10005aee:	e92d 43f8 	stmdb	sp!, {r3, r4, r5, r6, r7, r8, r9, lr}
10005af2:	4b32      	ldr	r3, [pc, #200]	; (10005bbc <vTaskPlaceOnUnorderedEventList+0xd0>)
10005af4:	681b      	ldr	r3, [r3, #0]
10005af6:	b90b      	cbnz	r3, 10005afc <vTaskPlaceOnUnorderedEventList+0x10>
10005af8:	e7fe      	b.n	10005af8 <vTaskPlaceOnUnorderedEventList+0xc>
10005afa:	e7fe      	b.n	10005afa <vTaskPlaceOnUnorderedEventList+0xe>
10005afc:	4c30      	ldr	r4, [pc, #192]	; (10005bc0 <vTaskPlaceOnUnorderedEventList+0xd4>)
10005afe:	f041 4100 	orr.w	r1, r1, #2147483648	; 0x80000000
10005b02:	6823      	ldr	r3, [r4, #0]
10005b04:	4615      	mov	r5, r2
10005b06:	6199      	str	r1, [r3, #24]
10005b08:	6822      	ldr	r2, [r4, #0]
10005b0a:	6843      	ldr	r3, [r0, #4]
10005b0c:	4e2d      	ldr	r6, [pc, #180]	; (10005bc4 <vTaskPlaceOnUnorderedEventList+0xd8>)
10005b0e:	6899      	ldr	r1, [r3, #8]
10005b10:	61d3      	str	r3, [r2, #28]
10005b12:	6822      	ldr	r2, [r4, #0]
10005b14:	4f2c      	ldr	r7, [pc, #176]	; (10005bc8 <vTaskPlaceOnUnorderedEventList+0xdc>)
10005b16:	6211      	str	r1, [r2, #32]
10005b18:	6822      	ldr	r2, [r4, #0]
10005b1a:	492c      	ldr	r1, [pc, #176]	; (10005bcc <vTaskPlaceOnUnorderedEventList+0xe0>)
10005b1c:	f102 0e18 	add.w	lr, r2, #24
10005b20:	6822      	ldr	r2, [r4, #0]
10005b22:	f8d4 9000 	ldr.w	r9, [r4]
10005b26:	f102 0c18 	add.w	ip, r2, #24
10005b2a:	6802      	ldr	r2, [r0, #0]
10005b2c:	6836      	ldr	r6, [r6, #0]
10005b2e:	683f      	ldr	r7, [r7, #0]
10005b30:	f8d1 8000 	ldr.w	r8, [r1]
10005b34:	6899      	ldr	r1, [r3, #8]
10005b36:	3201      	adds	r2, #1
10005b38:	f8c1 e004 	str.w	lr, [r1, #4]
10005b3c:	f8c3 c008 	str.w	ip, [r3, #8]
10005b40:	f8c9 0028 	str.w	r0, [r9, #40]	; 0x28
10005b44:	6002      	str	r2, [r0, #0]
10005b46:	6820      	ldr	r0, [r4, #0]
10005b48:	3004      	adds	r0, #4
10005b4a:	f7fe ff43 	bl	100049d4 <uxListRemove>
10005b4e:	b948      	cbnz	r0, 10005b64 <vTaskPlaceOnUnorderedEventList+0x78>
10005b50:	2301      	movs	r3, #1
10005b52:	6822      	ldr	r2, [r4, #0]
10005b54:	491e      	ldr	r1, [pc, #120]	; (10005bd0 <vTaskPlaceOnUnorderedEventList+0xe4>)
10005b56:	6ad2      	ldr	r2, [r2, #44]	; 0x2c
10005b58:	fa03 f202 	lsl.w	r2, r3, r2
10005b5c:	680b      	ldr	r3, [r1, #0]
10005b5e:	ea23 0302 	bic.w	r3, r3, r2
10005b62:	600b      	str	r3, [r1, #0]
10005b64:	1c6b      	adds	r3, r5, #1
10005b66:	d00a      	beq.n	10005b7e <vTaskPlaceOnUnorderedEventList+0x92>
10005b68:	6823      	ldr	r3, [r4, #0]
10005b6a:	19ad      	adds	r5, r5, r6
10005b6c:	6821      	ldr	r1, [r4, #0]
10005b6e:	605d      	str	r5, [r3, #4]
10005b70:	d31a      	bcc.n	10005ba8 <vTaskPlaceOnUnorderedEventList+0xbc>
10005b72:	4640      	mov	r0, r8
10005b74:	e8bd 43f8 	ldmia.w	sp!, {r3, r4, r5, r6, r7, r8, r9, lr}
10005b78:	3104      	adds	r1, #4
10005b7a:	f7fe bf13 	b.w	100049a4 <vListInsert>
10005b7e:	4b15      	ldr	r3, [pc, #84]	; (10005bd4 <vTaskPlaceOnUnorderedEventList+0xe8>)
10005b80:	6820      	ldr	r0, [r4, #0]
10005b82:	685a      	ldr	r2, [r3, #4]
10005b84:	6821      	ldr	r1, [r4, #0]
10005b86:	6082      	str	r2, [r0, #8]
10005b88:	6890      	ldr	r0, [r2, #8]
10005b8a:	60c8      	str	r0, [r1, #12]
10005b8c:	6821      	ldr	r1, [r4, #0]
10005b8e:	6890      	ldr	r0, [r2, #8]
10005b90:	3104      	adds	r1, #4
10005b92:	6041      	str	r1, [r0, #4]
10005b94:	6820      	ldr	r0, [r4, #0]
10005b96:	6819      	ldr	r1, [r3, #0]
10005b98:	6824      	ldr	r4, [r4, #0]
10005b9a:	3004      	adds	r0, #4
10005b9c:	3101      	adds	r1, #1
10005b9e:	6090      	str	r0, [r2, #8]
10005ba0:	6019      	str	r1, [r3, #0]
10005ba2:	6163      	str	r3, [r4, #20]
10005ba4:	e8bd 83f8 	ldmia.w	sp!, {r3, r4, r5, r6, r7, r8, r9, pc}
10005ba8:	4638      	mov	r0, r7
10005baa:	3104      	adds	r1, #4
10005bac:	f7fe fefa 	bl	100049a4 <vListInsert>
10005bb0:	4b09      	ldr	r3, [pc, #36]	; (10005bd8 <vTaskPlaceOnUnorderedEventList+0xec>)
10005bb2:	681a      	ldr	r2, [r3, #0]
10005bb4:	4295      	cmp	r5, r2
10005bb6:	bf38      	it	cc
10005bb8:	601d      	strcc	r5, [r3, #0]
10005bba:	e7f3      	b.n	10005ba4 <vTaskPlaceOnUnorderedEventList+0xb8>
10005bbc:	20005f44 	.word	0x20005f44
10005bc0:	20001e8c 	.word	0x20001e8c
10005bc4:	20006010 	.word	0x20006010
10005bc8:	20001e94 	.word	0x20001e94
10005bcc:	20001e9c 	.word	0x20001e9c
10005bd0:	20005f4c 	.word	0x20005f4c
10005bd4:	20005fe8 	.word	0x20005fe8
10005bd8:	20005fb4 	.word	0x20005fb4

10005bdc <vTaskPlaceOnEventListRestricted>:
10005bdc:	2800      	cmp	r0, #0
10005bde:	d040      	beq.n	10005c62 <vTaskPlaceOnEventListRestricted+0x86>
10005be0:	e92d 43f8 	stmdb	sp!, {r3, r4, r5, r6, r7, r8, r9, lr}
10005be4:	4616      	mov	r6, r2
10005be6:	4c3a      	ldr	r4, [pc, #232]	; (10005cd0 <vTaskPlaceOnEventListRestricted+0xf4>)
10005be8:	6843      	ldr	r3, [r0, #4]
10005bea:	6822      	ldr	r2, [r4, #0]
10005bec:	460d      	mov	r5, r1
10005bee:	6899      	ldr	r1, [r3, #8]
10005bf0:	61d3      	str	r3, [r2, #28]
10005bf2:	6822      	ldr	r2, [r4, #0]
10005bf4:	6827      	ldr	r7, [r4, #0]
10005bf6:	6211      	str	r1, [r2, #32]
10005bf8:	6802      	ldr	r2, [r0, #0]
10005bfa:	6821      	ldr	r1, [r4, #0]
10005bfc:	f102 0c01 	add.w	ip, r2, #1
10005c00:	689a      	ldr	r2, [r3, #8]
10005c02:	3718      	adds	r7, #24
10005c04:	3118      	adds	r1, #24
10005c06:	6057      	str	r7, [r2, #4]
10005c08:	6099      	str	r1, [r3, #8]
10005c0a:	6823      	ldr	r3, [r4, #0]
10005c0c:	6298      	str	r0, [r3, #40]	; 0x28
10005c0e:	f8c0 c000 	str.w	ip, [r0]
10005c12:	b33e      	cbz	r6, 10005c64 <vTaskPlaceOnEventListRestricted+0x88>
10005c14:	492f      	ldr	r1, [pc, #188]	; (10005cd4 <vTaskPlaceOnEventListRestricted+0xf8>)
10005c16:	4a30      	ldr	r2, [pc, #192]	; (10005cd8 <vTaskPlaceOnEventListRestricted+0xfc>)
10005c18:	4b30      	ldr	r3, [pc, #192]	; (10005cdc <vTaskPlaceOnEventListRestricted+0x100>)
10005c1a:	680f      	ldr	r7, [r1, #0]
10005c1c:	f8d2 9000 	ldr.w	r9, [r2]
10005c20:	f8d3 8000 	ldr.w	r8, [r3]
10005c24:	6820      	ldr	r0, [r4, #0]
10005c26:	3004      	adds	r0, #4
10005c28:	f7fe fed4 	bl	100049d4 <uxListRemove>
10005c2c:	2800      	cmp	r0, #0
10005c2e:	d139      	bne.n	10005ca4 <vTaskPlaceOnEventListRestricted+0xc8>
10005c30:	f04f 35ff 	mov.w	r5, #4294967295
10005c34:	2301      	movs	r3, #1
10005c36:	6822      	ldr	r2, [r4, #0]
10005c38:	4929      	ldr	r1, [pc, #164]	; (10005ce0 <vTaskPlaceOnEventListRestricted+0x104>)
10005c3a:	6ad2      	ldr	r2, [r2, #44]	; 0x2c
10005c3c:	fa03 f202 	lsl.w	r2, r3, r2
10005c40:	680b      	ldr	r3, [r1, #0]
10005c42:	ea23 0302 	bic.w	r3, r3, r2
10005c46:	600b      	str	r3, [r1, #0]
10005c48:	1c6b      	adds	r3, r5, #1
10005c4a:	d029      	beq.n	10005ca0 <vTaskPlaceOnEventListRestricted+0xc4>
10005c4c:	6823      	ldr	r3, [r4, #0]
10005c4e:	197d      	adds	r5, r7, r5
10005c50:	6821      	ldr	r1, [r4, #0]
10005c52:	605d      	str	r5, [r3, #4]
10005c54:	d319      	bcc.n	10005c8a <vTaskPlaceOnEventListRestricted+0xae>
10005c56:	4640      	mov	r0, r8
10005c58:	e8bd 43f8 	ldmia.w	sp!, {r3, r4, r5, r6, r7, r8, r9, lr}
10005c5c:	3104      	adds	r1, #4
10005c5e:	f7fe bea1 	b.w	100049a4 <vListInsert>
10005c62:	e7fe      	b.n	10005c62 <vTaskPlaceOnEventListRestricted+0x86>
10005c64:	4b1c      	ldr	r3, [pc, #112]	; (10005cd8 <vTaskPlaceOnEventListRestricted+0xfc>)
10005c66:	4a1b      	ldr	r2, [pc, #108]	; (10005cd4 <vTaskPlaceOnEventListRestricted+0xf8>)
10005c68:	6817      	ldr	r7, [r2, #0]
10005c6a:	f8d3 9000 	ldr.w	r9, [r3]
10005c6e:	4b1b      	ldr	r3, [pc, #108]	; (10005cdc <vTaskPlaceOnEventListRestricted+0x100>)
10005c70:	f8d3 8000 	ldr.w	r8, [r3]
10005c74:	6820      	ldr	r0, [r4, #0]
10005c76:	3004      	adds	r0, #4
10005c78:	f7fe feac 	bl	100049d4 <uxListRemove>
10005c7c:	2800      	cmp	r0, #0
10005c7e:	d0d9      	beq.n	10005c34 <vTaskPlaceOnEventListRestricted+0x58>
10005c80:	6823      	ldr	r3, [r4, #0]
10005c82:	197d      	adds	r5, r7, r5
10005c84:	6821      	ldr	r1, [r4, #0]
10005c86:	605d      	str	r5, [r3, #4]
10005c88:	d2e5      	bcs.n	10005c56 <vTaskPlaceOnEventListRestricted+0x7a>
10005c8a:	4648      	mov	r0, r9
10005c8c:	3104      	adds	r1, #4
10005c8e:	f7fe fe89 	bl	100049a4 <vListInsert>
10005c92:	4b14      	ldr	r3, [pc, #80]	; (10005ce4 <vTaskPlaceOnEventListRestricted+0x108>)
10005c94:	681a      	ldr	r2, [r3, #0]
10005c96:	4295      	cmp	r5, r2
10005c98:	d200      	bcs.n	10005c9c <vTaskPlaceOnEventListRestricted+0xc0>
10005c9a:	601d      	str	r5, [r3, #0]
10005c9c:	e8bd 83f8 	ldmia.w	sp!, {r3, r4, r5, r6, r7, r8, r9, pc}
10005ca0:	2e00      	cmp	r6, #0
10005ca2:	d0d3      	beq.n	10005c4c <vTaskPlaceOnEventListRestricted+0x70>
10005ca4:	4b10      	ldr	r3, [pc, #64]	; (10005ce8 <vTaskPlaceOnEventListRestricted+0x10c>)
10005ca6:	6820      	ldr	r0, [r4, #0]
10005ca8:	685a      	ldr	r2, [r3, #4]
10005caa:	6821      	ldr	r1, [r4, #0]
10005cac:	6082      	str	r2, [r0, #8]
10005cae:	6890      	ldr	r0, [r2, #8]
10005cb0:	60c8      	str	r0, [r1, #12]
10005cb2:	6821      	ldr	r1, [r4, #0]
10005cb4:	6890      	ldr	r0, [r2, #8]
10005cb6:	3104      	adds	r1, #4
10005cb8:	6041      	str	r1, [r0, #4]
10005cba:	6820      	ldr	r0, [r4, #0]
10005cbc:	6819      	ldr	r1, [r3, #0]
10005cbe:	6824      	ldr	r4, [r4, #0]
10005cc0:	3004      	adds	r0, #4
10005cc2:	3101      	adds	r1, #1
10005cc4:	6090      	str	r0, [r2, #8]
10005cc6:	6019      	str	r1, [r3, #0]
10005cc8:	6163      	str	r3, [r4, #20]
10005cca:	e8bd 83f8 	ldmia.w	sp!, {r3, r4, r5, r6, r7, r8, r9, pc}
10005cce:	bf00      	nop
10005cd0:	20001e8c 	.word	0x20001e8c
10005cd4:	20006010 	.word	0x20006010
10005cd8:	20001e94 	.word	0x20001e94
10005cdc:	20001e9c 	.word	0x20001e9c
10005ce0:	20005f4c 	.word	0x20005f4c
10005ce4:	20005fb4 	.word	0x20005fb4
10005ce8:	20005fe8 	.word	0x20005fe8

10005cec <xTaskRemoveFromEventList>:
10005cec:	68c3      	ldr	r3, [r0, #12]
10005cee:	68db      	ldr	r3, [r3, #12]
10005cf0:	2b00      	cmp	r3, #0
10005cf2:	d02c      	beq.n	10005d4e <xTaskRemoveFromEventList+0x62>
10005cf4:	e9d3 0107 	ldrd	r0, r1, [r3, #28]
10005cf8:	e92d 41f0 	stmdb	sp!, {r4, r5, r6, r7, r8, lr}
10005cfc:	2500      	movs	r5, #0
10005cfe:	6a9a      	ldr	r2, [r3, #40]	; 0x28
10005d00:	6081      	str	r1, [r0, #8]
10005d02:	6048      	str	r0, [r1, #4]
10005d04:	6850      	ldr	r0, [r2, #4]
10005d06:	f103 0418 	add.w	r4, r3, #24
10005d0a:	42a0      	cmp	r0, r4
10005d0c:	482a      	ldr	r0, [pc, #168]	; (10005db8 <xTaskRemoveFromEventList+0xcc>)
10005d0e:	bf08      	it	eq
10005d10:	6051      	streq	r1, [r2, #4]
10005d12:	6811      	ldr	r1, [r2, #0]
10005d14:	6800      	ldr	r0, [r0, #0]
10005d16:	3901      	subs	r1, #1
10005d18:	629d      	str	r5, [r3, #40]	; 0x28
10005d1a:	6011      	str	r1, [r2, #0]
10005d1c:	b1c0      	cbz	r0, 10005d50 <xTaskRemoveFromEventList+0x64>
10005d1e:	4927      	ldr	r1, [pc, #156]	; (10005dbc <xTaskRemoveFromEventList+0xd0>)
10005d20:	684a      	ldr	r2, [r1, #4]
10005d22:	6890      	ldr	r0, [r2, #8]
10005d24:	e9c3 2007 	strd	r2, r0, [r3, #28]
10005d28:	6890      	ldr	r0, [r2, #8]
10005d2a:	6044      	str	r4, [r0, #4]
10005d2c:	6094      	str	r4, [r2, #8]
10005d2e:	6ada      	ldr	r2, [r3, #44]	; 0x2c
10005d30:	6299      	str	r1, [r3, #40]	; 0x28
10005d32:	4b23      	ldr	r3, [pc, #140]	; (10005dc0 <xTaskRemoveFromEventList+0xd4>)
10005d34:	6808      	ldr	r0, [r1, #0]
10005d36:	681b      	ldr	r3, [r3, #0]
10005d38:	3001      	adds	r0, #1
10005d3a:	6adb      	ldr	r3, [r3, #44]	; 0x2c
10005d3c:	6008      	str	r0, [r1, #0]
10005d3e:	4293      	cmp	r3, r2
10005d40:	d237      	bcs.n	10005db2 <xTaskRemoveFromEventList+0xc6>
10005d42:	2301      	movs	r3, #1
10005d44:	4a1f      	ldr	r2, [pc, #124]	; (10005dc4 <xTaskRemoveFromEventList+0xd8>)
10005d46:	4618      	mov	r0, r3
10005d48:	6013      	str	r3, [r2, #0]
10005d4a:	e8bd 81f0 	ldmia.w	sp!, {r4, r5, r6, r7, r8, pc}
10005d4e:	e7fe      	b.n	10005d4e <xTaskRemoveFromEventList+0x62>
10005d50:	6959      	ldr	r1, [r3, #20]
10005d52:	e9d3 2002 	ldrd	r2, r0, [r3, #8]
10005d56:	6090      	str	r0, [r2, #8]
10005d58:	68d8      	ldr	r0, [r3, #12]
10005d5a:	1d1f      	adds	r7, r3, #4
10005d5c:	6042      	str	r2, [r0, #4]
10005d5e:	684a      	ldr	r2, [r1, #4]
10005d60:	4d19      	ldr	r5, [pc, #100]	; (10005dc8 <xTaskRemoveFromEventList+0xdc>)
10005d62:	42ba      	cmp	r2, r7
10005d64:	bf08      	it	eq
10005d66:	6048      	streq	r0, [r1, #4]
10005d68:	6808      	ldr	r0, [r1, #0]
10005d6a:	6ada      	ldr	r2, [r3, #44]	; 0x2c
10005d6c:	3801      	subs	r0, #1
10005d6e:	6008      	str	r0, [r1, #0]
10005d70:	2001      	movs	r0, #1
10005d72:	eb02 0182 	add.w	r1, r2, r2, lsl #2
10005d76:	eb05 0c81 	add.w	ip, r5, r1, lsl #2
10005d7a:	f8dc 4004 	ldr.w	r4, [ip, #4]
10005d7e:	f8df e04c 	ldr.w	lr, [pc, #76]	; 10005dcc <xTaskRemoveFromEventList+0xe0>
10005d82:	68a6      	ldr	r6, [r4, #8]
10005d84:	0089      	lsls	r1, r1, #2
10005d86:	60de      	str	r6, [r3, #12]
10005d88:	586e      	ldr	r6, [r5, r1]
10005d8a:	f8de 8000 	ldr.w	r8, [lr]
10005d8e:	4406      	add	r6, r0
10005d90:	4090      	lsls	r0, r2
10005d92:	ea40 0008 	orr.w	r0, r0, r8
10005d96:	f8ce 0000 	str.w	r0, [lr]
10005d9a:	68a0      	ldr	r0, [r4, #8]
10005d9c:	609c      	str	r4, [r3, #8]
10005d9e:	6047      	str	r7, [r0, #4]
10005da0:	60a7      	str	r7, [r4, #8]
10005da2:	f8c3 c014 	str.w	ip, [r3, #20]
10005da6:	4b06      	ldr	r3, [pc, #24]	; (10005dc0 <xTaskRemoveFromEventList+0xd4>)
10005da8:	506e      	str	r6, [r5, r1]
10005daa:	681b      	ldr	r3, [r3, #0]
10005dac:	6adb      	ldr	r3, [r3, #44]	; 0x2c
10005dae:	4293      	cmp	r3, r2
10005db0:	d3c7      	bcc.n	10005d42 <xTaskRemoveFromEventList+0x56>
10005db2:	2000      	movs	r0, #0
10005db4:	e8bd 81f0 	ldmia.w	sp!, {r4, r5, r6, r7, r8, pc}
10005db8:	20005f44 	.word	0x20005f44
10005dbc:	20005fc8 	.word	0x20005fc8
10005dc0:	20001e8c 	.word	0x20001e8c
10005dc4:	2000601c 	.word	0x2000601c
10005dc8:	20001ea4 	.word	0x20001ea4
10005dcc:	20005f4c 	.word	0x20005f4c

10005dd0 <vTaskRemoveFromUnorderedEventList>:
10005dd0:	4b2b      	ldr	r3, [pc, #172]	; (10005e80 <vTaskRemoveFromUnorderedEventList+0xb0>)
10005dd2:	681b      	ldr	r3, [r3, #0]
10005dd4:	2b00      	cmp	r3, #0
10005dd6:	d051      	beq.n	10005e7c <vTaskRemoveFromUnorderedEventList+0xac>
10005dd8:	68c3      	ldr	r3, [r0, #12]
10005dda:	f041 4100 	orr.w	r1, r1, #2147483648	; 0x80000000
10005dde:	6001      	str	r1, [r0, #0]
10005de0:	2b00      	cmp	r3, #0
10005de2:	d04c      	beq.n	10005e7e <vTaskRemoveFromUnorderedEventList+0xae>
10005de4:	e92d 47f0 	stmdb	sp!, {r4, r5, r6, r7, r8, r9, sl, lr}
10005de8:	e9d0 1401 	ldrd	r1, r4, [r0, #4]
10005dec:	2700      	movs	r7, #0
10005dee:	6902      	ldr	r2, [r0, #16]
10005df0:	608c      	str	r4, [r1, #8]
10005df2:	6884      	ldr	r4, [r0, #8]
10005df4:	f8df c090 	ldr.w	ip, [pc, #144]	; 10005e88 <vTaskRemoveFromUnorderedEventList+0xb8>
10005df8:	6061      	str	r1, [r4, #4]
10005dfa:	6851      	ldr	r1, [r2, #4]
10005dfc:	e9d3 5602 	ldrd	r5, r6, [r3, #8]
10005e00:	4281      	cmp	r1, r0
10005e02:	6811      	ldr	r1, [r2, #0]
10005e04:	bf08      	it	eq
10005e06:	6054      	streq	r4, [r2, #4]
10005e08:	3901      	subs	r1, #1
10005e0a:	6107      	str	r7, [r0, #16]
10005e0c:	6011      	str	r1, [r2, #0]
10005e0e:	695a      	ldr	r2, [r3, #20]
10005e10:	60ae      	str	r6, [r5, #8]
10005e12:	68d9      	ldr	r1, [r3, #12]
10005e14:	6850      	ldr	r0, [r2, #4]
10005e16:	604d      	str	r5, [r1, #4]
10005e18:	2501      	movs	r5, #1
10005e1a:	1d1c      	adds	r4, r3, #4
10005e1c:	42a0      	cmp	r0, r4
10005e1e:	6810      	ldr	r0, [r2, #0]
10005e20:	bf08      	it	eq
10005e22:	6051      	streq	r1, [r2, #4]
10005e24:	6ad9      	ldr	r1, [r3, #44]	; 0x2c
10005e26:	3801      	subs	r0, #1
10005e28:	6010      	str	r0, [r2, #0]
10005e2a:	eb01 0281 	add.w	r2, r1, r1, lsl #2
10005e2e:	eb0c 0882 	add.w	r8, ip, r2, lsl #2
10005e32:	f8d8 0004 	ldr.w	r0, [r8, #4]
10005e36:	0092      	lsls	r2, r2, #2
10005e38:	6886      	ldr	r6, [r0, #8]
10005e3a:	f8df e050 	ldr.w	lr, [pc, #80]	; 10005e8c <vTaskRemoveFromUnorderedEventList+0xbc>
10005e3e:	60de      	str	r6, [r3, #12]
10005e40:	f85c 6002 	ldr.w	r6, [ip, r2]
10005e44:	f8de 7000 	ldr.w	r7, [lr]
10005e48:	eb06 0905 	add.w	r9, r6, r5
10005e4c:	6886      	ldr	r6, [r0, #8]
10005e4e:	6098      	str	r0, [r3, #8]
10005e50:	6074      	str	r4, [r6, #4]
10005e52:	6084      	str	r4, [r0, #8]
10005e54:	f8c3 8014 	str.w	r8, [r3, #20]
10005e58:	fa05 f301 	lsl.w	r3, r5, r1
10005e5c:	433b      	orrs	r3, r7
10005e5e:	f8df a030 	ldr.w	sl, [pc, #48]	; 10005e90 <vTaskRemoveFromUnorderedEventList+0xc0>
10005e62:	f8ce 3000 	str.w	r3, [lr]
10005e66:	f8da 3000 	ldr.w	r3, [sl]
10005e6a:	f84c 9002 	str.w	r9, [ip, r2]
10005e6e:	6adb      	ldr	r3, [r3, #44]	; 0x2c
10005e70:	4299      	cmp	r1, r3
10005e72:	bf84      	itt	hi
10005e74:	4b03      	ldrhi	r3, [pc, #12]	; (10005e84 <vTaskRemoveFromUnorderedEventList+0xb4>)
10005e76:	601d      	strhi	r5, [r3, #0]
10005e78:	e8bd 87f0 	ldmia.w	sp!, {r4, r5, r6, r7, r8, r9, sl, pc}
10005e7c:	e7fe      	b.n	10005e7c <vTaskRemoveFromUnorderedEventList+0xac>
10005e7e:	e7fe      	b.n	10005e7e <vTaskRemoveFromUnorderedEventList+0xae>
10005e80:	20005f44 	.word	0x20005f44
10005e84:	2000601c 	.word	0x2000601c
10005e88:	20001ea4 	.word	0x20001ea4
10005e8c:	20005f4c 	.word	0x20005f4c
10005e90:	20001e8c 	.word	0x20001e8c

10005e94 <vTaskInternalSetTimeOutState>:
10005e94:	4a03      	ldr	r2, [pc, #12]	; (10005ea4 <vTaskInternalSetTimeOutState+0x10>)
10005e96:	4b04      	ldr	r3, [pc, #16]	; (10005ea8 <vTaskInternalSetTimeOutState+0x14>)
10005e98:	6812      	ldr	r2, [r2, #0]
10005e9a:	681b      	ldr	r3, [r3, #0]
10005e9c:	e9c0 2300 	strd	r2, r3, [r0]
10005ea0:	4770      	bx	lr
10005ea2:	bf00      	nop
10005ea4:	20005fb8 	.word	0x20005fb8
10005ea8:	20006010 	.word	0x20006010

10005eac <xTaskCheckForTimeOut>:
10005eac:	b1f8      	cbz	r0, 10005eee <xTaskCheckForTimeOut+0x42>
10005eae:	b5f0      	push	{r4, r5, r6, r7, lr}
10005eb0:	460d      	mov	r5, r1
10005eb2:	b083      	sub	sp, #12
10005eb4:	b1d1      	cbz	r1, 10005eec <xTaskCheckForTimeOut+0x40>
10005eb6:	4604      	mov	r4, r0
10005eb8:	f7fe f9d6 	bl	10004268 <vPortEnterCritical>
10005ebc:	682b      	ldr	r3, [r5, #0]
10005ebe:	4a14      	ldr	r2, [pc, #80]	; (10005f10 <xTaskCheckForTimeOut+0x64>)
10005ec0:	1c58      	adds	r0, r3, #1
10005ec2:	6811      	ldr	r1, [r2, #0]
10005ec4:	d022      	beq.n	10005f0c <xTaskCheckForTimeOut+0x60>
10005ec6:	e9d4 6000 	ldrd	r6, r0, [r4]
10005eca:	f8df c048 	ldr.w	ip, [pc, #72]	; 10005f14 <xTaskCheckForTimeOut+0x68>
10005ece:	f8dc 7000 	ldr.w	r7, [ip]
10005ed2:	42be      	cmp	r6, r7
10005ed4:	d00c      	beq.n	10005ef0 <xTaskCheckForTimeOut+0x44>
10005ed6:	4288      	cmp	r0, r1
10005ed8:	d80a      	bhi.n	10005ef0 <xTaskCheckForTimeOut+0x44>
10005eda:	2300      	movs	r3, #0
10005edc:	2001      	movs	r0, #1
10005ede:	602b      	str	r3, [r5, #0]
10005ee0:	9001      	str	r0, [sp, #4]
10005ee2:	f7fe f9cf 	bl	10004284 <vPortExitCritical>
10005ee6:	9801      	ldr	r0, [sp, #4]
10005ee8:	b003      	add	sp, #12
10005eea:	bdf0      	pop	{r4, r5, r6, r7, pc}
10005eec:	e7fe      	b.n	10005eec <xTaskCheckForTimeOut+0x40>
10005eee:	e7fe      	b.n	10005eee <xTaskCheckForTimeOut+0x42>
10005ef0:	eba1 0e00 	sub.w	lr, r1, r0
10005ef4:	4573      	cmp	r3, lr
10005ef6:	d9f0      	bls.n	10005eda <xTaskCheckForTimeOut+0x2e>
10005ef8:	1a5b      	subs	r3, r3, r1
10005efa:	f8dc 1000 	ldr.w	r1, [ip]
10005efe:	6812      	ldr	r2, [r2, #0]
10005f00:	4403      	add	r3, r0
10005f02:	602b      	str	r3, [r5, #0]
10005f04:	2000      	movs	r0, #0
10005f06:	e9c4 1200 	strd	r1, r2, [r4]
10005f0a:	e7e9      	b.n	10005ee0 <xTaskCheckForTimeOut+0x34>
10005f0c:	2000      	movs	r0, #0
10005f0e:	e7e7      	b.n	10005ee0 <xTaskCheckForTimeOut+0x34>
10005f10:	20006010 	.word	0x20006010
10005f14:	20005fb8 	.word	0x20005fb8

10005f18 <vTaskMissedYield>:
10005f18:	2201      	movs	r2, #1
10005f1a:	4b01      	ldr	r3, [pc, #4]	; (10005f20 <vTaskMissedYield+0x8>)
10005f1c:	601a      	str	r2, [r3, #0]
10005f1e:	4770      	bx	lr
10005f20:	2000601c 	.word	0x2000601c

10005f24 <xTaskGetCurrentTaskHandle>:
10005f24:	4b01      	ldr	r3, [pc, #4]	; (10005f2c <xTaskGetCurrentTaskHandle+0x8>)
10005f26:	6818      	ldr	r0, [r3, #0]
10005f28:	4770      	bx	lr
10005f2a:	bf00      	nop
10005f2c:	20001e8c 	.word	0x20001e8c

10005f30 <xTaskGetSchedulerState>:
10005f30:	4b05      	ldr	r3, [pc, #20]	; (10005f48 <xTaskGetSchedulerState+0x18>)
10005f32:	681b      	ldr	r3, [r3, #0]
10005f34:	b133      	cbz	r3, 10005f44 <xTaskGetSchedulerState+0x14>
10005f36:	4b05      	ldr	r3, [pc, #20]	; (10005f4c <xTaskGetSchedulerState+0x1c>)
10005f38:	681b      	ldr	r3, [r3, #0]
10005f3a:	2b00      	cmp	r3, #0
10005f3c:	bf0c      	ite	eq
10005f3e:	2002      	moveq	r0, #2
10005f40:	2000      	movne	r0, #0
10005f42:	4770      	bx	lr
10005f44:	2001      	movs	r0, #1
10005f46:	4770      	bx	lr
10005f48:	20005fdc 	.word	0x20005fdc
10005f4c:	20005f44 	.word	0x20005f44

10005f50 <xTaskPriorityDisinherit>:
10005f50:	b1a0      	cbz	r0, 10005f7c <xTaskPriorityDisinherit+0x2c>
10005f52:	4b26      	ldr	r3, [pc, #152]	; (10005fec <xTaskPriorityDisinherit+0x9c>)
10005f54:	e92d 41f0 	stmdb	sp!, {r4, r5, r6, r7, r8, lr}
10005f58:	681b      	ldr	r3, [r3, #0]
10005f5a:	4604      	mov	r4, r0
10005f5c:	4283      	cmp	r3, r0
10005f5e:	d000      	beq.n	10005f62 <xTaskPriorityDisinherit+0x12>
10005f60:	e7fe      	b.n	10005f60 <xTaskPriorityDisinherit+0x10>
10005f62:	6c9b      	ldr	r3, [r3, #72]	; 0x48
10005f64:	b14b      	cbz	r3, 10005f7a <xTaskPriorityDisinherit+0x2a>
10005f66:	6ac1      	ldr	r1, [r0, #44]	; 0x2c
10005f68:	6c42      	ldr	r2, [r0, #68]	; 0x44
10005f6a:	3b01      	subs	r3, #1
10005f6c:	4291      	cmp	r1, r2
10005f6e:	6483      	str	r3, [r0, #72]	; 0x48
10005f70:	d000      	beq.n	10005f74 <xTaskPriorityDisinherit+0x24>
10005f72:	b12b      	cbz	r3, 10005f80 <xTaskPriorityDisinherit+0x30>
10005f74:	2000      	movs	r0, #0
10005f76:	e8bd 81f0 	ldmia.w	sp!, {r4, r5, r6, r7, r8, pc}
10005f7a:	e7fe      	b.n	10005f7a <xTaskPriorityDisinherit+0x2a>
10005f7c:	2000      	movs	r0, #0
10005f7e:	4770      	bx	lr
10005f80:	1d05      	adds	r5, r0, #4
10005f82:	4628      	mov	r0, r5
10005f84:	f7fe fd26 	bl	100049d4 <uxListRemove>
10005f88:	b338      	cbz	r0, 10005fda <xTaskPriorityDisinherit+0x8a>
10005f8a:	4919      	ldr	r1, [pc, #100]	; (10005ff0 <xTaskPriorityDisinherit+0xa0>)
10005f8c:	2001      	movs	r0, #1
10005f8e:	6c63      	ldr	r3, [r4, #68]	; 0x44
10005f90:	f8df e060 	ldr.w	lr, [pc, #96]	; 10005ff4 <xTaskPriorityDisinherit+0xa4>
10005f94:	f1c3 0205 	rsb	r2, r3, #5
10005f98:	61a2      	str	r2, [r4, #24]
10005f9a:	eb03 0283 	add.w	r2, r3, r3, lsl #2
10005f9e:	eb0e 0682 	add.w	r6, lr, r2, lsl #2
10005fa2:	f8d6 c004 	ldr.w	ip, [r6, #4]
10005fa6:	f8d1 8000 	ldr.w	r8, [r1]
10005faa:	f8dc 7008 	ldr.w	r7, [ip, #8]
10005fae:	62e3      	str	r3, [r4, #44]	; 0x2c
10005fb0:	0092      	lsls	r2, r2, #2
10005fb2:	fa00 f303 	lsl.w	r3, r0, r3
10005fb6:	60e7      	str	r7, [r4, #12]
10005fb8:	ea43 0308 	orr.w	r3, r3, r8
10005fbc:	f85e 7002 	ldr.w	r7, [lr, r2]
10005fc0:	600b      	str	r3, [r1, #0]
10005fc2:	f8dc 3008 	ldr.w	r3, [ip, #8]
10005fc6:	4407      	add	r7, r0
10005fc8:	f8c4 c008 	str.w	ip, [r4, #8]
10005fcc:	605d      	str	r5, [r3, #4]
10005fce:	f8cc 5008 	str.w	r5, [ip, #8]
10005fd2:	6166      	str	r6, [r4, #20]
10005fd4:	f84e 7002 	str.w	r7, [lr, r2]
10005fd8:	e7cd      	b.n	10005f76 <xTaskPriorityDisinherit+0x26>
10005fda:	2201      	movs	r2, #1
10005fdc:	4904      	ldr	r1, [pc, #16]	; (10005ff0 <xTaskPriorityDisinherit+0xa0>)
10005fde:	6ae0      	ldr	r0, [r4, #44]	; 0x2c
10005fe0:	680b      	ldr	r3, [r1, #0]
10005fe2:	4082      	lsls	r2, r0
10005fe4:	ea23 0302 	bic.w	r3, r3, r2
10005fe8:	600b      	str	r3, [r1, #0]
10005fea:	e7cf      	b.n	10005f8c <xTaskPriorityDisinherit+0x3c>
10005fec:	20001e8c 	.word	0x20001e8c
10005ff0:	20005f4c 	.word	0x20005f4c
10005ff4:	20001ea4 	.word	0x20001ea4

10005ff8 <uxTaskResetEventItemValue>:
10005ff8:	4a04      	ldr	r2, [pc, #16]	; (1000600c <uxTaskResetEventItemValue+0x14>)
10005ffa:	6811      	ldr	r1, [r2, #0]
10005ffc:	6813      	ldr	r3, [r2, #0]
10005ffe:	6812      	ldr	r2, [r2, #0]
10006000:	6adb      	ldr	r3, [r3, #44]	; 0x2c
10006002:	6988      	ldr	r0, [r1, #24]
10006004:	f1c3 0305 	rsb	r3, r3, #5
10006008:	6193      	str	r3, [r2, #24]
1000600a:	4770      	bx	lr
1000600c:	20001e8c 	.word	0x20001e8c

10006010 <prvTimerTask>:
10006010:	e92d 4ff0 	stmdb	sp!, {r4, r5, r6, r7, r8, r9, sl, fp, lr}
10006014:	4ea4      	ldr	r6, [pc, #656]	; (100062a8 <prvTimerTask+0x298>)
10006016:	f8df 829c 	ldr.w	r8, [pc, #668]	; 100062b4 <prvTimerTask+0x2a4>
1000601a:	4da4      	ldr	r5, [pc, #656]	; (100062ac <prvTimerTask+0x29c>)
1000601c:	b087      	sub	sp, #28
1000601e:	6833      	ldr	r3, [r6, #0]
10006020:	681c      	ldr	r4, [r3, #0]
10006022:	2c00      	cmp	r4, #0
10006024:	f000 80d6 	beq.w	100061d4 <prvTimerTask+0x1c4>
10006028:	68db      	ldr	r3, [r3, #12]
1000602a:	681c      	ldr	r4, [r3, #0]
1000602c:	f7ff fc9e 	bl	1000596c <vTaskSuspendAll>
10006030:	f7ff fcb2 	bl	10005998 <xTaskGetTickCount>
10006034:	4b9e      	ldr	r3, [pc, #632]	; (100062b0 <prvTimerTask+0x2a0>)
10006036:	4682      	mov	sl, r0
10006038:	681b      	ldr	r3, [r3, #0]
1000603a:	4283      	cmp	r3, r0
1000603c:	d845      	bhi.n	100060ca <prvTimerTask+0xba>
1000603e:	4b9c      	ldr	r3, [pc, #624]	; (100062b0 <prvTimerTask+0x2a0>)
10006040:	4284      	cmp	r4, r0
10006042:	6018      	str	r0, [r3, #0]
10006044:	f240 8138 	bls.w	100062b8 <prvTimerTask+0x2a8>
10006048:	2200      	movs	r2, #0
1000604a:	6828      	ldr	r0, [r5, #0]
1000604c:	eba4 010a 	sub.w	r1, r4, sl
10006050:	f7ff f840 	bl	100050d4 <vQueueWaitForMessageRestricted>
10006054:	f7ff fc92 	bl	1000597c <xTaskResumeAll>
10006058:	2800      	cmp	r0, #0
1000605a:	f000 8116 	beq.w	1000628a <prvTimerTask+0x27a>
1000605e:	2300      	movs	r3, #0
10006060:	e9cd 3302 	strd	r3, r3, [sp, #8]
10006064:	e9cd 3304 	strd	r3, r3, [sp, #16]
10006068:	2200      	movs	r2, #0
1000606a:	6828      	ldr	r0, [r5, #0]
1000606c:	a902      	add	r1, sp, #8
1000606e:	f7fe fedd 	bl	10004e2c <xQueueReceive>
10006072:	2800      	cmp	r0, #0
10006074:	d0d3      	beq.n	1000601e <prvTimerTask+0xe>
10006076:	9b02      	ldr	r3, [sp, #8]
10006078:	2b00      	cmp	r3, #0
1000607a:	f2c0 80a2 	blt.w	100061c2 <prvTimerTask+0x1b2>
1000607e:	f8dd a010 	ldr.w	sl, [sp, #16]
10006082:	f8da 3014 	ldr.w	r3, [sl, #20]
10006086:	b11b      	cbz	r3, 10006090 <prvTimerTask+0x80>
10006088:	f10a 0004 	add.w	r0, sl, #4
1000608c:	f7fe fca2 	bl	100049d4 <uxListRemove>
10006090:	f7ff fc82 	bl	10005998 <xTaskGetTickCount>
10006094:	4b86      	ldr	r3, [pc, #536]	; (100062b0 <prvTimerTask+0x2a0>)
10006096:	9001      	str	r0, [sp, #4]
10006098:	681b      	ldr	r3, [r3, #0]
1000609a:	4298      	cmp	r0, r3
1000609c:	f0c0 80b9 	bcc.w	10006212 <prvTimerTask+0x202>
100060a0:	9b02      	ldr	r3, [sp, #8]
100060a2:	4a83      	ldr	r2, [pc, #524]	; (100062b0 <prvTimerTask+0x2a0>)
100060a4:	9901      	ldr	r1, [sp, #4]
100060a6:	3b01      	subs	r3, #1
100060a8:	6011      	str	r1, [r2, #0]
100060aa:	2b08      	cmp	r3, #8
100060ac:	d8dc      	bhi.n	10006068 <prvTimerTask+0x58>
100060ae:	e8df f003 	tbb	[pc, r3]
100060b2:	3838      	.short	0x3838
100060b4:	387e5c77 	.word	0x387e5c77
100060b8:	7738      	.short	0x7738
100060ba:	5c          	.byte	0x5c
100060bb:	00          	.byte	0x00
100060bc:	f023 0301 	bic.w	r3, r3, #1
100060c0:	f884 3024 	strb.w	r3, [r4, #36]	; 0x24
100060c4:	4620      	mov	r0, r4
100060c6:	6a23      	ldr	r3, [r4, #32]
100060c8:	4798      	blx	r3
100060ca:	6833      	ldr	r3, [r6, #0]
100060cc:	681a      	ldr	r2, [r3, #0]
100060ce:	2a00      	cmp	r2, #0
100060d0:	f000 8094 	beq.w	100061fc <prvTimerTask+0x1ec>
100060d4:	68db      	ldr	r3, [r3, #12]
100060d6:	68dc      	ldr	r4, [r3, #12]
100060d8:	681f      	ldr	r7, [r3, #0]
100060da:	f104 0b04 	add.w	fp, r4, #4
100060de:	4658      	mov	r0, fp
100060e0:	f7fe fc78 	bl	100049d4 <uxListRemove>
100060e4:	f894 3024 	ldrb.w	r3, [r4, #36]	; 0x24
100060e8:	0758      	lsls	r0, r3, #29
100060ea:	d5e7      	bpl.n	100060bc <prvTimerTask+0xac>
100060ec:	43fa      	mvns	r2, r7
100060ee:	69a3      	ldr	r3, [r4, #24]
100060f0:	6124      	str	r4, [r4, #16]
100060f2:	eb07 0903 	add.w	r9, r7, r3
100060f6:	4293      	cmp	r3, r2
100060f8:	f8c4 9004 	str.w	r9, [r4, #4]
100060fc:	d80b      	bhi.n	10006116 <prvTimerTask+0x106>
100060fe:	464f      	mov	r7, r9
10006100:	43ff      	mvns	r7, r7
10006102:	6a23      	ldr	r3, [r4, #32]
10006104:	4620      	mov	r0, r4
10006106:	4798      	blx	r3
10006108:	69a3      	ldr	r3, [r4, #24]
1000610a:	6124      	str	r4, [r4, #16]
1000610c:	4499      	add	r9, r3
1000610e:	42bb      	cmp	r3, r7
10006110:	f8c4 9004 	str.w	r9, [r4, #4]
10006114:	d9f3      	bls.n	100060fe <prvTimerTask+0xee>
10006116:	4659      	mov	r1, fp
10006118:	f8d8 0000 	ldr.w	r0, [r8]
1000611c:	f7fe fc42 	bl	100049a4 <vListInsert>
10006120:	e7d0      	b.n	100060c4 <prvTimerTask+0xb4>
10006122:	f89a 4024 	ldrb.w	r4, [sl, #36]	; 0x24
10006126:	9803      	ldr	r0, [sp, #12]
10006128:	f8da 1018 	ldr.w	r1, [sl, #24]
1000612c:	9a01      	ldr	r2, [sp, #4]
1000612e:	1843      	adds	r3, r0, r1
10006130:	f044 0701 	orr.w	r7, r4, #1
10006134:	f88a 7024 	strb.w	r7, [sl, #36]	; 0x24
10006138:	bf2c      	ite	cs
1000613a:	2701      	movcs	r7, #1
1000613c:	2700      	movcc	r7, #0
1000613e:	4293      	cmp	r3, r2
10006140:	f8ca 3004 	str.w	r3, [sl, #4]
10006144:	f8ca a010 	str.w	sl, [sl, #16]
10006148:	f200 80a2 	bhi.w	10006290 <prvTimerTask+0x280>
1000614c:	1a10      	subs	r0, r2, r0
1000614e:	4281      	cmp	r1, r0
10006150:	d81e      	bhi.n	10006190 <prvTimerTask+0x180>
10006152:	0767      	lsls	r7, r4, #29
10006154:	f100 80ec 	bmi.w	10006330 <prvTimerTask+0x320>
10006158:	f024 0401 	bic.w	r4, r4, #1
1000615c:	f88a 4024 	strb.w	r4, [sl, #36]	; 0x24
10006160:	4650      	mov	r0, sl
10006162:	f8da 3020 	ldr.w	r3, [sl, #32]
10006166:	4798      	blx	r3
10006168:	e77e      	b.n	10006068 <prvTimerTask+0x58>
1000616a:	f89a 1024 	ldrb.w	r1, [sl, #36]	; 0x24
1000616e:	9b03      	ldr	r3, [sp, #12]
10006170:	f041 0101 	orr.w	r1, r1, #1
10006174:	f88a 1024 	strb.w	r1, [sl, #36]	; 0x24
10006178:	f8ca 3018 	str.w	r3, [sl, #24]
1000617c:	b17b      	cbz	r3, 1000619e <prvTimerTask+0x18e>
1000617e:	9a01      	ldr	r2, [sp, #4]
10006180:	f8ca a010 	str.w	sl, [sl, #16]
10006184:	4413      	add	r3, r2
10006186:	4293      	cmp	r3, r2
10006188:	f8ca 3004 	str.w	r3, [sl, #4]
1000618c:	f200 8085 	bhi.w	1000629a <prvTimerTask+0x28a>
10006190:	f8d8 0000 	ldr.w	r0, [r8]
10006194:	f10a 0104 	add.w	r1, sl, #4
10006198:	f7fe fc04 	bl	100049a4 <vListInsert>
1000619c:	e764      	b.n	10006068 <prvTimerTask+0x58>
1000619e:	e7fe      	b.n	1000619e <prvTimerTask+0x18e>
100061a0:	f89a 3024 	ldrb.w	r3, [sl, #36]	; 0x24
100061a4:	f023 0301 	bic.w	r3, r3, #1
100061a8:	f88a 3024 	strb.w	r3, [sl, #36]	; 0x24
100061ac:	e75c      	b.n	10006068 <prvTimerTask+0x58>
100061ae:	f89a 3024 	ldrb.w	r3, [sl, #36]	; 0x24
100061b2:	079a      	lsls	r2, r3, #30
100061b4:	f140 80b2 	bpl.w	1000631c <prvTimerTask+0x30c>
100061b8:	f023 0301 	bic.w	r3, r3, #1
100061bc:	f88a 3024 	strb.w	r3, [sl, #36]	; 0x24
100061c0:	e752      	b.n	10006068 <prvTimerTask+0x58>
100061c2:	9b03      	ldr	r3, [sp, #12]
100061c4:	e9dd 0104 	ldrd	r0, r1, [sp, #16]
100061c8:	4798      	blx	r3
100061ca:	9b02      	ldr	r3, [sp, #8]
100061cc:	2b00      	cmp	r3, #0
100061ce:	f6ff af4b 	blt.w	10006068 <prvTimerTask+0x58>
100061d2:	e754      	b.n	1000607e <prvTimerTask+0x6e>
100061d4:	f7ff fbca 	bl	1000596c <vTaskSuspendAll>
100061d8:	f7ff fbde 	bl	10005998 <xTaskGetTickCount>
100061dc:	4b34      	ldr	r3, [pc, #208]	; (100062b0 <prvTimerTask+0x2a0>)
100061de:	4682      	mov	sl, r0
100061e0:	681b      	ldr	r3, [r3, #0]
100061e2:	4283      	cmp	r3, r0
100061e4:	f63f af71 	bhi.w	100060ca <prvTimerTask+0xba>
100061e8:	4a31      	ldr	r2, [pc, #196]	; (100062b0 <prvTimerTask+0x2a0>)
100061ea:	f8d8 3000 	ldr.w	r3, [r8]
100061ee:	f8c2 a000 	str.w	sl, [r2]
100061f2:	681a      	ldr	r2, [r3, #0]
100061f4:	fab2 f282 	clz	r2, r2
100061f8:	0952      	lsrs	r2, r2, #5
100061fa:	e726      	b.n	1000604a <prvTimerTask+0x3a>
100061fc:	f8d8 2000 	ldr.w	r2, [r8]
10006200:	492b      	ldr	r1, [pc, #172]	; (100062b0 <prvTimerTask+0x2a0>)
10006202:	6032      	str	r2, [r6, #0]
10006204:	f8c1 a000 	str.w	sl, [r1]
10006208:	f8c8 3000 	str.w	r3, [r8]
1000620c:	f7ff fbb6 	bl	1000597c <xTaskResumeAll>
10006210:	e725      	b.n	1000605e <prvTimerTask+0x4e>
10006212:	6833      	ldr	r3, [r6, #0]
10006214:	6819      	ldr	r1, [r3, #0]
10006216:	b951      	cbnz	r1, 1000622e <prvTimerTask+0x21e>
10006218:	e031      	b.n	1000627e <prvTimerTask+0x26e>
1000621a:	f023 0301 	bic.w	r3, r3, #1
1000621e:	f884 3024 	strb.w	r3, [r4, #36]	; 0x24
10006222:	6a23      	ldr	r3, [r4, #32]
10006224:	4620      	mov	r0, r4
10006226:	4798      	blx	r3
10006228:	6833      	ldr	r3, [r6, #0]
1000622a:	681a      	ldr	r2, [r3, #0]
1000622c:	b33a      	cbz	r2, 1000627e <prvTimerTask+0x26e>
1000622e:	68db      	ldr	r3, [r3, #12]
10006230:	68dc      	ldr	r4, [r3, #12]
10006232:	f8d3 9000 	ldr.w	r9, [r3]
10006236:	f104 0b04 	add.w	fp, r4, #4
1000623a:	4658      	mov	r0, fp
1000623c:	f7fe fbca 	bl	100049d4 <uxListRemove>
10006240:	f894 3024 	ldrb.w	r3, [r4, #36]	; 0x24
10006244:	075a      	lsls	r2, r3, #29
10006246:	d5e8      	bpl.n	1000621a <prvTimerTask+0x20a>
10006248:	69a3      	ldr	r3, [r4, #24]
1000624a:	6124      	str	r4, [r4, #16]
1000624c:	eb09 0703 	add.w	r7, r9, r3
10006250:	ea6f 0909 	mvn.w	r9, r9
10006254:	454b      	cmp	r3, r9
10006256:	6067      	str	r7, [r4, #4]
10006258:	d80b      	bhi.n	10006272 <prvTimerTask+0x262>
1000625a:	46b9      	mov	r9, r7
1000625c:	ea6f 0909 	mvn.w	r9, r9
10006260:	6a23      	ldr	r3, [r4, #32]
10006262:	4620      	mov	r0, r4
10006264:	4798      	blx	r3
10006266:	69a3      	ldr	r3, [r4, #24]
10006268:	6124      	str	r4, [r4, #16]
1000626a:	441f      	add	r7, r3
1000626c:	454b      	cmp	r3, r9
1000626e:	6067      	str	r7, [r4, #4]
10006270:	d9f3      	bls.n	1000625a <prvTimerTask+0x24a>
10006272:	4659      	mov	r1, fp
10006274:	f8d8 0000 	ldr.w	r0, [r8]
10006278:	f7fe fb94 	bl	100049a4 <vListInsert>
1000627c:	e7d1      	b.n	10006222 <prvTimerTask+0x212>
1000627e:	f8d8 1000 	ldr.w	r1, [r8]
10006282:	f8c8 3000 	str.w	r3, [r8]
10006286:	6031      	str	r1, [r6, #0]
10006288:	e70a      	b.n	100060a0 <prvTimerTask+0x90>
1000628a:	f7fd ffe1 	bl	10004250 <vPortYield>
1000628e:	e6e6      	b.n	1000605e <prvTimerTask+0x4e>
10006290:	4290      	cmp	r0, r2
10006292:	d902      	bls.n	1000629a <prvTimerTask+0x28a>
10006294:	2f00      	cmp	r7, #0
10006296:	f43f af5c 	beq.w	10006152 <prvTimerTask+0x142>
1000629a:	6830      	ldr	r0, [r6, #0]
1000629c:	f10a 0104 	add.w	r1, sl, #4
100062a0:	f7fe fb80 	bl	100049a4 <vListInsert>
100062a4:	e6e0      	b.n	10006068 <prvTimerTask+0x58>
100062a6:	bf00      	nop
100062a8:	20001e90 	.word	0x20001e90
100062ac:	20006014 	.word	0x20006014
100062b0:	20005fac 	.word	0x20005fac
100062b4:	20001ea0 	.word	0x20001ea0
100062b8:	f7ff fb60 	bl	1000597c <xTaskResumeAll>
100062bc:	6833      	ldr	r3, [r6, #0]
100062be:	68db      	ldr	r3, [r3, #12]
100062c0:	68df      	ldr	r7, [r3, #12]
100062c2:	f107 0b04 	add.w	fp, r7, #4
100062c6:	4658      	mov	r0, fp
100062c8:	f7fe fb84 	bl	100049d4 <uxListRemove>
100062cc:	f897 3024 	ldrb.w	r3, [r7, #36]	; 0x24
100062d0:	0759      	lsls	r1, r3, #29
100062d2:	d40d      	bmi.n	100062f0 <prvTimerTask+0x2e0>
100062d4:	f023 0301 	bic.w	r3, r3, #1
100062d8:	f887 3024 	strb.w	r3, [r7, #36]	; 0x24
100062dc:	4638      	mov	r0, r7
100062de:	6a3b      	ldr	r3, [r7, #32]
100062e0:	4798      	blx	r3
100062e2:	e6bc      	b.n	1000605e <prvTimerTask+0x4e>
100062e4:	4293      	cmp	r3, r2
100062e6:	d81d      	bhi.n	10006324 <prvTimerTask+0x314>
100062e8:	4638      	mov	r0, r7
100062ea:	6a3b      	ldr	r3, [r7, #32]
100062ec:	4798      	blx	r3
100062ee:	464c      	mov	r4, r9
100062f0:	69bb      	ldr	r3, [r7, #24]
100062f2:	ebaa 0204 	sub.w	r2, sl, r4
100062f6:	eb14 0903 	adds.w	r9, r4, r3
100062fa:	bf2c      	ite	cs
100062fc:	2101      	movcs	r1, #1
100062fe:	2100      	movcc	r1, #0
10006300:	45d1      	cmp	r9, sl
10006302:	f8c7 9004 	str.w	r9, [r7, #4]
10006306:	613f      	str	r7, [r7, #16]
10006308:	d9ec      	bls.n	100062e4 <prvTimerTask+0x2d4>
1000630a:	4554      	cmp	r4, sl
1000630c:	d901      	bls.n	10006312 <prvTimerTask+0x302>
1000630e:	2900      	cmp	r1, #0
10006310:	d0ea      	beq.n	100062e8 <prvTimerTask+0x2d8>
10006312:	4659      	mov	r1, fp
10006314:	6830      	ldr	r0, [r6, #0]
10006316:	f7fe fb45 	bl	100049a4 <vListInsert>
1000631a:	e7df      	b.n	100062dc <prvTimerTask+0x2cc>
1000631c:	4650      	mov	r0, sl
1000631e:	f000 f9c5 	bl	100066ac <vPortFree>
10006322:	e6a1      	b.n	10006068 <prvTimerTask+0x58>
10006324:	4659      	mov	r1, fp
10006326:	f8d8 0000 	ldr.w	r0, [r8]
1000632a:	f7fe fb3b 	bl	100049a4 <vListInsert>
1000632e:	e7d5      	b.n	100062dc <prvTimerTask+0x2cc>
10006330:	4654      	mov	r4, sl
10006332:	f8dd 9004 	ldr.w	r9, [sp, #4]
10006336:	e006      	b.n	10006346 <prvTimerTask+0x336>
10006338:	428a      	cmp	r2, r1
1000633a:	d318      	bcc.n	1000636e <prvTimerTask+0x35e>
1000633c:	6a23      	ldr	r3, [r4, #32]
1000633e:	4620      	mov	r0, r4
10006340:	4798      	blx	r3
10006342:	463b      	mov	r3, r7
10006344:	69a1      	ldr	r1, [r4, #24]
10006346:	185f      	adds	r7, r3, r1
10006348:	bf2c      	ite	cs
1000634a:	2001      	movcs	r0, #1
1000634c:	2000      	movcc	r0, #0
1000634e:	45b9      	cmp	r9, r7
10006350:	eba9 0203 	sub.w	r2, r9, r3
10006354:	6067      	str	r7, [r4, #4]
10006356:	6124      	str	r4, [r4, #16]
10006358:	d2ee      	bcs.n	10006338 <prvTimerTask+0x328>
1000635a:	4599      	cmp	r9, r3
1000635c:	d201      	bcs.n	10006362 <prvTimerTask+0x352>
1000635e:	2800      	cmp	r0, #0
10006360:	d0ec      	beq.n	1000633c <prvTimerTask+0x32c>
10006362:	6830      	ldr	r0, [r6, #0]
10006364:	1d21      	adds	r1, r4, #4
10006366:	46a2      	mov	sl, r4
10006368:	f7fe fb1c 	bl	100049a4 <vListInsert>
1000636c:	e6f8      	b.n	10006160 <prvTimerTask+0x150>
1000636e:	f8d8 0000 	ldr.w	r0, [r8]
10006372:	1d21      	adds	r1, r4, #4
10006374:	46a2      	mov	sl, r4
10006376:	f7fe fb15 	bl	100049a4 <vListInsert>
1000637a:	e6f1      	b.n	10006160 <prvTimerTask+0x150>

1000637c <xTimerCreateTimerTask>:
1000637c:	b5f0      	push	{r4, r5, r6, r7, lr}
1000637e:	4c16      	ldr	r4, [pc, #88]	; (100063d8 <xTimerCreateTimerTask+0x5c>)
10006380:	b083      	sub	sp, #12
10006382:	f7fd ff71 	bl	10004268 <vPortEnterCritical>
10006386:	6825      	ldr	r5, [r4, #0]
10006388:	b195      	cbz	r5, 100063b0 <xTimerCreateTimerTask+0x34>
1000638a:	f7fd ff7b 	bl	10004284 <vPortExitCritical>
1000638e:	6823      	ldr	r3, [r4, #0]
10006390:	b15b      	cbz	r3, 100063aa <xTimerCreateTimerTask+0x2e>
10006392:	2401      	movs	r4, #1
10006394:	4811      	ldr	r0, [pc, #68]	; (100063dc <xTimerCreateTimerTask+0x60>)
10006396:	2300      	movs	r3, #0
10006398:	9001      	str	r0, [sp, #4]
1000639a:	f44f 7200 	mov.w	r2, #512	; 0x200
1000639e:	4910      	ldr	r1, [pc, #64]	; (100063e0 <xTimerCreateTimerTask+0x64>)
100063a0:	4810      	ldr	r0, [pc, #64]	; (100063e4 <xTimerCreateTimerTask+0x68>)
100063a2:	9400      	str	r4, [sp, #0]
100063a4:	f7ff f9bc 	bl	10005720 <xTaskCreate>
100063a8:	b900      	cbnz	r0, 100063ac <xTimerCreateTimerTask+0x30>
100063aa:	e7fe      	b.n	100063aa <xTimerCreateTimerTask+0x2e>
100063ac:	b003      	add	sp, #12
100063ae:	bdf0      	pop	{r4, r5, r6, r7, pc}
100063b0:	4f0d      	ldr	r7, [pc, #52]	; (100063e8 <xTimerCreateTimerTask+0x6c>)
100063b2:	4e0e      	ldr	r6, [pc, #56]	; (100063ec <xTimerCreateTimerTask+0x70>)
100063b4:	4638      	mov	r0, r7
100063b6:	f7fe fae5 	bl	10004984 <vListInitialise>
100063ba:	4630      	mov	r0, r6
100063bc:	f7fe fae2 	bl	10004984 <vListInitialise>
100063c0:	4b0b      	ldr	r3, [pc, #44]	; (100063f0 <xTimerCreateTimerTask+0x74>)
100063c2:	462a      	mov	r2, r5
100063c4:	601f      	str	r7, [r3, #0]
100063c6:	4b0b      	ldr	r3, [pc, #44]	; (100063f4 <xTimerCreateTimerTask+0x78>)
100063c8:	2110      	movs	r1, #16
100063ca:	200a      	movs	r0, #10
100063cc:	601e      	str	r6, [r3, #0]
100063ce:	f7fe fb4d 	bl	10004a6c <xQueueGenericCreate>
100063d2:	6020      	str	r0, [r4, #0]
100063d4:	e7d9      	b.n	1000638a <xTimerCreateTimerTask+0xe>
100063d6:	bf00      	nop
100063d8:	20006014 	.word	0x20006014
100063dc:	20006018 	.word	0x20006018
100063e0:	10006df0 	.word	0x10006df0
100063e4:	10006011 	.word	0x10006011
100063e8:	20005f50 	.word	0x20005f50
100063ec:	20005f64 	.word	0x20005f64
100063f0:	20001e90 	.word	0x20001e90
100063f4:	20001ea0 	.word	0x20001ea0

100063f8 <xTimerPendFunctionCallFromISR>:
100063f8:	469c      	mov	ip, r3
100063fa:	b5f0      	push	{r4, r5, r6, r7, lr}
100063fc:	4607      	mov	r7, r0
100063fe:	460e      	mov	r6, r1
10006400:	4615      	mov	r5, r2
10006402:	f06f 0401 	mvn.w	r4, #1
10006406:	4b07      	ldr	r3, [pc, #28]	; (10006424 <xTimerPendFunctionCallFromISR+0x2c>)
10006408:	b085      	sub	sp, #20
1000640a:	4669      	mov	r1, sp
1000640c:	4662      	mov	r2, ip
1000640e:	6818      	ldr	r0, [r3, #0]
10006410:	2300      	movs	r3, #0
10006412:	e9cd 7601 	strd	r7, r6, [sp, #4]
10006416:	9503      	str	r5, [sp, #12]
10006418:	9400      	str	r4, [sp, #0]
1000641a:	f7fe fcb1 	bl	10004d80 <xQueueGenericSendFromISR>
1000641e:	b005      	add	sp, #20
10006420:	bdf0      	pop	{r4, r5, r6, r7, pc}
10006422:	bf00      	nop
10006424:	20006014 	.word	0x20006014

10006428 <exception_set_exclusive_handler>:
10006428:	b5f8      	push	{r3, r4, r5, r6, r7, lr}
1000642a:	4604      	mov	r4, r0
1000642c:	460d      	mov	r5, r1
1000642e:	f3ef 8710 	mrs	r7, PRIMASK
10006432:	b672      	cpsid	i
10006434:	4b0c      	ldr	r3, [pc, #48]	; (10006468 <exception_set_exclusive_handler+0x40>)
10006436:	689b      	ldr	r3, [r3, #8]
10006438:	f853 6020 	ldr.w	r6, [r3, r0, lsl #2]
1000643c:	42b1      	cmp	r1, r6
1000643e:	d005      	beq.n	1000644c <exception_set_exclusive_handler+0x24>
10006440:	4b0a      	ldr	r3, [pc, #40]	; (1000646c <exception_set_exclusive_handler+0x44>)
10006442:	429e      	cmp	r6, r3
10006444:	d30c      	bcc.n	10006460 <exception_set_exclusive_handler+0x38>
10006446:	4b0a      	ldr	r3, [pc, #40]	; (10006470 <exception_set_exclusive_handler+0x48>)
10006448:	429e      	cmp	r6, r3
1000644a:	d209      	bcs.n	10006460 <exception_set_exclusive_handler+0x38>
1000644c:	4b06      	ldr	r3, [pc, #24]	; (10006468 <exception_set_exclusive_handler+0x40>)
1000644e:	689b      	ldr	r3, [r3, #8]
10006450:	f843 5024 	str.w	r5, [r3, r4, lsl #2]
10006454:	f3bf 8f5f 	dmb	sy
10006458:	f387 8810 	msr	PRIMASK, r7
1000645c:	4630      	mov	r0, r6
1000645e:	bdf8      	pop	{r3, r4, r5, r6, r7, pc}
10006460:	f7fa fff6 	bl	10001450 <hard_assertion_failure>
10006464:	e7f2      	b.n	1000644c <exception_set_exclusive_handler+0x24>
10006466:	bf00      	nop
10006468:	e000ed00 	.word	0xe000ed00
1000646c:	10000110 	.word	0x10000110
10006470:	10000124 	.word	0x10000124

10006474 <multicore_doorbell_claim_unused>:
10006474:	b5f8      	push	{r3, r4, r5, r6, r7, lr}
10006476:	4604      	mov	r4, r0
10006478:	4e3a      	ldr	r6, [pc, #232]	; (10006564 <multicore_doorbell_claim_unused+0xf0>)
1000647a:	460f      	mov	r7, r1
1000647c:	f7f9 ff7e 	bl	1000037c <hw_claim_lock>
10006480:	78b3      	ldrb	r3, [r6, #2]
10006482:	7832      	ldrb	r2, [r6, #0]
10006484:	f003 0101 	and.w	r1, r3, #1
10006488:	f996 3000 	ldrsb.w	r3, [r6]
1000648c:	0fdb      	lsrs	r3, r3, #31
1000648e:	ea43 0341 	orr.w	r3, r3, r1, lsl #1
10006492:	4223      	tst	r3, r4
10006494:	d053      	beq.n	1000653e <multicore_doorbell_claim_unused+0xca>
10006496:	f996 1001 	ldrsb.w	r1, [r6, #1]
1000649a:	0fcb      	lsrs	r3, r1, #31
1000649c:	f3c2 1180 	ubfx	r1, r2, #6, #1
100064a0:	ea41 0143 	orr.w	r1, r1, r3, lsl #1
100064a4:	4221      	tst	r1, r4
100064a6:	7873      	ldrb	r3, [r6, #1]
100064a8:	d04c      	beq.n	10006544 <multicore_doorbell_claim_unused+0xd0>
100064aa:	f3c3 1180 	ubfx	r1, r3, #6, #1
100064ae:	f3c2 1540 	ubfx	r5, r2, #5, #1
100064b2:	ea45 0141 	orr.w	r1, r5, r1, lsl #1
100064b6:	4221      	tst	r1, r4
100064b8:	d047      	beq.n	1000654a <multicore_doorbell_claim_unused+0xd6>
100064ba:	f3c3 1140 	ubfx	r1, r3, #5, #1
100064be:	f3c2 1500 	ubfx	r5, r2, #4, #1
100064c2:	ea45 0141 	orr.w	r1, r5, r1, lsl #1
100064c6:	4221      	tst	r1, r4
100064c8:	d042      	beq.n	10006550 <multicore_doorbell_claim_unused+0xdc>
100064ca:	f3c3 1100 	ubfx	r1, r3, #4, #1
100064ce:	f3c2 05c0 	ubfx	r5, r2, #3, #1
100064d2:	ea45 0141 	orr.w	r1, r5, r1, lsl #1
100064d6:	4221      	tst	r1, r4
100064d8:	d03d      	beq.n	10006556 <multicore_doorbell_claim_unused+0xe2>
100064da:	f3c3 01c0 	ubfx	r1, r3, #3, #1
100064de:	f3c2 0580 	ubfx	r5, r2, #2, #1
100064e2:	ea45 0141 	orr.w	r1, r5, r1, lsl #1
100064e6:	4221      	tst	r1, r4
100064e8:	d015      	beq.n	10006516 <multicore_doorbell_claim_unused+0xa2>
100064ea:	f3c3 0180 	ubfx	r1, r3, #2, #1
100064ee:	f3c2 0540 	ubfx	r5, r2, #1, #1
100064f2:	ea45 0141 	orr.w	r1, r5, r1, lsl #1
100064f6:	4221      	tst	r1, r4
100064f8:	d01c      	beq.n	10006534 <multicore_doorbell_claim_unused+0xc0>
100064fa:	f003 0302 	and.w	r3, r3, #2
100064fe:	f002 0501 	and.w	r5, r2, #1
10006502:	431d      	orrs	r5, r3
10006504:	4025      	ands	r5, r4
10006506:	d018      	beq.n	1000653a <multicore_doorbell_claim_unused+0xc6>
10006508:	bb47      	cbnz	r7, 1000655c <multicore_doorbell_claim_unused+0xe8>
1000650a:	f06f 0508 	mvn.w	r5, #8
1000650e:	f7f9 ff47 	bl	100003a0 <hw_claim_unlock>
10006512:	4628      	mov	r0, r5
10006514:	bdf8      	pop	{r3, r4, r5, r6, r7, pc}
10006516:	2502      	movs	r5, #2
10006518:	2304      	movs	r3, #4
1000651a:	07e1      	lsls	r1, r4, #31
1000651c:	bf44      	itt	mi
1000651e:	431a      	orrmi	r2, r3
10006520:	7032      	strbmi	r2, [r6, #0]
10006522:	07a2      	lsls	r2, r4, #30
10006524:	d5f3      	bpl.n	1000650e <multicore_doorbell_claim_unused+0x9a>
10006526:	7872      	ldrb	r2, [r6, #1]
10006528:	4313      	orrs	r3, r2
1000652a:	7073      	strb	r3, [r6, #1]
1000652c:	f7f9 ff38 	bl	100003a0 <hw_claim_unlock>
10006530:	4628      	mov	r0, r5
10006532:	bdf8      	pop	{r3, r4, r5, r6, r7, pc}
10006534:	2501      	movs	r5, #1
10006536:	2302      	movs	r3, #2
10006538:	e7ef      	b.n	1000651a <multicore_doorbell_claim_unused+0xa6>
1000653a:	2301      	movs	r3, #1
1000653c:	e7ed      	b.n	1000651a <multicore_doorbell_claim_unused+0xa6>
1000653e:	2507      	movs	r5, #7
10006540:	2380      	movs	r3, #128	; 0x80
10006542:	e7ea      	b.n	1000651a <multicore_doorbell_claim_unused+0xa6>
10006544:	2506      	movs	r5, #6
10006546:	2340      	movs	r3, #64	; 0x40
10006548:	e7e7      	b.n	1000651a <multicore_doorbell_claim_unused+0xa6>
1000654a:	2505      	movs	r5, #5
1000654c:	2320      	movs	r3, #32
1000654e:	e7e4      	b.n	1000651a <multicore_doorbell_claim_unused+0xa6>
10006550:	2504      	movs	r5, #4
10006552:	2310      	movs	r3, #16
10006554:	e7e1      	b.n	1000651a <multicore_doorbell_claim_unused+0xa6>
10006556:	2503      	movs	r5, #3
10006558:	2308      	movs	r3, #8
1000655a:	e7de      	b.n	1000651a <multicore_doorbell_claim_unused+0xa6>
1000655c:	4802      	ldr	r0, [pc, #8]	; (10006568 <multicore_doorbell_claim_unused+0xf4>)
1000655e:	f7f9 fef5 	bl	1000034c <panic>
10006562:	bf00      	nop
10006564:	20001a44 	.word	0x20001a44
10006568:	10006df8 	.word	0x10006df8

1000656c <pvPortMalloc>:
1000656c:	1e43      	subs	r3, r0, #1
1000656e:	330a      	adds	r3, #10
10006570:	e92d 41f0 	stmdb	sp!, {r4, r5, r6, r7, r8, lr}
10006574:	d811      	bhi.n	1000659a <pvPortMalloc+0x2e>
10006576:	f100 0508 	add.w	r5, r0, #8
1000657a:	f010 0007 	ands.w	r0, r0, #7
1000657e:	d005      	beq.n	1000658c <pvPortMalloc+0x20>
10006580:	f1c0 0008 	rsb	r0, r0, #8
10006584:	43c3      	mvns	r3, r0
10006586:	42ab      	cmp	r3, r5
10006588:	d307      	bcc.n	1000659a <pvPortMalloc+0x2e>
1000658a:	4405      	add	r5, r0
1000658c:	f7ff f9ee 	bl	1000596c <vTaskSuspendAll>
10006590:	4a3f      	ldr	r2, [pc, #252]	; (10006690 <pvPortMalloc+0x124>)
10006592:	4628      	mov	r0, r5
10006594:	6811      	ldr	r1, [r2, #0]
10006596:	bb19      	cbnz	r1, 100065e0 <pvPortMalloc+0x74>
10006598:	e00b      	b.n	100065b2 <pvPortMalloc+0x46>
1000659a:	f7ff f9e7 	bl	1000596c <vTaskSuspendAll>
1000659e:	4a3c      	ldr	r2, [pc, #240]	; (10006690 <pvPortMalloc+0x124>)
100065a0:	6810      	ldr	r0, [r2, #0]
100065a2:	b128      	cbz	r0, 100065b0 <pvPortMalloc+0x44>
100065a4:	f7ff f9ea 	bl	1000597c <xTaskResumeAll>
100065a8:	2600      	movs	r6, #0
100065aa:	4630      	mov	r0, r6
100065ac:	e8bd 81f0 	ldmia.w	sp!, {r4, r5, r6, r7, r8, pc}
100065b0:	4605      	mov	r5, r0
100065b2:	4c38      	ldr	r4, [pc, #224]	; (10006694 <pvPortMalloc+0x128>)
100065b4:	0766      	lsls	r6, r4, #29
100065b6:	d15f      	bne.n	10006678 <pvPortMalloc+0x10c>
100065b8:	4623      	mov	r3, r4
100065ba:	f504 4180 	add.w	r1, r4, #16384	; 0x4000
100065be:	3908      	subs	r1, #8
100065c0:	f021 0107 	bic.w	r1, r1, #7
100065c4:	6011      	str	r1, [r2, #0]
100065c6:	2200      	movs	r2, #0
100065c8:	4e33      	ldr	r6, [pc, #204]	; (10006698 <pvPortMalloc+0x12c>)
100065ca:	1acb      	subs	r3, r1, r3
100065cc:	e9c6 4200 	strd	r4, r2, [r6]
100065d0:	e9c1 2200 	strd	r2, r2, [r1]
100065d4:	4a31      	ldr	r2, [pc, #196]	; (1000669c <pvPortMalloc+0x130>)
100065d6:	e9c4 1300 	strd	r1, r3, [r4]
100065da:	6013      	str	r3, [r2, #0]
100065dc:	4a30      	ldr	r2, [pc, #192]	; (100066a0 <pvPortMalloc+0x134>)
100065de:	6013      	str	r3, [r2, #0]
100065e0:	2800      	cmp	r0, #0
100065e2:	dddf      	ble.n	100065a4 <pvPortMalloc+0x38>
100065e4:	f8df 80b8 	ldr.w	r8, [pc, #184]	; 100066a0 <pvPortMalloc+0x134>
100065e8:	f8d8 7000 	ldr.w	r7, [r8]
100065ec:	42af      	cmp	r7, r5
100065ee:	d3d9      	bcc.n	100065a4 <pvPortMalloc+0x38>
100065f0:	4a29      	ldr	r2, [pc, #164]	; (10006698 <pvPortMalloc+0x12c>)
100065f2:	4c28      	ldr	r4, [pc, #160]	; (10006694 <pvPortMalloc+0x128>)
100065f4:	6813      	ldr	r3, [r2, #0]
100065f6:	42a3      	cmp	r3, r4
100065f8:	d345      	bcc.n	10006686 <pvPortMalloc+0x11a>
100065fa:	f8df e0ac 	ldr.w	lr, [pc, #172]	; 100066a8 <pvPortMalloc+0x13c>
100065fe:	4573      	cmp	r3, lr
10006600:	d841      	bhi.n	10006686 <pvPortMalloc+0x11a>
10006602:	4694      	mov	ip, r2
10006604:	e007      	b.n	10006616 <pvPortMalloc+0xaa>
10006606:	681a      	ldr	r2, [r3, #0]
10006608:	b142      	cbz	r2, 1000661c <pvPortMalloc+0xb0>
1000660a:	42a2      	cmp	r2, r4
1000660c:	d33c      	bcc.n	10006688 <pvPortMalloc+0x11c>
1000660e:	4572      	cmp	r2, lr
10006610:	469c      	mov	ip, r3
10006612:	d839      	bhi.n	10006688 <pvPortMalloc+0x11c>
10006614:	4613      	mov	r3, r2
10006616:	6858      	ldr	r0, [r3, #4]
10006618:	42a8      	cmp	r0, r5
1000661a:	d3f4      	bcc.n	10006606 <pvPortMalloc+0x9a>
1000661c:	428b      	cmp	r3, r1
1000661e:	d0c1      	beq.n	100065a4 <pvPortMalloc+0x38>
10006620:	f103 0608 	add.w	r6, r3, #8
10006624:	42a6      	cmp	r6, r4
10006626:	d332      	bcc.n	1000668e <pvPortMalloc+0x122>
10006628:	4576      	cmp	r6, lr
1000662a:	d830      	bhi.n	1000668e <pvPortMalloc+0x122>
1000662c:	6819      	ldr	r1, [r3, #0]
1000662e:	42a8      	cmp	r0, r5
10006630:	f8cc 1000 	str.w	r1, [ip]
10006634:	d329      	bcc.n	1000668a <pvPortMalloc+0x11e>
10006636:	1b44      	subs	r4, r0, r5
10006638:	2c10      	cmp	r4, #16
1000663a:	d907      	bls.n	1000664c <pvPortMalloc+0xe0>
1000663c:	195a      	adds	r2, r3, r5
1000663e:	0750      	lsls	r0, r2, #29
10006640:	d124      	bne.n	1000668c <pvPortMalloc+0x120>
10006642:	4628      	mov	r0, r5
10006644:	6054      	str	r4, [r2, #4]
10006646:	5159      	str	r1, [r3, r5]
10006648:	f8cc 2000 	str.w	r2, [ip]
1000664c:	2400      	movs	r4, #0
1000664e:	4a13      	ldr	r2, [pc, #76]	; (1000669c <pvPortMalloc+0x130>)
10006650:	1a3f      	subs	r7, r7, r0
10006652:	6811      	ldr	r1, [r2, #0]
10006654:	f040 4000 	orr.w	r0, r0, #2147483648	; 0x80000000
10006658:	428f      	cmp	r7, r1
1000665a:	4912      	ldr	r1, [pc, #72]	; (100066a4 <pvPortMalloc+0x138>)
1000665c:	bf38      	it	cc
1000665e:	6017      	strcc	r7, [r2, #0]
10006660:	680a      	ldr	r2, [r1, #0]
10006662:	6058      	str	r0, [r3, #4]
10006664:	3201      	adds	r2, #1
10006666:	601c      	str	r4, [r3, #0]
10006668:	f8c8 7000 	str.w	r7, [r8]
1000666c:	600a      	str	r2, [r1, #0]
1000666e:	f7ff f985 	bl	1000597c <xTaskResumeAll>
10006672:	0773      	lsls	r3, r6, #29
10006674:	d099      	beq.n	100065aa <pvPortMalloc+0x3e>
10006676:	e7fe      	b.n	10006676 <pvPortMalloc+0x10a>
10006678:	1de3      	adds	r3, r4, #7
1000667a:	f023 0307 	bic.w	r3, r3, #7
1000667e:	f504 4180 	add.w	r1, r4, #16384	; 0x4000
10006682:	461c      	mov	r4, r3
10006684:	e79b      	b.n	100065be <pvPortMalloc+0x52>
10006686:	e7fe      	b.n	10006686 <pvPortMalloc+0x11a>
10006688:	e7fe      	b.n	10006688 <pvPortMalloc+0x11c>
1000668a:	e7fe      	b.n	1000668a <pvPortMalloc+0x11e>
1000668c:	e7fe      	b.n	1000668c <pvPortMalloc+0x120>
1000668e:	e7fe      	b.n	1000668e <pvPortMalloc+0x122>
10006690:	20001e98 	.word	0x20001e98
10006694:	20001f20 	.word	0x20001f20
10006698:	20005fe0 	.word	0x20005fe0
1000669c:	20005fb0 	.word	0x20005fb0
100066a0:	20005fa4 	.word	0x20005fa4
100066a4:	20005fbc 	.word	0x20005fbc
100066a8:	20005f1f 	.word	0x20005f1f

100066ac <vPortFree>:
100066ac:	b178      	cbz	r0, 100066ce <vPortFree+0x22>
100066ae:	b5f0      	push	{r4, r5, r6, r7, lr}
100066b0:	4d28      	ldr	r5, [pc, #160]	; (10006754 <vPortFree+0xa8>)
100066b2:	f1a0 0408 	sub.w	r4, r0, #8
100066b6:	42ac      	cmp	r4, r5
100066b8:	b083      	sub	sp, #12
100066ba:	d200      	bcs.n	100066be <vPortFree+0x12>
100066bc:	e7fe      	b.n	100066bc <vPortFree+0x10>
100066be:	4e26      	ldr	r6, [pc, #152]	; (10006758 <vPortFree+0xac>)
100066c0:	42b4      	cmp	r4, r6
100066c2:	d8fb      	bhi.n	100066bc <vPortFree+0x10>
100066c4:	f850 3c04 	ldr.w	r3, [r0, #-4]
100066c8:	2b00      	cmp	r3, #0
100066ca:	db01      	blt.n	100066d0 <vPortFree+0x24>
100066cc:	e7fe      	b.n	100066cc <vPortFree+0x20>
100066ce:	4770      	bx	lr
100066d0:	f850 2c08 	ldr.w	r2, [r0, #-8]
100066d4:	b102      	cbz	r2, 100066d8 <vPortFree+0x2c>
100066d6:	e7fe      	b.n	100066d6 <vPortFree+0x2a>
100066d8:	f023 4300 	bic.w	r3, r3, #2147483648	; 0x80000000
100066dc:	f840 3c04 	str.w	r3, [r0, #-4]
100066e0:	9001      	str	r0, [sp, #4]
100066e2:	f7ff f943 	bl	1000596c <vTaskSuspendAll>
100066e6:	9801      	ldr	r0, [sp, #4]
100066e8:	4f1c      	ldr	r7, [pc, #112]	; (1000675c <vPortFree+0xb0>)
100066ea:	f850 1c04 	ldr.w	r1, [r0, #-4]
100066ee:	481c      	ldr	r0, [pc, #112]	; (10006760 <vPortFree+0xb4>)
100066f0:	683a      	ldr	r2, [r7, #0]
100066f2:	4603      	mov	r3, r0
100066f4:	440a      	add	r2, r1
100066f6:	603a      	str	r2, [r7, #0]
100066f8:	461a      	mov	r2, r3
100066fa:	681b      	ldr	r3, [r3, #0]
100066fc:	429c      	cmp	r4, r3
100066fe:	d8fb      	bhi.n	100066f8 <vPortFree+0x4c>
10006700:	4282      	cmp	r2, r0
10006702:	d003      	beq.n	1000670c <vPortFree+0x60>
10006704:	42aa      	cmp	r2, r5
10006706:	d315      	bcc.n	10006734 <vPortFree+0x88>
10006708:	42b2      	cmp	r2, r6
1000670a:	d813      	bhi.n	10006734 <vPortFree+0x88>
1000670c:	6850      	ldr	r0, [r2, #4]
1000670e:	1815      	adds	r5, r2, r0
10006710:	42ac      	cmp	r4, r5
10006712:	d01a      	beq.n	1000674a <vPortFree+0x9e>
10006714:	1860      	adds	r0, r4, r1
10006716:	4283      	cmp	r3, r0
10006718:	d00d      	beq.n	10006736 <vPortFree+0x8a>
1000671a:	6023      	str	r3, [r4, #0]
1000671c:	42a2      	cmp	r2, r4
1000671e:	bf18      	it	ne
10006720:	6014      	strne	r4, [r2, #0]
10006722:	4a10      	ldr	r2, [pc, #64]	; (10006764 <vPortFree+0xb8>)
10006724:	6813      	ldr	r3, [r2, #0]
10006726:	3301      	adds	r3, #1
10006728:	6013      	str	r3, [r2, #0]
1000672a:	b003      	add	sp, #12
1000672c:	e8bd 40f0 	ldmia.w	sp!, {r4, r5, r6, r7, lr}
10006730:	f7ff b924 	b.w	1000597c <xTaskResumeAll>
10006734:	e7fe      	b.n	10006734 <vPortFree+0x88>
10006736:	480c      	ldr	r0, [pc, #48]	; (10006768 <vPortFree+0xbc>)
10006738:	6800      	ldr	r0, [r0, #0]
1000673a:	4283      	cmp	r3, r0
1000673c:	d0ed      	beq.n	1000671a <vPortFree+0x6e>
1000673e:	e9d3 3000 	ldrd	r3, r0, [r3]
10006742:	4401      	add	r1, r0
10006744:	e9c4 3100 	strd	r3, r1, [r4]
10006748:	e7e8      	b.n	1000671c <vPortFree+0x70>
1000674a:	4401      	add	r1, r0
1000674c:	4614      	mov	r4, r2
1000674e:	6051      	str	r1, [r2, #4]
10006750:	e7e0      	b.n	10006714 <vPortFree+0x68>
10006752:	bf00      	nop
10006754:	20001f20 	.word	0x20001f20
10006758:	20005f1f 	.word	0x20005f1f
1000675c:	20005fa4 	.word	0x20005fa4
10006760:	20005fe0 	.word	0x20005fe0
10006764:	20005fc0 	.word	0x20005fc0
10006768:	20001e98 	.word	0x20001e98

1000676c <memcpy>:
1000676c:	4684      	mov	ip, r0
1000676e:	ea41 0300 	orr.w	r3, r1, r0
10006772:	f013 0303 	ands.w	r3, r3, #3
10006776:	d149      	bne.n	1000680c <memcpy+0xa0>
10006778:	3a40      	subs	r2, #64	; 0x40
1000677a:	d323      	bcc.n	100067c4 <memcpy+0x58>
1000677c:	680b      	ldr	r3, [r1, #0]
1000677e:	6003      	str	r3, [r0, #0]
10006780:	684b      	ldr	r3, [r1, #4]
10006782:	6043      	str	r3, [r0, #4]
10006784:	688b      	ldr	r3, [r1, #8]
10006786:	6083      	str	r3, [r0, #8]
10006788:	68cb      	ldr	r3, [r1, #12]
1000678a:	60c3      	str	r3, [r0, #12]
1000678c:	690b      	ldr	r3, [r1, #16]
1000678e:	6103      	str	r3, [r0, #16]
10006790:	694b      	ldr	r3, [r1, #20]
10006792:	6143      	str	r3, [r0, #20]
10006794:	698b      	ldr	r3, [r1, #24]
10006796:	6183      	str	r3, [r0, #24]
10006798:	69cb      	ldr	r3, [r1, #28]
1000679a:	61c3      	str	r3, [r0, #28]
1000679c:	6a0b      	ldr	r3, [r1, #32]
1000679e:	6203      	str	r3, [r0, #32]
100067a0:	6a4b      	ldr	r3, [r1, #36]	; 0x24
100067a2:	6243      	str	r3, [r0, #36]	; 0x24
100067a4:	6a8b      	ldr	r3, [r1, #40]	; 0x28
100067a6:	6283      	str	r3, [r0, #40]	; 0x28
100067a8:	6acb      	ldr	r3, [r1, #44]	; 0x2c
100067aa:	62c3      	str	r3, [r0, #44]	; 0x2c
100067ac:	6b0b      	ldr	r3, [r1, #48]	; 0x30
100067ae:	6303      	str	r3, [r0, #48]	; 0x30
100067b0:	6b4b      	ldr	r3, [r1, #52]	; 0x34
100067b2:	6343      	str	r3, [r0, #52]	; 0x34
100067b4:	6b8b      	ldr	r3, [r1, #56]	; 0x38
100067b6:	6383      	str	r3, [r0, #56]	; 0x38
100067b8:	6bcb      	ldr	r3, [r1, #60]	; 0x3c
100067ba:	63c3      	str	r3, [r0, #60]	; 0x3c
100067bc:	3040      	adds	r0, #64	; 0x40
100067be:	3140      	adds	r1, #64	; 0x40
100067c0:	3a40      	subs	r2, #64	; 0x40
100067c2:	d2db      	bcs.n	1000677c <memcpy+0x10>
100067c4:	3230      	adds	r2, #48	; 0x30
100067c6:	d30b      	bcc.n	100067e0 <memcpy+0x74>
100067c8:	680b      	ldr	r3, [r1, #0]
100067ca:	6003      	str	r3, [r0, #0]
100067cc:	684b      	ldr	r3, [r1, #4]
100067ce:	6043      	str	r3, [r0, #4]
100067d0:	688b      	ldr	r3, [r1, #8]
100067d2:	6083      	str	r3, [r0, #8]
100067d4:	68cb      	ldr	r3, [r1, #12]
100067d6:	60c3      	str	r3, [r0, #12]
100067d8:	3010      	adds	r0, #16
100067da:	3110      	adds	r1, #16
100067dc:	3a10      	subs	r2, #16
100067de:	d2f3      	bcs.n	100067c8 <memcpy+0x5c>
100067e0:	320c      	adds	r2, #12
100067e2:	d305      	bcc.n	100067f0 <memcpy+0x84>
100067e4:	f851 3b04 	ldr.w	r3, [r1], #4
100067e8:	f840 3b04 	str.w	r3, [r0], #4
100067ec:	3a04      	subs	r2, #4
100067ee:	d2f9      	bcs.n	100067e4 <memcpy+0x78>
100067f0:	3204      	adds	r2, #4
100067f2:	d008      	beq.n	10006806 <memcpy+0x9a>
100067f4:	07d2      	lsls	r2, r2, #31
100067f6:	bf1c      	itt	ne
100067f8:	f811 3b01 	ldrbne.w	r3, [r1], #1
100067fc:	f800 3b01 	strbne.w	r3, [r0], #1
10006800:	d301      	bcc.n	10006806 <memcpy+0x9a>
10006802:	880b      	ldrh	r3, [r1, #0]
10006804:	8003      	strh	r3, [r0, #0]
10006806:	4660      	mov	r0, ip
10006808:	4770      	bx	lr
1000680a:	bf00      	nop
1000680c:	2a08      	cmp	r2, #8
1000680e:	d313      	bcc.n	10006838 <memcpy+0xcc>
10006810:	078b      	lsls	r3, r1, #30
10006812:	d0b1      	beq.n	10006778 <memcpy+0xc>
10006814:	f010 0303 	ands.w	r3, r0, #3
10006818:	d0ae      	beq.n	10006778 <memcpy+0xc>
1000681a:	f1c3 0304 	rsb	r3, r3, #4
1000681e:	1ad2      	subs	r2, r2, r3
10006820:	07db      	lsls	r3, r3, #31
10006822:	bf1c      	itt	ne
10006824:	f811 3b01 	ldrbne.w	r3, [r1], #1
10006828:	f800 3b01 	strbne.w	r3, [r0], #1
1000682c:	d3a4      	bcc.n	10006778 <memcpy+0xc>
1000682e:	f831 3b02 	ldrh.w	r3, [r1], #2
10006832:	f820 3b02 	strh.w	r3, [r0], #2
10006836:	e79f      	b.n	10006778 <memcpy+0xc>
10006838:	3a04      	subs	r2, #4
1000683a:	d3d9      	bcc.n	100067f0 <memcpy+0x84>
1000683c:	3a01      	subs	r2, #1
1000683e:	f811 3b01 	ldrb.w	r3, [r1], #1
10006842:	f800 3b01 	strb.w	r3, [r0], #1
10006846:	d2f9      	bcs.n	1000683c <memcpy+0xd0>
10006848:	780b      	ldrb	r3, [r1, #0]
1000684a:	7003      	strb	r3, [r0, #0]
1000684c:	784b      	ldrb	r3, [r1, #1]
1000684e:	7043      	strb	r3, [r0, #1]
10006850:	788b      	ldrb	r3, [r1, #2]
10006852:	7083      	strb	r3, [r0, #2]
10006854:	4660      	mov	r0, ip
10006856:	4770      	bx	lr

10006858 <memset>:
10006858:	b570      	push	{r4, r5, r6, lr}
1000685a:	0786      	lsls	r6, r0, #30
1000685c:	d048      	beq.n	100068f0 <memset+0x98>
1000685e:	1e54      	subs	r4, r2, #1
10006860:	2a00      	cmp	r2, #0
10006862:	d03f      	beq.n	100068e4 <memset+0x8c>
10006864:	b2ca      	uxtb	r2, r1
10006866:	4603      	mov	r3, r0
10006868:	e001      	b.n	1000686e <memset+0x16>
1000686a:	3c01      	subs	r4, #1
1000686c:	d33a      	bcc.n	100068e4 <memset+0x8c>
1000686e:	f803 2b01 	strb.w	r2, [r3], #1
10006872:	079d      	lsls	r5, r3, #30
10006874:	d1f9      	bne.n	1000686a <memset+0x12>
10006876:	2c03      	cmp	r4, #3
10006878:	d92d      	bls.n	100068d6 <memset+0x7e>
1000687a:	b2cd      	uxtb	r5, r1
1000687c:	2c0f      	cmp	r4, #15
1000687e:	ea45 2505 	orr.w	r5, r5, r5, lsl #8
10006882:	ea45 4505 	orr.w	r5, r5, r5, lsl #16
10006886:	d936      	bls.n	100068f6 <memset+0x9e>
10006888:	f1a4 0c10 	sub.w	ip, r4, #16
1000688c:	f103 0e20 	add.w	lr, r3, #32
10006890:	f103 0210 	add.w	r2, r3, #16
10006894:	f02c 060f 	bic.w	r6, ip, #15
10006898:	ea4f 1c1c 	mov.w	ip, ip, lsr #4
1000689c:	44b6      	add	lr, r6
1000689e:	e942 5504 	strd	r5, r5, [r2, #-16]
100068a2:	e942 5502 	strd	r5, r5, [r2, #-8]
100068a6:	3210      	adds	r2, #16
100068a8:	4572      	cmp	r2, lr
100068aa:	d1f8      	bne.n	1000689e <memset+0x46>
100068ac:	f10c 0201 	add.w	r2, ip, #1
100068b0:	f014 0f0c 	tst.w	r4, #12
100068b4:	f004 0c0f 	and.w	ip, r4, #15
100068b8:	eb03 1202 	add.w	r2, r3, r2, lsl #4
100068bc:	d013      	beq.n	100068e6 <memset+0x8e>
100068be:	f1ac 0304 	sub.w	r3, ip, #4
100068c2:	f023 0303 	bic.w	r3, r3, #3
100068c6:	3304      	adds	r3, #4
100068c8:	4413      	add	r3, r2
100068ca:	f842 5b04 	str.w	r5, [r2], #4
100068ce:	4293      	cmp	r3, r2
100068d0:	d1fb      	bne.n	100068ca <memset+0x72>
100068d2:	f00c 0403 	and.w	r4, ip, #3
100068d6:	b12c      	cbz	r4, 100068e4 <memset+0x8c>
100068d8:	b2ca      	uxtb	r2, r1
100068da:	441c      	add	r4, r3
100068dc:	f803 2b01 	strb.w	r2, [r3], #1
100068e0:	429c      	cmp	r4, r3
100068e2:	d1fb      	bne.n	100068dc <memset+0x84>
100068e4:	bd70      	pop	{r4, r5, r6, pc}
100068e6:	4664      	mov	r4, ip
100068e8:	4613      	mov	r3, r2
100068ea:	2c00      	cmp	r4, #0
100068ec:	d1f4      	bne.n	100068d8 <memset+0x80>
100068ee:	e7f9      	b.n	100068e4 <memset+0x8c>
100068f0:	4603      	mov	r3, r0
100068f2:	4614      	mov	r4, r2
100068f4:	e7bf      	b.n	10006876 <memset+0x1e>
100068f6:	461a      	mov	r2, r3
100068f8:	46a4      	mov	ip, r4
100068fa:	e7e0      	b.n	100068be <memset+0x66>

100068fc <strlen>:
100068fc:	f020 0103 	bic.w	r1, r0, #3
10006900:	f010 0003 	ands.w	r0, r0, #3
10006904:	f1c0 0000 	rsb	r0, r0, #0
10006908:	f851 3b04 	ldr.w	r3, [r1], #4
1000690c:	f100 0c04 	add.w	ip, r0, #4
10006910:	ea4f 0ccc 	mov.w	ip, ip, lsl #3
10006914:	f06f 0200 	mvn.w	r2, #0
10006918:	bf1c      	itt	ne
1000691a:	fa22 f20c 	lsrne.w	r2, r2, ip
1000691e:	4313      	orrne	r3, r2
10006920:	f04f 0c01 	mov.w	ip, #1
10006924:	ea4c 2c0c 	orr.w	ip, ip, ip, lsl #8
10006928:	ea4c 4c0c 	orr.w	ip, ip, ip, lsl #16
1000692c:	eba3 020c 	sub.w	r2, r3, ip
10006930:	ea22 0203 	bic.w	r2, r2, r3
10006934:	ea12 12cc 	ands.w	r2, r2, ip, lsl #7
10006938:	bf04      	itt	eq
1000693a:	f851 3b04 	ldreq.w	r3, [r1], #4
1000693e:	3004      	addeq	r0, #4
10006940:	d0f4      	beq.n	1000692c <strlen+0x30>
10006942:	f1c2 0100 	rsb	r1, r2, #0
10006946:	ea02 0201 	and.w	r2, r2, r1
1000694a:	fab2 f282 	clz	r2, r2
1000694e:	f1c2 021f 	rsb	r2, r2, #31
10006952:	eb00 00d2 	add.w	r0, r0, r2, lsr #3
10006956:	4770      	bx	lr

10006958 <_fini>:
10006958:	b5f8      	push	{r3, r4, r5, r6, r7, lr}
1000695a:	bf00      	nop
1000695c:	0000      	movs	r0, r0
	...

10006960 <__e15_is_bulkin_ep_veneer>:
10006960:	b401      	push	{r0}
10006962:	4802      	ldr	r0, [pc, #8]	; (1000696c <__e15_is_bulkin_ep_veneer+0xc>)
10006964:	4684      	mov	ip, r0
10006966:	bc01      	pop	{r0}
10006968:	4760      	bx	ip
1000696a:	bf00      	nop
1000696c:	20000a61 	.word	0x20000a61

10006970 <__reset_non_control_endpoints_veneer>:
10006970:	b401      	push	{r0}
10006972:	4802      	ldr	r0, [pc, #8]	; (1000697c <__reset_non_control_endpoints_veneer+0xc>)
10006974:	4684      	mov	ip, r0
10006976:	bc01      	pop	{r0}
10006978:	4760      	bx	ip
1000697a:	bf00      	nop
1000697c:	200002b9 	.word	0x200002b9

10006980 <__mutex_exit_veneer>:
10006980:	b401      	push	{r0}
10006982:	4802      	ldr	r0, [pc, #8]	; (1000698c <__mutex_exit_veneer+0xc>)
10006984:	4684      	mov	ip, r0
10006986:	bc01      	pop	{r0}
10006988:	4760      	bx	ip
1000698a:	bf00      	nop
1000698c:	20000285 	.word	0x20000285

10006990 <__mutex_try_enter_veneer>:
10006990:	b401      	push	{r0}
10006992:	4802      	ldr	r0, [pc, #8]	; (1000699c <__mutex_try_enter_veneer+0xc>)
10006994:	4684      	mov	ip, r0
10006996:	bc01      	pop	{r0}
10006998:	4760      	bx	ip
1000699a:	bf00      	nop
1000699c:	20000111 	.word	0x20000111

100069a0 <__mutex_enter_timeout_ms_veneer>:
100069a0:	b401      	push	{r0}
100069a2:	4802      	ldr	r0, [pc, #8]	; (100069ac <__mutex_enter_timeout_ms_veneer+0xc>)
100069a4:	4684      	mov	ip, r0
100069a6:	bc01      	pop	{r0}
100069a8:	4760      	bx	ip
100069aa:	bf00      	nop
100069ac:	2000020d 	.word	0x2000020d

100069b0 <____aeabi_ldivmod_veneer>:
100069b0:	b401      	push	{r0}
100069b2:	4802      	ldr	r0, [pc, #8]	; (100069bc <____aeabi_ldivmod_veneer+0xc>)
100069b4:	4684      	mov	ip, r0
100069b6:	bc01      	pop	{r0}
100069b8:	4760      	bx	ip
100069ba:	bf00      	nop
100069bc:	20000dbd 	.word	0x20000dbd

100069c0 <__mutex_try_enter_block_until_veneer>:
100069c0:	b401      	push	{r0}
100069c2:	4802      	ldr	r0, [pc, #8]	; (100069cc <__mutex_try_enter_block_until_veneer+0xc>)
100069c4:	4684      	mov	ip, r0
100069c6:	bc01      	pop	{r0}
100069c8:	4760      	bx	ip
100069ca:	bf00      	nop
100069cc:	2000015d 	.word	0x2000015d

100069d0 <__hw_endpoint_start_next_buffer_veneer>:
100069d0:	b401      	push	{r0}
100069d2:	4802      	ldr	r0, [pc, #8]	; (100069dc <__hw_endpoint_start_next_buffer_veneer+0xc>)
100069d4:	4684      	mov	ip, r0
100069d6:	bc01      	pop	{r0}
100069d8:	4760      	bx	ip
100069da:	bf00      	nop
100069dc:	20000b01 	.word	0x20000b01

100069e0 <__hw_endpoint_reset_transfer_veneer>:
100069e0:	b401      	push	{r0}
100069e2:	4802      	ldr	r0, [pc, #8]	; (100069ec <__hw_endpoint_reset_transfer_veneer+0xc>)
100069e4:	4684      	mov	ip, r0
100069e6:	bc01      	pop	{r0}
100069e8:	4760      	bx	ip
100069ea:	bf00      	nop
100069ec:	20000ab1 	.word	0x20000ab1

100069f0 <__e15_is_critical_frame_period_veneer>:
100069f0:	b401      	push	{r0}
100069f2:	4802      	ldr	r0, [pc, #8]	; (100069fc <__e15_is_critical_frame_period_veneer+0xc>)
100069f4:	4684      	mov	ip, r0
100069f6:	bc01      	pop	{r0}
100069f8:	4760      	bx	ip
100069fa:	bf00      	nop
100069fc:	20000a89 	.word	0x20000a89

10006a00 <___hw_endpoint_buffer_control_update32_veneer>:
10006a00:	b401      	push	{r0}
10006a02:	4802      	ldr	r0, [pc, #8]	; (10006a0c <___hw_endpoint_buffer_control_update32_veneer+0xc>)
10006a04:	4684      	mov	ip, r0
10006a06:	bc01      	pop	{r0}
10006a08:	4760      	bx	ip
10006a0a:	bf00      	nop
10006a0c:	20000abd 	.word	0x20000abd

10006a10 <__pre_init_runtime_init_bootrom_reset>:
10006a10:	10001509                                ....

10006a14 <__pre_init_runtime_init_early_resets>:
10006a14:	1000147d                                }...

10006a18 <__pre_init_runtime_init_usb_power_down>:
10006a18:	100014b1                                ....

10006a1c <__pre_init_runtime_init_clocks>:
10006a1c:	10001605                                ....

10006a20 <__pre_init_runtime_init_post_clock_resets>:
10006a20:	100014e9                                ....

10006a24 <__pre_init_runtime_init_boot_locks_reset>:
10006a24:	10001401                                ....

10006a28 <__pre_init_runtime_init_spin_locks_reset>:
10006a28:	10001531                                1...

10006a2c <__pre_init_runtime_init_bootrom_locking_enable>:
10006a2c:	100013ed                                ....

10006a30 <__pre_init_runtime_init_mutex>:
10006a30:	10000935                                5...

10006a34 <__pre_init_runtime_init_install_ram_vector_table>:
10006a34:	10001535                                5...

10006a38 <__pre_init_runtime_init_default_alarm_pool>:
10006a38:	10000d15                                ....

10006a3c <__pre_init_first_per_core_initializer>:
10006a3c:	1000144d                                M...

10006a40 <__pre_init_runtime_init_per_core_bootrom_reset>:
10006a40:	1000151d                                ....

10006a44 <__pre_init_runtime_init_per_core_enable_coprocessors>:
10006a44:	100014cd                                ....

10006a48 <__pre_init_spinlock_set_extexclall>:
10006a48:	100004e5                                ....

10006a4c <__pre_init_runtime_init_per_core_irq_priorities>:
10006a4c:	1000050d                                ....

10006a50 <__init_array_start>:
10006a50:	10001f2d 	.word	0x10001f2d

10006a54 <__frame_dummy_init_array_entry>:
10006a54:	1000020d 100046bd                       .....F..

Disassembly of section .data:

20000110 <mutex_try_enter>:
20000110:	b538      	push	{r3, r4, r5, lr}
20000112:	4604      	mov	r4, r0
20000114:	6803      	ldr	r3, [r0, #0]
20000116:	f3ef 8510 	mrs	r5, PRIMASK
2000011a:	b672      	cpsid	i
2000011c:	e8d3 0fcf 	ldaexb	r0, [r3]
20000120:	2201      	movs	r2, #1
20000122:	2800      	cmp	r0, #0
20000124:	d1fa      	bne.n	2000011c <mutex_try_enter+0xc>
20000126:	e8c3 2f40 	strexb	r0, r2, [r3]
2000012a:	2800      	cmp	r0, #0
2000012c:	d1f6      	bne.n	2000011c <mutex_try_enter+0xc>
2000012e:	f3bf 8f5f 	dmb	sy
20000132:	6863      	ldr	r3, [r4, #4]
20000134:	1c5a      	adds	r2, r3, #1
20000136:	d00b      	beq.n	20000150 <mutex_try_enter+0x40>
20000138:	b141      	cbz	r1, 2000014c <mutex_try_enter+0x3c>
2000013a:	2000      	movs	r0, #0
2000013c:	600b      	str	r3, [r1, #0]
2000013e:	2300      	movs	r3, #0
20000140:	6822      	ldr	r2, [r4, #0]
20000142:	e8c2 3f8f 	stlb	r3, [r2]
20000146:	f385 8810 	msr	PRIMASK, r5
2000014a:	bd38      	pop	{r3, r4, r5, pc}
2000014c:	4608      	mov	r0, r1
2000014e:	e7f6      	b.n	2000013e <mutex_try_enter+0x2e>
20000150:	f001 f80e 	bl	20001170 <__ulPortLockGetCurrentOwnerId_veneer>
20000154:	4603      	mov	r3, r0
20000156:	2001      	movs	r0, #1
20000158:	6063      	str	r3, [r4, #4]
2000015a:	e7f0      	b.n	2000013e <mutex_try_enter+0x2e>

2000015c <mutex_try_enter_block_until>:
2000015c:	e92d 41f0 	stmdb	sp!, {r4, r5, r6, r7, r8, lr}
20000160:	461f      	mov	r7, r3
20000162:	4604      	mov	r4, r0
20000164:	4616      	mov	r6, r2
20000166:	6803      	ldr	r3, [r0, #0]
20000168:	f3ef 8810 	mrs	r8, PRIMASK
2000016c:	b672      	cpsid	i
2000016e:	e8d3 1fcf 	ldaexb	r1, [r3]
20000172:	2201      	movs	r2, #1
20000174:	2900      	cmp	r1, #0
20000176:	d1fa      	bne.n	2000016e <mutex_try_enter_block_until+0x12>
20000178:	e8c3 2f41 	strexb	r1, r2, [r3]
2000017c:	2900      	cmp	r1, #0
2000017e:	d1f6      	bne.n	2000016e <mutex_try_enter_block_until+0x12>
20000180:	f3bf 8f5f 	dmb	sy
20000184:	6845      	ldr	r5, [r0, #4]
20000186:	1c6b      	adds	r3, r5, #1
20000188:	d00c      	beq.n	200001a4 <mutex_try_enter_block_until+0x48>
2000018a:	2300      	movs	r3, #0
2000018c:	6802      	ldr	r2, [r0, #0]
2000018e:	e8c2 3f8f 	stlb	r3, [r2]
20000192:	f388 8810 	msr	PRIMASK, r8
20000196:	f000 ffeb 	bl	20001170 <__ulPortLockGetCurrentOwnerId_veneer>
2000019a:	42a8      	cmp	r0, r5
2000019c:	d10e      	bne.n	200001bc <mutex_try_enter_block_until+0x60>
2000019e:	2000      	movs	r0, #0
200001a0:	e8bd 81f0 	ldmia.w	sp!, {r4, r5, r6, r7, r8, pc}
200001a4:	f000 ffe4 	bl	20001170 <__ulPortLockGetCurrentOwnerId_veneer>
200001a8:	2300      	movs	r3, #0
200001aa:	6822      	ldr	r2, [r4, #0]
200001ac:	6060      	str	r0, [r4, #4]
200001ae:	e8c2 3f8f 	stlb	r3, [r2]
200001b2:	f388 8810 	msr	PRIMASK, r8
200001b6:	2001      	movs	r0, #1
200001b8:	e8bd 81f0 	ldmia.w	sp!, {r4, r5, r6, r7, r8, pc}
200001bc:	f000 ffd8 	bl	20001170 <__ulPortLockGetCurrentOwnerId_veneer>
200001c0:	4680      	mov	r8, r0
200001c2:	e006      	b.n	200001d2 <mutex_try_enter_block_until+0x76>
200001c4:	4632      	mov	r2, r6
200001c6:	463b      	mov	r3, r7
200001c8:	4620      	mov	r0, r4
200001ca:	f000 ffe9 	bl	200011a0 <__xPortLockInternalSpinUnlockWithBestEffortWaitOrTimeout_veneer>
200001ce:	2800      	cmp	r0, #0
200001d0:	d1e5      	bne.n	2000019e <mutex_try_enter_block_until+0x42>
200001d2:	6825      	ldr	r5, [r4, #0]
200001d4:	f3ef 8110 	mrs	r1, PRIMASK
200001d8:	b672      	cpsid	i
200001da:	e8d5 2fcf 	ldaexb	r2, [r5]
200001de:	2301      	movs	r3, #1
200001e0:	2a00      	cmp	r2, #0
200001e2:	d1fa      	bne.n	200001da <mutex_try_enter_block_until+0x7e>
200001e4:	e8c5 3f42 	strexb	r2, r3, [r5]
200001e8:	2a00      	cmp	r2, #0
200001ea:	d1f6      	bne.n	200001da <mutex_try_enter_block_until+0x7e>
200001ec:	f3bf 8f5f 	dmb	sy
200001f0:	6863      	ldr	r3, [r4, #4]
200001f2:	3301      	adds	r3, #1
200001f4:	d1e6      	bne.n	200001c4 <mutex_try_enter_block_until+0x68>
200001f6:	2300      	movs	r3, #0
200001f8:	6822      	ldr	r2, [r4, #0]
200001fa:	f8c4 8004 	str.w	r8, [r4, #4]
200001fe:	e8c2 3f8f 	stlb	r3, [r2]
20000202:	f381 8810 	msr	PRIMASK, r1
20000206:	2001      	movs	r0, #1
20000208:	e7ca      	b.n	200001a0 <mutex_try_enter_block_until+0x44>
2000020a:	bf00      	nop

2000020c <mutex_enter_timeout_ms>:
2000020c:	e92d 41f0 	stmdb	sp!, {r4, r5, r6, r7, r8, lr}
20000210:	460d      	mov	r5, r1
20000212:	4604      	mov	r4, r0
20000214:	f000 ffd4 	bl	200011c0 <__time_us_64_veneer>
20000218:	f44f 737a 	mov.w	r3, #1000	; 0x3e8
2000021c:	fbe5 0103 	umlal	r0, r1, r5, r3
20000220:	2900      	cmp	r1, #0
20000222:	bfb9      	ittee	lt
20000224:	f04f 36ff 	movlt.w	r6, #4294967295
20000228:	f06f 4700 	mvnlt.w	r7, #2147483648	; 0x80000000
2000022c:	460f      	movge	r7, r1
2000022e:	4606      	movge	r6, r0
20000230:	f000 ff9e 	bl	20001170 <__ulPortLockGetCurrentOwnerId_veneer>
20000234:	4680      	mov	r8, r0
20000236:	e005      	b.n	20000244 <mutex_enter_timeout_ms+0x38>
20000238:	4632      	mov	r2, r6
2000023a:	463b      	mov	r3, r7
2000023c:	4620      	mov	r0, r4
2000023e:	f000 ffaf 	bl	200011a0 <__xPortLockInternalSpinUnlockWithBestEffortWaitOrTimeout_veneer>
20000242:	b9e0      	cbnz	r0, 2000027e <mutex_enter_timeout_ms+0x72>
20000244:	6825      	ldr	r5, [r4, #0]
20000246:	f3ef 8110 	mrs	r1, PRIMASK
2000024a:	b672      	cpsid	i
2000024c:	e8d5 2fcf 	ldaexb	r2, [r5]
20000250:	2301      	movs	r3, #1
20000252:	2a00      	cmp	r2, #0
20000254:	d1fa      	bne.n	2000024c <mutex_enter_timeout_ms+0x40>
20000256:	e8c5 3f42 	strexb	r2, r3, [r5]
2000025a:	2a00      	cmp	r2, #0
2000025c:	d1f6      	bne.n	2000024c <mutex_enter_timeout_ms+0x40>
2000025e:	f3bf 8f5f 	dmb	sy
20000262:	6865      	ldr	r5, [r4, #4]
20000264:	3501      	adds	r5, #1
20000266:	d1e7      	bne.n	20000238 <mutex_enter_timeout_ms+0x2c>
20000268:	2300      	movs	r3, #0
2000026a:	6822      	ldr	r2, [r4, #0]
2000026c:	f8c4 8004 	str.w	r8, [r4, #4]
20000270:	e8c2 3f8f 	stlb	r3, [r2]
20000274:	f381 8810 	msr	PRIMASK, r1
20000278:	2001      	movs	r0, #1
2000027a:	e8bd 81f0 	ldmia.w	sp!, {r4, r5, r6, r7, r8, pc}
2000027e:	2000      	movs	r0, #0
20000280:	e8bd 81f0 	ldmia.w	sp!, {r4, r5, r6, r7, r8, pc}

20000284 <mutex_exit>:
20000284:	b500      	push	{lr}
20000286:	6802      	ldr	r2, [r0, #0]
20000288:	f3ef 8110 	mrs	r1, PRIMASK
2000028c:	b672      	cpsid	i
2000028e:	e8d2 efcf 	ldaexb	lr, [r2]
20000292:	f05f 0c01 	movs.w	ip, #1
20000296:	f1be 0f00 	cmp.w	lr, #0
2000029a:	d1f8      	bne.n	2000028e <mutex_exit+0xa>
2000029c:	e8c2 cf4e 	strexb	lr, ip, [r2]
200002a0:	f1be 0f00 	cmp.w	lr, #0
200002a4:	d1f3      	bne.n	2000028e <mutex_exit+0xa>
200002a6:	f3bf 8f5f 	dmb	sy
200002aa:	f04f 32ff 	mov.w	r2, #4294967295
200002ae:	f85d eb04 	ldr.w	lr, [sp], #4
200002b2:	6042      	str	r2, [r0, #4]
200002b4:	f000 bf54 	b.w	20001160 <__vPortLockInternalSpinUnlockWithNotify_veneer>

200002b8 <reset_non_control_endpoints>:
200002b8:	2100      	movs	r1, #0
200002ba:	b508      	push	{r3, lr}
200002bc:	4b13      	ldr	r3, [pc, #76]	; (2000030c <reset_non_control_endpoints+0x54>)
200002be:	f44f 7270 	mov.w	r2, #960	; 0x3c0
200002c2:	6099      	str	r1, [r3, #8]
200002c4:	4812      	ldr	r0, [pc, #72]	; (20000310 <reset_non_control_endpoints+0x58>)
200002c6:	60d9      	str	r1, [r3, #12]
200002c8:	6119      	str	r1, [r3, #16]
200002ca:	6159      	str	r1, [r3, #20]
200002cc:	6199      	str	r1, [r3, #24]
200002ce:	61d9      	str	r1, [r3, #28]
200002d0:	6219      	str	r1, [r3, #32]
200002d2:	6259      	str	r1, [r3, #36]	; 0x24
200002d4:	6299      	str	r1, [r3, #40]	; 0x28
200002d6:	62d9      	str	r1, [r3, #44]	; 0x2c
200002d8:	6319      	str	r1, [r3, #48]	; 0x30
200002da:	6359      	str	r1, [r3, #52]	; 0x34
200002dc:	6399      	str	r1, [r3, #56]	; 0x38
200002de:	63d9      	str	r1, [r3, #60]	; 0x3c
200002e0:	6419      	str	r1, [r3, #64]	; 0x40
200002e2:	6459      	str	r1, [r3, #68]	; 0x44
200002e4:	6499      	str	r1, [r3, #72]	; 0x48
200002e6:	64d9      	str	r1, [r3, #76]	; 0x4c
200002e8:	6519      	str	r1, [r3, #80]	; 0x50
200002ea:	6559      	str	r1, [r3, #84]	; 0x54
200002ec:	6599      	str	r1, [r3, #88]	; 0x58
200002ee:	65d9      	str	r1, [r3, #92]	; 0x5c
200002f0:	6619      	str	r1, [r3, #96]	; 0x60
200002f2:	6659      	str	r1, [r3, #100]	; 0x64
200002f4:	6699      	str	r1, [r3, #104]	; 0x68
200002f6:	66d9      	str	r1, [r3, #108]	; 0x6c
200002f8:	6719      	str	r1, [r3, #112]	; 0x70
200002fa:	6759      	str	r1, [r3, #116]	; 0x74
200002fc:	6799      	str	r1, [r3, #120]	; 0x78
200002fe:	67d9      	str	r1, [r3, #124]	; 0x7c
20000300:	f000 ff46 	bl	20001190 <__memset_veneer>
20000304:	4b03      	ldr	r3, [pc, #12]	; (20000314 <reset_non_control_endpoints+0x5c>)
20000306:	4a04      	ldr	r2, [pc, #16]	; (20000318 <reset_non_control_endpoints+0x60>)
20000308:	601a      	str	r2, [r3, #0]
2000030a:	bd08      	pop	{r3, pc}
2000030c:	50100000 	.word	0x50100000
20000310:	20001a94 	.word	0x20001a94
20000314:	20001e5c 	.word	0x20001e5c
20000318:	50100180 	.word	0x50100180

2000031c <hw_handle_buff_status>:
2000031c:	e92d 4ff0 	stmdb	sp!, {r4, r5, r6, r7, r8, r9, sl, fp, lr}
20000320:	4b23      	ldr	r3, [pc, #140]	; (200003b0 <hw_handle_buff_status+0x94>)
20000322:	b085      	sub	sp, #20
20000324:	f8d3 a058 	ldr.w	sl, [r3, #88]	; 0x58
20000328:	f1ba 0f00 	cmp.w	sl, #0
2000032c:	d025      	beq.n	2000037a <hw_handle_buff_status+0x5e>
2000032e:	2400      	movs	r4, #0
20000330:	2501      	movs	r5, #1
20000332:	f04f 0802 	mov.w	r8, #2
20000336:	4f1f      	ldr	r7, [pc, #124]	; (200003b4 <hw_handle_buff_status+0x98>)
20000338:	e003      	b.n	20000342 <hw_handle_buff_status+0x26>
2000033a:	006d      	lsls	r5, r5, #1
2000033c:	b2dc      	uxtb	r4, r3
2000033e:	2c20      	cmp	r4, #32
20000340:	d01b      	beq.n	2000037a <hw_handle_buff_status+0x5e>
20000342:	ea1a 0f05 	tst.w	sl, r5
20000346:	f104 0301 	add.w	r3, r4, #1
2000034a:	d0f6      	beq.n	2000033a <hw_handle_buff_status+0x1e>
2000034c:	43e6      	mvns	r6, r4
2000034e:	ea4f 0954 	mov.w	r9, r4, lsr #1
20000352:	f006 0601 	and.w	r6, r6, #1
20000356:	fb18 6b09 	smlabb	fp, r8, r9, r6
2000035a:	4b17      	ldr	r3, [pc, #92]	; (200003b8 <hw_handle_buff_status+0x9c>)
2000035c:	eb07 1b4b 	add.w	fp, r7, fp, lsl #5
20000360:	659d      	str	r5, [r3, #88]	; 0x58
20000362:	4658      	mov	r0, fp
20000364:	ea2a 0a05 	bic.w	sl, sl, r5
20000368:	006d      	lsls	r5, r5, #1
2000036a:	f000 fbfb 	bl	20000b64 <hw_endpoint_xfer_continue>
2000036e:	b938      	cbnz	r0, 20000380 <hw_handle_buff_status+0x64>
20000370:	3401      	adds	r4, #1
20000372:	b2e4      	uxtb	r4, r4
20000374:	f1ba 0f00 	cmp.w	sl, #0
20000378:	d1e1      	bne.n	2000033e <hw_handle_buff_status+0x22>
2000037a:	b005      	add	sp, #20
2000037c:	e8bd 8ff0 	ldmia.w	sp!, {r4, r5, r6, r7, r8, r9, sl, fp, pc}
20000380:	f44f 63e0 	mov.w	r3, #1792	; 0x700
20000384:	f8ad 3004 	strh.w	r3, [sp, #4]
20000388:	2300      	movs	r3, #0
2000038a:	eb06 0649 	add.w	r6, r6, r9, lsl #1
2000038e:	eb07 1646 	add.w	r6, r7, r6, lsl #5
20000392:	78b2      	ldrb	r2, [r6, #2]
20000394:	f88d 3009 	strb.w	r3, [sp, #9]
20000398:	8af3      	ldrh	r3, [r6, #22]
2000039a:	a801      	add	r0, sp, #4
2000039c:	2101      	movs	r1, #1
2000039e:	f88d 2008 	strb.w	r2, [sp, #8]
200003a2:	9303      	str	r3, [sp, #12]
200003a4:	f000 fbfe 	bl	20000ba4 <dcd_event_handler>
200003a8:	4658      	mov	r0, fp
200003aa:	f000 fb81 	bl	20000ab0 <hw_endpoint_reset_transfer>
200003ae:	e7df      	b.n	20000370 <hw_handle_buff_status+0x54>
200003b0:	50110000 	.word	0x50110000
200003b4:	20001a54 	.word	0x20001a54
200003b8:	50113000 	.word	0x50113000

200003bc <dcd_rp2040_irq>:
200003bc:	b570      	push	{r4, r5, r6, lr}
200003be:	4bb2      	ldr	r3, [pc, #712]	; (20000688 <dcd_rp2040_irq+0x2cc>)
200003c0:	b084      	sub	sp, #16
200003c2:	f8d3 5098 	ldr.w	r5, [r3, #152]	; 0x98
200003c6:	f415 3600 	ands.w	r6, r5, #131072	; 0x20000
200003ca:	d074      	beq.n	200004b6 <dcd_rp2040_irq+0xfa>
200003cc:	4baf      	ldr	r3, [pc, #700]	; (2000068c <dcd_rp2040_irq+0x2d0>)
200003ce:	4cb0      	ldr	r4, [pc, #704]	; (20000690 <dcd_rp2040_irq+0x2d4>)
200003d0:	6a99      	ldr	r1, [r3, #40]	; 0x28
200003d2:	f894 303b 	ldrb.w	r3, [r4, #59]	; 0x3b
200003d6:	4aaf      	ldr	r2, [pc, #700]	; (20000694 <dcd_rp2040_irq+0x2d8>)
200003d8:	2b02      	cmp	r3, #2
200003da:	6011      	str	r1, [r2, #0]
200003dc:	f000 80f9 	beq.w	200005d2 <dcd_rp2040_irq+0x216>
200003e0:	2600      	movs	r6, #0
200003e2:	f894 307b 	ldrb.w	r3, [r4, #123]	; 0x7b
200003e6:	2b02      	cmp	r3, #2
200003e8:	f000 81c8 	beq.w	2000077c <dcd_rp2040_irq+0x3c0>
200003ec:	f894 30bb 	ldrb.w	r3, [r4, #187]	; 0xbb
200003f0:	2b02      	cmp	r3, #2
200003f2:	f000 81b9 	beq.w	20000768 <dcd_rp2040_irq+0x3ac>
200003f6:	f894 30fb 	ldrb.w	r3, [r4, #251]	; 0xfb
200003fa:	2b02      	cmp	r3, #2
200003fc:	f000 81aa 	beq.w	20000754 <dcd_rp2040_irq+0x398>
20000400:	f894 313b 	ldrb.w	r3, [r4, #315]	; 0x13b
20000404:	2b02      	cmp	r3, #2
20000406:	f000 819a 	beq.w	2000073e <dcd_rp2040_irq+0x382>
2000040a:	f894 317b 	ldrb.w	r3, [r4, #379]	; 0x17b
2000040e:	2b02      	cmp	r3, #2
20000410:	f000 818a 	beq.w	20000728 <dcd_rp2040_irq+0x36c>
20000414:	f894 31bb 	ldrb.w	r3, [r4, #443]	; 0x1bb
20000418:	2b02      	cmp	r3, #2
2000041a:	f000 817a 	beq.w	20000712 <dcd_rp2040_irq+0x356>
2000041e:	f894 31fb 	ldrb.w	r3, [r4, #507]	; 0x1fb
20000422:	2b02      	cmp	r3, #2
20000424:	f000 816a 	beq.w	200006fc <dcd_rp2040_irq+0x340>
20000428:	f894 323b 	ldrb.w	r3, [r4, #571]	; 0x23b
2000042c:	2b02      	cmp	r3, #2
2000042e:	f000 8159 	beq.w	200006e4 <dcd_rp2040_irq+0x328>
20000432:	f894 327b 	ldrb.w	r3, [r4, #635]	; 0x27b
20000436:	2b02      	cmp	r3, #2
20000438:	f000 8148 	beq.w	200006cc <dcd_rp2040_irq+0x310>
2000043c:	f894 32bb 	ldrb.w	r3, [r4, #699]	; 0x2bb
20000440:	2b02      	cmp	r3, #2
20000442:	f000 8137 	beq.w	200006b4 <dcd_rp2040_irq+0x2f8>
20000446:	f894 32fb 	ldrb.w	r3, [r4, #763]	; 0x2fb
2000044a:	2b02      	cmp	r3, #2
2000044c:	f000 8110 	beq.w	20000670 <dcd_rp2040_irq+0x2b4>
20000450:	f894 333b 	ldrb.w	r3, [r4, #827]	; 0x33b
20000454:	2b02      	cmp	r3, #2
20000456:	f000 80ff 	beq.w	20000658 <dcd_rp2040_irq+0x29c>
2000045a:	f894 337b 	ldrb.w	r3, [r4, #891]	; 0x37b
2000045e:	2b02      	cmp	r3, #2
20000460:	f000 80ee 	beq.w	20000640 <dcd_rp2040_irq+0x284>
20000464:	f894 33bb 	ldrb.w	r3, [r4, #955]	; 0x3bb
20000468:	2b02      	cmp	r3, #2
2000046a:	f000 80d5 	beq.w	20000618 <dcd_rp2040_irq+0x25c>
2000046e:	f894 33fb 	ldrb.w	r3, [r4, #1019]	; 0x3fb
20000472:	2b02      	cmp	r3, #2
20000474:	f000 80bf 	beq.w	200005f6 <dcd_rp2040_irq+0x23a>
20000478:	b93e      	cbnz	r6, 2000048a <dcd_rp2040_irq+0xce>
2000047a:	4b87      	ldr	r3, [pc, #540]	; (20000698 <dcd_rp2040_irq+0x2dc>)
2000047c:	781b      	ldrb	r3, [r3, #0]
2000047e:	b923      	cbnz	r3, 2000048a <dcd_rp2040_irq+0xce>
20000480:	f44f 3200 	mov.w	r2, #131072	; 0x20000
20000484:	4b85      	ldr	r3, [pc, #532]	; (2000069c <dcd_rp2040_irq+0x2e0>)
20000486:	f8c3 2090 	str.w	r2, [r3, #144]	; 0x90
2000048a:	f44f 7240 	mov.w	r2, #768	; 0x300
2000048e:	4b7e      	ldr	r3, [pc, #504]	; (20000688 <dcd_rp2040_irq+0x2cc>)
20000490:	2101      	movs	r1, #1
20000492:	6c9b      	ldr	r3, [r3, #72]	; 0x48
20000494:	a801      	add	r0, sp, #4
20000496:	f3c3 030a 	ubfx	r3, r3, #0, #11
2000049a:	9302      	str	r3, [sp, #8]
2000049c:	f8ad 2004 	strh.w	r2, [sp, #4]
200004a0:	f000 fb80 	bl	20000ba4 <dcd_event_handler>
200004a4:	06e9      	lsls	r1, r5, #27
200004a6:	f44f 3600 	mov.w	r6, #131072	; 0x20000
200004aa:	4c7d      	ldr	r4, [pc, #500]	; (200006a0 <dcd_rp2040_irq+0x2e4>)
200004ac:	d507      	bpl.n	200004be <dcd_rp2040_irq+0x102>
200004ae:	f7ff ff35 	bl	2000031c <hw_handle_buff_status>
200004b2:	4626      	mov	r6, r4
200004b4:	e003      	b.n	200004be <dcd_rp2040_irq+0x102>
200004b6:	06e9      	lsls	r1, r5, #27
200004b8:	f04f 0410 	mov.w	r4, #16
200004bc:	d4f7      	bmi.n	200004ae <dcd_rp2040_irq+0xf2>
200004be:	03ea      	lsls	r2, r5, #15
200004c0:	d532      	bpl.n	20000528 <dcd_rp2040_irq+0x16c>
200004c2:	4c73      	ldr	r4, [pc, #460]	; (20000690 <dcd_rp2040_irq+0x2d4>)
200004c4:	f446 3680 	orr.w	r6, r6, #65536	; 0x10000
200004c8:	7ea3      	ldrb	r3, [r4, #26]
200004ca:	b19b      	cbz	r3, 200004f4 <dcd_rp2040_irq+0x138>
200004cc:	2102      	movs	r1, #2
200004ce:	4b75      	ldr	r3, [pc, #468]	; (200006a4 <dcd_rp2040_irq+0x2e8>)
200004d0:	4a6d      	ldr	r2, [pc, #436]	; (20000688 <dcd_rp2040_irq+0x2cc>)
200004d2:	6619      	str	r1, [r3, #96]	; 0x60
200004d4:	6e53      	ldr	r3, [r2, #100]	; 0x64
200004d6:	079b      	lsls	r3, r3, #30
200004d8:	d5fc      	bpl.n	200004d4 <dcd_rp2040_irq+0x118>
200004da:	f44f 5240 	mov.w	r2, #12288	; 0x3000
200004de:	2100      	movs	r1, #0
200004e0:	486b      	ldr	r0, [pc, #428]	; (20000690 <dcd_rp2040_irq+0x2d4>)
200004e2:	f000 faeb 	bl	20000abc <_hw_endpoint_buffer_control_update32>
200004e6:	486a      	ldr	r0, [pc, #424]	; (20000690 <dcd_rp2040_irq+0x2d4>)
200004e8:	f000 fae2 	bl	20000ab0 <hw_endpoint_reset_transfer>
200004ec:	2202      	movs	r2, #2
200004ee:	4b6b      	ldr	r3, [pc, #428]	; (2000069c <dcd_rp2040_irq+0x2e0>)
200004f0:	665a      	str	r2, [r3, #100]	; 0x64
200004f2:	661a      	str	r2, [r3, #96]	; 0x60
200004f4:	2301      	movs	r3, #1
200004f6:	f894 203a 	ldrb.w	r2, [r4, #58]	; 0x3a
200004fa:	70e3      	strb	r3, [r4, #3]
200004fc:	b9fa      	cbnz	r2, 2000053e <dcd_rp2040_irq+0x182>
200004fe:	2301      	movs	r3, #1
20000500:	f44f 61c0 	mov.w	r1, #1536	; 0x600
20000504:	4a68      	ldr	r2, [pc, #416]	; (200006a8 <dcd_rp2040_irq+0x2ec>)
20000506:	f884 3023 	strb.w	r3, [r4, #35]	; 0x23
2000050a:	f8ad 1004 	strh.w	r1, [sp, #4]
2000050e:	e892 0003 	ldmia.w	r2, {r0, r1}
20000512:	aa04      	add	r2, sp, #16
20000514:	e902 0003 	stmdb	r2, {r0, r1}
20000518:	4619      	mov	r1, r3
2000051a:	a801      	add	r0, sp, #4
2000051c:	f000 fb42 	bl	20000ba4 <dcd_event_handler>
20000520:	f44f 3200 	mov.w	r2, #131072	; 0x20000
20000524:	4b5d      	ldr	r3, [pc, #372]	; (2000069c <dcd_rp2040_irq+0x2e0>)
20000526:	651a      	str	r2, [r3, #80]	; 0x50
20000528:	04e9      	lsls	r1, r5, #19
2000052a:	d41d      	bmi.n	20000568 <dcd_rp2040_irq+0x1ac>
2000052c:	046a      	lsls	r2, r5, #17
2000052e:	d432      	bmi.n	20000596 <dcd_rp2040_irq+0x1da>
20000530:	042b      	lsls	r3, r5, #16
20000532:	d43f      	bmi.n	200005b4 <dcd_rp2040_irq+0x1f8>
20000534:	42ae      	cmp	r6, r5
20000536:	f040 819a 	bne.w	2000086e <dcd_rp2040_irq+0x4b2>
2000053a:	b004      	add	sp, #16
2000053c:	bd70      	pop	{r4, r5, r6, pc}
2000053e:	4a59      	ldr	r2, [pc, #356]	; (200006a4 <dcd_rp2040_irq+0x2e8>)
20000540:	6613      	str	r3, [r2, #96]	; 0x60
20000542:	f5a2 5200 	sub.w	r2, r2, #8192	; 0x2000
20000546:	6e53      	ldr	r3, [r2, #100]	; 0x64
20000548:	07d8      	lsls	r0, r3, #31
2000054a:	d5fc      	bpl.n	20000546 <dcd_rp2040_irq+0x18a>
2000054c:	f44f 5240 	mov.w	r2, #12288	; 0x3000
20000550:	2100      	movs	r1, #0
20000552:	4856      	ldr	r0, [pc, #344]	; (200006ac <dcd_rp2040_irq+0x2f0>)
20000554:	f000 fab2 	bl	20000abc <_hw_endpoint_buffer_control_update32>
20000558:	4854      	ldr	r0, [pc, #336]	; (200006ac <dcd_rp2040_irq+0x2f0>)
2000055a:	f000 faa9 	bl	20000ab0 <hw_endpoint_reset_transfer>
2000055e:	2201      	movs	r2, #1
20000560:	4b4e      	ldr	r3, [pc, #312]	; (2000069c <dcd_rp2040_irq+0x2e0>)
20000562:	665a      	str	r2, [r3, #100]	; 0x64
20000564:	661a      	str	r2, [r3, #96]	; 0x60
20000566:	e7ca      	b.n	200004fe <dcd_rp2040_irq+0x142>
20000568:	2400      	movs	r4, #0
2000056a:	4b47      	ldr	r3, [pc, #284]	; (20000688 <dcd_rp2040_irq+0x2cc>)
2000056c:	f446 5680 	orr.w	r6, r6, #4096	; 0x1000
20000570:	601c      	str	r4, [r3, #0]
20000572:	f7ff fea1 	bl	200002b8 <reset_non_control_endpoints>
20000576:	f44f 7380 	mov.w	r3, #256	; 0x100
2000057a:	2101      	movs	r1, #1
2000057c:	a801      	add	r0, sp, #4
2000057e:	f8ad 3004 	strh.w	r3, [sp, #4]
20000582:	f88d 4008 	strb.w	r4, [sp, #8]
20000586:	f000 fb0d 	bl	20000ba4 <dcd_event_handler>
2000058a:	f44f 2200 	mov.w	r2, #524288	; 0x80000
2000058e:	4b43      	ldr	r3, [pc, #268]	; (2000069c <dcd_rp2040_irq+0x2e0>)
20000590:	651a      	str	r2, [r3, #80]	; 0x50
20000592:	046a      	lsls	r2, r5, #17
20000594:	d5cc      	bpl.n	20000530 <dcd_rp2040_irq+0x174>
20000596:	f44f 6380 	mov.w	r3, #1024	; 0x400
2000059a:	2101      	movs	r1, #1
2000059c:	a801      	add	r0, sp, #4
2000059e:	f8ad 3004 	strh.w	r3, [sp, #4]
200005a2:	f000 faff 	bl	20000ba4 <dcd_event_handler>
200005a6:	2210      	movs	r2, #16
200005a8:	4b3c      	ldr	r3, [pc, #240]	; (2000069c <dcd_rp2040_irq+0x2e0>)
200005aa:	f446 4680 	orr.w	r6, r6, #16384	; 0x4000
200005ae:	651a      	str	r2, [r3, #80]	; 0x50
200005b0:	042b      	lsls	r3, r5, #16
200005b2:	d5bf      	bpl.n	20000534 <dcd_rp2040_irq+0x178>
200005b4:	f44f 63a0 	mov.w	r3, #1280	; 0x500
200005b8:	2101      	movs	r1, #1
200005ba:	a801      	add	r0, sp, #4
200005bc:	f8ad 3004 	strh.w	r3, [sp, #4]
200005c0:	f000 faf0 	bl	20000ba4 <dcd_event_handler>
200005c4:	f44f 6200 	mov.w	r2, #2048	; 0x800
200005c8:	4b34      	ldr	r3, [pc, #208]	; (2000069c <dcd_rp2040_irq+0x2e0>)
200005ca:	f446 4600 	orr.w	r6, r6, #32768	; 0x8000
200005ce:	651a      	str	r2, [r3, #80]	; 0x50
200005d0:	e7b0      	b.n	20000534 <dcd_rp2040_irq+0x178>
200005d2:	f894 603a 	ldrb.w	r6, [r4, #58]	; 0x3a
200005d6:	2e00      	cmp	r6, #0
200005d8:	f43f af03 	beq.w	200003e2 <dcd_rp2040_irq+0x26>
200005dc:	f894 303c 	ldrb.w	r3, [r4, #60]	; 0x3c
200005e0:	2b00      	cmp	r3, #0
200005e2:	f43f aefe 	beq.w	200003e2 <dcd_rp2040_irq+0x26>
200005e6:	2300      	movs	r3, #0
200005e8:	f104 0020 	add.w	r0, r4, #32
200005ec:	f884 303c 	strb.w	r3, [r4, #60]	; 0x3c
200005f0:	f000 fa86 	bl	20000b00 <hw_endpoint_start_next_buffer>
200005f4:	e6f5      	b.n	200003e2 <dcd_rp2040_irq+0x26>
200005f6:	f894 33fa 	ldrb.w	r3, [r4, #1018]	; 0x3fa
200005fa:	2b00      	cmp	r3, #0
200005fc:	f43f af3c 	beq.w	20000478 <dcd_rp2040_irq+0xbc>
20000600:	f894 33fc 	ldrb.w	r3, [r4, #1020]	; 0x3fc
20000604:	2b00      	cmp	r3, #0
20000606:	f43f af40 	beq.w	2000048a <dcd_rp2040_irq+0xce>
2000060a:	2300      	movs	r3, #0
2000060c:	4828      	ldr	r0, [pc, #160]	; (200006b0 <dcd_rp2040_irq+0x2f4>)
2000060e:	f884 33fc 	strb.w	r3, [r4, #1020]	; 0x3fc
20000612:	f000 fa75 	bl	20000b00 <hw_endpoint_start_next_buffer>
20000616:	e738      	b.n	2000048a <dcd_rp2040_irq+0xce>
20000618:	f894 33ba 	ldrb.w	r3, [r4, #954]	; 0x3ba
2000061c:	2b00      	cmp	r3, #0
2000061e:	f43f af26 	beq.w	2000046e <dcd_rp2040_irq+0xb2>
20000622:	f894 33bc 	ldrb.w	r3, [r4, #956]	; 0x3bc
20000626:	2b00      	cmp	r3, #0
20000628:	f040 80b2 	bne.w	20000790 <dcd_rp2040_irq+0x3d4>
2000062c:	f894 33fb 	ldrb.w	r3, [r4, #1019]	; 0x3fb
20000630:	2b02      	cmp	r3, #2
20000632:	f47f af2a 	bne.w	2000048a <dcd_rp2040_irq+0xce>
20000636:	f894 33fa 	ldrb.w	r3, [r4, #1018]	; 0x3fa
2000063a:	2b00      	cmp	r3, #0
2000063c:	d1e0      	bne.n	20000600 <dcd_rp2040_irq+0x244>
2000063e:	e724      	b.n	2000048a <dcd_rp2040_irq+0xce>
20000640:	f894 337a 	ldrb.w	r3, [r4, #890]	; 0x37a
20000644:	2b00      	cmp	r3, #0
20000646:	f43f af0d 	beq.w	20000464 <dcd_rp2040_irq+0xa8>
2000064a:	f894 237c 	ldrb.w	r2, [r4, #892]	; 0x37c
2000064e:	2a00      	cmp	r2, #0
20000650:	f040 8105 	bne.w	2000085e <dcd_rp2040_irq+0x4a2>
20000654:	461e      	mov	r6, r3
20000656:	e705      	b.n	20000464 <dcd_rp2040_irq+0xa8>
20000658:	f894 333a 	ldrb.w	r3, [r4, #826]	; 0x33a
2000065c:	2b00      	cmp	r3, #0
2000065e:	f43f aefc 	beq.w	2000045a <dcd_rp2040_irq+0x9e>
20000662:	f894 233c 	ldrb.w	r2, [r4, #828]	; 0x33c
20000666:	2a00      	cmp	r2, #0
20000668:	f040 80f1 	bne.w	2000084e <dcd_rp2040_irq+0x492>
2000066c:	461e      	mov	r6, r3
2000066e:	e6f4      	b.n	2000045a <dcd_rp2040_irq+0x9e>
20000670:	f894 32fa 	ldrb.w	r3, [r4, #762]	; 0x2fa
20000674:	2b00      	cmp	r3, #0
20000676:	f43f aeeb 	beq.w	20000450 <dcd_rp2040_irq+0x94>
2000067a:	f894 22fc 	ldrb.w	r2, [r4, #764]	; 0x2fc
2000067e:	2a00      	cmp	r2, #0
20000680:	f040 80dd 	bne.w	2000083e <dcd_rp2040_irq+0x482>
20000684:	461e      	mov	r6, r3
20000686:	e6e3      	b.n	20000450 <dcd_rp2040_irq+0x94>
20000688:	50110000 	.word	0x50110000
2000068c:	400b0000 	.word	0x400b0000
20000690:	20001a54 	.word	0x20001a54
20000694:	20001a4c 	.word	0x20001a4c
20000698:	20006021 	.word	0x20006021
2000069c:	50113000 	.word	0x50113000
200006a0:	00020010 	.word	0x00020010
200006a4:	50112000 	.word	0x50112000
200006a8:	50100000 	.word	0x50100000
200006ac:	20001a74 	.word	0x20001a74
200006b0:	20001e34 	.word	0x20001e34
200006b4:	f894 32ba 	ldrb.w	r3, [r4, #698]	; 0x2ba
200006b8:	2b00      	cmp	r3, #0
200006ba:	f43f aec4 	beq.w	20000446 <dcd_rp2040_irq+0x8a>
200006be:	f894 22bc 	ldrb.w	r2, [r4, #700]	; 0x2bc
200006c2:	2a00      	cmp	r2, #0
200006c4:	f040 80b3 	bne.w	2000082e <dcd_rp2040_irq+0x472>
200006c8:	461e      	mov	r6, r3
200006ca:	e6bc      	b.n	20000446 <dcd_rp2040_irq+0x8a>
200006cc:	f894 327a 	ldrb.w	r3, [r4, #634]	; 0x27a
200006d0:	2b00      	cmp	r3, #0
200006d2:	f43f aeb3 	beq.w	2000043c <dcd_rp2040_irq+0x80>
200006d6:	f894 227c 	ldrb.w	r2, [r4, #636]	; 0x27c
200006da:	2a00      	cmp	r2, #0
200006dc:	f040 809f 	bne.w	2000081e <dcd_rp2040_irq+0x462>
200006e0:	461e      	mov	r6, r3
200006e2:	e6ab      	b.n	2000043c <dcd_rp2040_irq+0x80>
200006e4:	f894 323a 	ldrb.w	r3, [r4, #570]	; 0x23a
200006e8:	2b00      	cmp	r3, #0
200006ea:	f43f aea2 	beq.w	20000432 <dcd_rp2040_irq+0x76>
200006ee:	f894 223c 	ldrb.w	r2, [r4, #572]	; 0x23c
200006f2:	2a00      	cmp	r2, #0
200006f4:	f040 808b 	bne.w	2000080e <dcd_rp2040_irq+0x452>
200006f8:	461e      	mov	r6, r3
200006fa:	e69a      	b.n	20000432 <dcd_rp2040_irq+0x76>
200006fc:	f894 31fa 	ldrb.w	r3, [r4, #506]	; 0x1fa
20000700:	2b00      	cmp	r3, #0
20000702:	f43f ae91 	beq.w	20000428 <dcd_rp2040_irq+0x6c>
20000706:	f894 21fc 	ldrb.w	r2, [r4, #508]	; 0x1fc
2000070a:	2a00      	cmp	r2, #0
2000070c:	d177      	bne.n	200007fe <dcd_rp2040_irq+0x442>
2000070e:	461e      	mov	r6, r3
20000710:	e68a      	b.n	20000428 <dcd_rp2040_irq+0x6c>
20000712:	f894 31ba 	ldrb.w	r3, [r4, #442]	; 0x1ba
20000716:	2b00      	cmp	r3, #0
20000718:	f43f ae81 	beq.w	2000041e <dcd_rp2040_irq+0x62>
2000071c:	f894 21bc 	ldrb.w	r2, [r4, #444]	; 0x1bc
20000720:	2a00      	cmp	r2, #0
20000722:	d164      	bne.n	200007ee <dcd_rp2040_irq+0x432>
20000724:	461e      	mov	r6, r3
20000726:	e67a      	b.n	2000041e <dcd_rp2040_irq+0x62>
20000728:	f894 317a 	ldrb.w	r3, [r4, #378]	; 0x17a
2000072c:	2b00      	cmp	r3, #0
2000072e:	f43f ae71 	beq.w	20000414 <dcd_rp2040_irq+0x58>
20000732:	f894 217c 	ldrb.w	r2, [r4, #380]	; 0x17c
20000736:	2a00      	cmp	r2, #0
20000738:	d151      	bne.n	200007de <dcd_rp2040_irq+0x422>
2000073a:	461e      	mov	r6, r3
2000073c:	e66a      	b.n	20000414 <dcd_rp2040_irq+0x58>
2000073e:	f894 313a 	ldrb.w	r3, [r4, #314]	; 0x13a
20000742:	2b00      	cmp	r3, #0
20000744:	f43f ae61 	beq.w	2000040a <dcd_rp2040_irq+0x4e>
20000748:	f894 213c 	ldrb.w	r2, [r4, #316]	; 0x13c
2000074c:	2a00      	cmp	r2, #0
2000074e:	d13e      	bne.n	200007ce <dcd_rp2040_irq+0x412>
20000750:	461e      	mov	r6, r3
20000752:	e65a      	b.n	2000040a <dcd_rp2040_irq+0x4e>
20000754:	f894 30fa 	ldrb.w	r3, [r4, #250]	; 0xfa
20000758:	2b00      	cmp	r3, #0
2000075a:	f43f ae51 	beq.w	20000400 <dcd_rp2040_irq+0x44>
2000075e:	f894 20fc 	ldrb.w	r2, [r4, #252]	; 0xfc
20000762:	bb62      	cbnz	r2, 200007be <dcd_rp2040_irq+0x402>
20000764:	461e      	mov	r6, r3
20000766:	e64b      	b.n	20000400 <dcd_rp2040_irq+0x44>
20000768:	f894 30ba 	ldrb.w	r3, [r4, #186]	; 0xba
2000076c:	2b00      	cmp	r3, #0
2000076e:	f43f ae42 	beq.w	200003f6 <dcd_rp2040_irq+0x3a>
20000772:	f894 20bc 	ldrb.w	r2, [r4, #188]	; 0xbc
20000776:	b9d2      	cbnz	r2, 200007ae <dcd_rp2040_irq+0x3f2>
20000778:	461e      	mov	r6, r3
2000077a:	e63c      	b.n	200003f6 <dcd_rp2040_irq+0x3a>
2000077c:	f894 307a 	ldrb.w	r3, [r4, #122]	; 0x7a
20000780:	2b00      	cmp	r3, #0
20000782:	f43f ae33 	beq.w	200003ec <dcd_rp2040_irq+0x30>
20000786:	f894 207c 	ldrb.w	r2, [r4, #124]	; 0x7c
2000078a:	b942      	cbnz	r2, 2000079e <dcd_rp2040_irq+0x3e2>
2000078c:	461e      	mov	r6, r3
2000078e:	e62d      	b.n	200003ec <dcd_rp2040_irq+0x30>
20000790:	2300      	movs	r3, #0
20000792:	4839      	ldr	r0, [pc, #228]	; (20000878 <dcd_rp2040_irq+0x4bc>)
20000794:	f884 33bc 	strb.w	r3, [r4, #956]	; 0x3bc
20000798:	f000 f9b2 	bl	20000b00 <hw_endpoint_start_next_buffer>
2000079c:	e746      	b.n	2000062c <dcd_rp2040_irq+0x270>
2000079e:	2200      	movs	r2, #0
200007a0:	4836      	ldr	r0, [pc, #216]	; (2000087c <dcd_rp2040_irq+0x4c0>)
200007a2:	f884 207c 	strb.w	r2, [r4, #124]	; 0x7c
200007a6:	461e      	mov	r6, r3
200007a8:	f000 f9aa 	bl	20000b00 <hw_endpoint_start_next_buffer>
200007ac:	e61e      	b.n	200003ec <dcd_rp2040_irq+0x30>
200007ae:	2200      	movs	r2, #0
200007b0:	4833      	ldr	r0, [pc, #204]	; (20000880 <dcd_rp2040_irq+0x4c4>)
200007b2:	f884 20bc 	strb.w	r2, [r4, #188]	; 0xbc
200007b6:	461e      	mov	r6, r3
200007b8:	f000 f9a2 	bl	20000b00 <hw_endpoint_start_next_buffer>
200007bc:	e61b      	b.n	200003f6 <dcd_rp2040_irq+0x3a>
200007be:	2200      	movs	r2, #0
200007c0:	4830      	ldr	r0, [pc, #192]	; (20000884 <dcd_rp2040_irq+0x4c8>)
200007c2:	f884 20fc 	strb.w	r2, [r4, #252]	; 0xfc
200007c6:	461e      	mov	r6, r3
200007c8:	f000 f99a 	bl	20000b00 <hw_endpoint_start_next_buffer>
200007cc:	e618      	b.n	20000400 <dcd_rp2040_irq+0x44>
200007ce:	2200      	movs	r2, #0
200007d0:	482d      	ldr	r0, [pc, #180]	; (20000888 <dcd_rp2040_irq+0x4cc>)
200007d2:	f884 213c 	strb.w	r2, [r4, #316]	; 0x13c
200007d6:	461e      	mov	r6, r3
200007d8:	f000 f992 	bl	20000b00 <hw_endpoint_start_next_buffer>
200007dc:	e615      	b.n	2000040a <dcd_rp2040_irq+0x4e>
200007de:	2200      	movs	r2, #0
200007e0:	482a      	ldr	r0, [pc, #168]	; (2000088c <dcd_rp2040_irq+0x4d0>)
200007e2:	f884 217c 	strb.w	r2, [r4, #380]	; 0x17c
200007e6:	461e      	mov	r6, r3
200007e8:	f000 f98a 	bl	20000b00 <hw_endpoint_start_next_buffer>
200007ec:	e612      	b.n	20000414 <dcd_rp2040_irq+0x58>
200007ee:	2200      	movs	r2, #0
200007f0:	4827      	ldr	r0, [pc, #156]	; (20000890 <dcd_rp2040_irq+0x4d4>)
200007f2:	f884 21bc 	strb.w	r2, [r4, #444]	; 0x1bc
200007f6:	461e      	mov	r6, r3
200007f8:	f000 f982 	bl	20000b00 <hw_endpoint_start_next_buffer>
200007fc:	e60f      	b.n	2000041e <dcd_rp2040_irq+0x62>
200007fe:	2200      	movs	r2, #0
20000800:	4824      	ldr	r0, [pc, #144]	; (20000894 <dcd_rp2040_irq+0x4d8>)
20000802:	f884 21fc 	strb.w	r2, [r4, #508]	; 0x1fc
20000806:	461e      	mov	r6, r3
20000808:	f000 f97a 	bl	20000b00 <hw_endpoint_start_next_buffer>
2000080c:	e60c      	b.n	20000428 <dcd_rp2040_irq+0x6c>
2000080e:	2200      	movs	r2, #0
20000810:	4821      	ldr	r0, [pc, #132]	; (20000898 <dcd_rp2040_irq+0x4dc>)
20000812:	f884 223c 	strb.w	r2, [r4, #572]	; 0x23c
20000816:	461e      	mov	r6, r3
20000818:	f000 f972 	bl	20000b00 <hw_endpoint_start_next_buffer>
2000081c:	e609      	b.n	20000432 <dcd_rp2040_irq+0x76>
2000081e:	2200      	movs	r2, #0
20000820:	481e      	ldr	r0, [pc, #120]	; (2000089c <dcd_rp2040_irq+0x4e0>)
20000822:	f884 227c 	strb.w	r2, [r4, #636]	; 0x27c
20000826:	461e      	mov	r6, r3
20000828:	f000 f96a 	bl	20000b00 <hw_endpoint_start_next_buffer>
2000082c:	e606      	b.n	2000043c <dcd_rp2040_irq+0x80>
2000082e:	2200      	movs	r2, #0
20000830:	481b      	ldr	r0, [pc, #108]	; (200008a0 <dcd_rp2040_irq+0x4e4>)
20000832:	f884 22bc 	strb.w	r2, [r4, #700]	; 0x2bc
20000836:	461e      	mov	r6, r3
20000838:	f000 f962 	bl	20000b00 <hw_endpoint_start_next_buffer>
2000083c:	e603      	b.n	20000446 <dcd_rp2040_irq+0x8a>
2000083e:	2200      	movs	r2, #0
20000840:	4818      	ldr	r0, [pc, #96]	; (200008a4 <dcd_rp2040_irq+0x4e8>)
20000842:	f884 22fc 	strb.w	r2, [r4, #764]	; 0x2fc
20000846:	461e      	mov	r6, r3
20000848:	f000 f95a 	bl	20000b00 <hw_endpoint_start_next_buffer>
2000084c:	e600      	b.n	20000450 <dcd_rp2040_irq+0x94>
2000084e:	2200      	movs	r2, #0
20000850:	4815      	ldr	r0, [pc, #84]	; (200008a8 <dcd_rp2040_irq+0x4ec>)
20000852:	f884 233c 	strb.w	r2, [r4, #828]	; 0x33c
20000856:	461e      	mov	r6, r3
20000858:	f000 f952 	bl	20000b00 <hw_endpoint_start_next_buffer>
2000085c:	e5fd      	b.n	2000045a <dcd_rp2040_irq+0x9e>
2000085e:	2200      	movs	r2, #0
20000860:	4812      	ldr	r0, [pc, #72]	; (200008ac <dcd_rp2040_irq+0x4f0>)
20000862:	f884 237c 	strb.w	r2, [r4, #892]	; 0x37c
20000866:	461e      	mov	r6, r3
20000868:	f000 f94a 	bl	20000b00 <hw_endpoint_start_next_buffer>
2000086c:	e5fa      	b.n	20000464 <dcd_rp2040_irq+0xa8>
2000086e:	4810      	ldr	r0, [pc, #64]	; (200008b0 <dcd_rp2040_irq+0x4f4>)
20000870:	ea86 0105 	eor.w	r1, r6, r5
20000874:	f000 fc6c 	bl	20001150 <__panic_veneer>
20000878:	20001df4 	.word	0x20001df4
2000087c:	20001ab4 	.word	0x20001ab4
20000880:	20001af4 	.word	0x20001af4
20000884:	20001b34 	.word	0x20001b34
20000888:	20001b74 	.word	0x20001b74
2000088c:	20001bb4 	.word	0x20001bb4
20000890:	20001bf4 	.word	0x20001bf4
20000894:	20001c34 	.word	0x20001c34
20000898:	20001c74 	.word	0x20001c74
2000089c:	20001cb4 	.word	0x20001cb4
200008a0:	20001cf4 	.word	0x20001cf4
200008a4:	20001d34 	.word	0x20001d34
200008a8:	20001d74 	.word	0x20001d74
200008ac:	20001db4 	.word	0x20001db4
200008b0:	10006d54 	.word	0x10006d54

200008b4 <prepare_ep_buffer>:
200008b4:	8a82      	ldrh	r2, [r0, #20]
200008b6:	e92d 43f0 	stmdb	sp!, {r4, r5, r6, r7, r8, r9, lr}
200008ba:	8b04      	ldrh	r4, [r0, #24]
200008bc:	78c3      	ldrb	r3, [r0, #3]
200008be:	4294      	cmp	r4, r2
200008c0:	bf28      	it	cs
200008c2:	4614      	movcs	r4, r2
200008c4:	1b12      	subs	r2, r2, r4
200008c6:	b292      	uxth	r2, r2
200008c8:	8282      	strh	r2, [r0, #20]
200008ca:	2b00      	cmp	r3, #0
200008cc:	d046      	beq.n	2000095c <prepare_ep_buffer+0xa8>
200008ce:	f444 5610 	orr.w	r6, r4, #9216	; 0x2400
200008d2:	f083 0301 	eor.w	r3, r3, #1
200008d6:	70c3      	strb	r3, [r0, #3]
200008d8:	7843      	ldrb	r3, [r0, #1]
200008da:	4635      	mov	r5, r6
200008dc:	bbb3      	cbnz	r3, 2000094c <prepare_ep_buffer+0x98>
200008de:	68c5      	ldr	r5, [r0, #12]
200008e0:	f104 39ff 	add.w	r9, r4, #4294967295
200008e4:	eb05 1881 	add.w	r8, r5, r1, lsl #6
200008e8:	6905      	ldr	r5, [r0, #16]
200008ea:	b35c      	cbz	r4, 20000944 <prepare_ep_buffer+0x90>
200008ec:	1c6a      	adds	r2, r5, #1
200008ee:	eba8 0702 	sub.w	r7, r8, r2
200008f2:	2f02      	cmp	r7, #2
200008f4:	d935      	bls.n	20000962 <prepare_ep_buffer+0xae>
200008f6:	f1b9 0f07 	cmp.w	r9, #7
200008fa:	d932      	bls.n	20000962 <prepare_ep_buffer+0xae>
200008fc:	46ae      	mov	lr, r5
200008fe:	46c4      	mov	ip, r8
20000900:	1f22      	subs	r2, r4, #4
20000902:	0892      	lsrs	r2, r2, #2
20000904:	3201      	adds	r2, #1
20000906:	f85e 7b04 	ldr.w	r7, [lr], #4
2000090a:	3301      	adds	r3, #1
2000090c:	429a      	cmp	r2, r3
2000090e:	f84c 7b04 	str.w	r7, [ip], #4
20000912:	d8f8      	bhi.n	20000906 <prepare_ep_buffer+0x52>
20000914:	ebb4 0f82 	cmp.w	r4, r2, lsl #2
20000918:	eba9 0382 	sub.w	r3, r9, r2, lsl #2
2000091c:	eb05 0c82 	add.w	ip, r5, r2, lsl #2
20000920:	eb08 0782 	add.w	r7, r8, r2, lsl #2
20000924:	d00c      	beq.n	20000940 <prepare_ep_buffer+0x8c>
20000926:	f815 5022 	ldrb.w	r5, [r5, r2, lsl #2]
2000092a:	f808 5022 	strb.w	r5, [r8, r2, lsl #2]
2000092e:	b13b      	cbz	r3, 20000940 <prepare_ep_buffer+0x8c>
20000930:	f89c 2001 	ldrb.w	r2, [ip, #1]
20000934:	2b01      	cmp	r3, #1
20000936:	707a      	strb	r2, [r7, #1]
20000938:	d002      	beq.n	20000940 <prepare_ep_buffer+0x8c>
2000093a:	f89c 3002 	ldrb.w	r3, [ip, #2]
2000093e:	70bb      	strb	r3, [r7, #2]
20000940:	6905      	ldr	r5, [r0, #16]
20000942:	8a82      	ldrh	r2, [r0, #20]
20000944:	442c      	add	r4, r5
20000946:	6104      	str	r4, [r0, #16]
20000948:	f446 4500 	orr.w	r5, r6, #32768	; 0x8000
2000094c:	b90a      	cbnz	r2, 20000952 <prepare_ep_buffer+0x9e>
2000094e:	f445 4580 	orr.w	r5, r5, #16384	; 0x4000
20000952:	b101      	cbz	r1, 20000956 <prepare_ep_buffer+0xa2>
20000954:	042d      	lsls	r5, r5, #16
20000956:	4628      	mov	r0, r5
20000958:	e8bd 83f0 	ldmia.w	sp!, {r4, r5, r6, r7, r8, r9, pc}
2000095c:	f444 6680 	orr.w	r6, r4, #1024	; 0x400
20000960:	e7b7      	b.n	200008d2 <prepare_ep_buffer+0x1e>
20000962:	f108 38ff 	add.w	r8, r8, #4294967295
20000966:	4425      	add	r5, r4
20000968:	e000      	b.n	2000096c <prepare_ep_buffer+0xb8>
2000096a:	3201      	adds	r2, #1
2000096c:	f812 3c01 	ldrb.w	r3, [r2, #-1]
20000970:	42aa      	cmp	r2, r5
20000972:	f808 3f01 	strb.w	r3, [r8, #1]!
20000976:	d1f8      	bne.n	2000096a <prepare_ep_buffer+0xb6>
20000978:	e7e2      	b.n	20000940 <prepare_ep_buffer+0x8c>
2000097a:	bf00      	nop

2000097c <sync_ep_buffer>:
2000097c:	6883      	ldr	r3, [r0, #8]
2000097e:	681b      	ldr	r3, [r3, #0]
20000980:	b101      	cbz	r1, 20000984 <sync_ep_buffer+0x8>
20000982:	0c1b      	lsrs	r3, r3, #16
20000984:	7842      	ldrb	r2, [r0, #1]
20000986:	f3c3 0309 	ubfx	r3, r3, #0, #10
2000098a:	2a00      	cmp	r2, #0
2000098c:	d03f      	beq.n	20000a0e <sync_ep_buffer+0x92>
2000098e:	b5f0      	push	{r4, r5, r6, r7, lr}
20000990:	e9d0 2403 	ldrd	r2, r4, [r0, #12]
20000994:	018d      	lsls	r5, r1, #6
20000996:	1e5f      	subs	r7, r3, #1
20000998:	eb02 1181 	add.w	r1, r2, r1, lsl #6
2000099c:	b35b      	cbz	r3, 200009f6 <sync_ep_buffer+0x7a>
2000099e:	3501      	adds	r5, #1
200009a0:	442a      	add	r2, r5
200009a2:	1aa2      	subs	r2, r4, r2
200009a4:	2a02      	cmp	r2, #2
200009a6:	d93c      	bls.n	20000a22 <sync_ep_buffer+0xa6>
200009a8:	2f07      	cmp	r7, #7
200009aa:	d93a      	bls.n	20000a22 <sync_ep_buffer+0xa6>
200009ac:	460d      	mov	r5, r1
200009ae:	46a6      	mov	lr, r4
200009b0:	2200      	movs	r2, #0
200009b2:	f1a3 0c04 	sub.w	ip, r3, #4
200009b6:	ea4f 0c9c 	mov.w	ip, ip, lsr #2
200009ba:	f10c 0c01 	add.w	ip, ip, #1
200009be:	f855 6b04 	ldr.w	r6, [r5], #4
200009c2:	3201      	adds	r2, #1
200009c4:	4594      	cmp	ip, r2
200009c6:	f84e 6b04 	str.w	r6, [lr], #4
200009ca:	d8f8      	bhi.n	200009be <sync_ep_buffer+0x42>
200009cc:	ebb3 0f8c 	cmp.w	r3, ip, lsl #2
200009d0:	eba7 078c 	sub.w	r7, r7, ip, lsl #2
200009d4:	eb01 058c 	add.w	r5, r1, ip, lsl #2
200009d8:	eb04 028c 	add.w	r2, r4, ip, lsl #2
200009dc:	d00a      	beq.n	200009f4 <sync_ep_buffer+0x78>
200009de:	f811 102c 	ldrb.w	r1, [r1, ip, lsl #2]
200009e2:	f804 102c 	strb.w	r1, [r4, ip, lsl #2]
200009e6:	b12f      	cbz	r7, 200009f4 <sync_ep_buffer+0x78>
200009e8:	7869      	ldrb	r1, [r5, #1]
200009ea:	2f01      	cmp	r7, #1
200009ec:	7051      	strb	r1, [r2, #1]
200009ee:	d001      	beq.n	200009f4 <sync_ep_buffer+0x78>
200009f0:	78a9      	ldrb	r1, [r5, #2]
200009f2:	7091      	strb	r1, [r2, #2]
200009f4:	6904      	ldr	r4, [r0, #16]
200009f6:	8ac2      	ldrh	r2, [r0, #22]
200009f8:	441c      	add	r4, r3
200009fa:	441a      	add	r2, r3
200009fc:	82c2      	strh	r2, [r0, #22]
200009fe:	8b02      	ldrh	r2, [r0, #24]
20000a00:	6104      	str	r4, [r0, #16]
20000a02:	429a      	cmp	r2, r3
20000a04:	bf84      	itt	hi
20000a06:	2200      	movhi	r2, #0
20000a08:	8282      	strhhi	r2, [r0, #20]
20000a0a:	4618      	mov	r0, r3
20000a0c:	bdf0      	pop	{r4, r5, r6, r7, pc}
20000a0e:	8ac2      	ldrh	r2, [r0, #22]
20000a10:	441a      	add	r2, r3
20000a12:	82c2      	strh	r2, [r0, #22]
20000a14:	8b02      	ldrh	r2, [r0, #24]
20000a16:	429a      	cmp	r2, r3
20000a18:	bf84      	itt	hi
20000a1a:	2200      	movhi	r2, #0
20000a1c:	8282      	strhhi	r2, [r0, #20]
20000a1e:	4618      	mov	r0, r3
20000a20:	4770      	bx	lr
20000a22:	3c01      	subs	r4, #1
20000a24:	18cd      	adds	r5, r1, r3
20000a26:	f811 2b01 	ldrb.w	r2, [r1], #1
20000a2a:	42a9      	cmp	r1, r5
20000a2c:	f804 2f01 	strb.w	r2, [r4, #1]!
20000a30:	d1f9      	bne.n	20000a26 <sync_ep_buffer+0xaa>
20000a32:	e7df      	b.n	200009f4 <sync_ep_buffer+0x78>

20000a34 <_hw_endpoint_xfer_sync>:
20000a34:	b510      	push	{r4, lr}
20000a36:	4604      	mov	r4, r0
20000a38:	6883      	ldr	r3, [r0, #8]
20000a3a:	2100      	movs	r1, #0
20000a3c:	681b      	ldr	r3, [r3, #0]
20000a3e:	f7ff ff9d 	bl	2000097c <sync_ep_buffer>
20000a42:	6863      	ldr	r3, [r4, #4]
20000a44:	681b      	ldr	r3, [r3, #0]
20000a46:	005b      	lsls	r3, r3, #1
20000a48:	d502      	bpl.n	20000a50 <_hw_endpoint_xfer_sync+0x1c>
20000a4a:	8b23      	ldrh	r3, [r4, #24]
20000a4c:	4283      	cmp	r3, r0
20000a4e:	d000      	beq.n	20000a52 <_hw_endpoint_xfer_sync+0x1e>
20000a50:	bd10      	pop	{r4, pc}
20000a52:	4620      	mov	r0, r4
20000a54:	e8bd 4010 	ldmia.w	sp!, {r4, lr}
20000a58:	2101      	movs	r1, #1
20000a5a:	f7ff bf8f 	b.w	2000097c <sync_ep_buffer>
20000a5e:	bf00      	nop

20000a60 <e15_is_bulkin_ep>:
20000a60:	4b08      	ldr	r3, [pc, #32]	; (20000a84 <e15_is_bulkin_ep+0x24>)
20000a62:	6c1b      	ldr	r3, [r3, #64]	; 0x40
20000a64:	f013 0302 	ands.w	r3, r3, #2
20000a68:	d102      	bne.n	20000a70 <e15_is_bulkin_ep+0x10>
20000a6a:	7882      	ldrb	r2, [r0, #2]
20000a6c:	09d2      	lsrs	r2, r2, #7
20000a6e:	d101      	bne.n	20000a74 <e15_is_bulkin_ep+0x14>
20000a70:	2000      	movs	r0, #0
20000a72:	4770      	bx	lr
20000a74:	7ec0      	ldrb	r0, [r0, #27]
20000a76:	f1a0 0002 	sub.w	r0, r0, #2
20000a7a:	fab0 f080 	clz	r0, r0
20000a7e:	0940      	lsrs	r0, r0, #5
20000a80:	4770      	bx	lr
20000a82:	bf00      	nop
20000a84:	50110000 	.word	0x50110000

20000a88 <e15_is_critical_frame_period>:
20000a88:	b508      	push	{r3, lr}
20000a8a:	f7ff ffe9 	bl	20000a60 <e15_is_bulkin_ep>
20000a8e:	b150      	cbz	r0, 20000aa6 <e15_is_critical_frame_period+0x1e>
20000a90:	4a05      	ldr	r2, [pc, #20]	; (20000aa8 <e15_is_critical_frame_period+0x20>)
20000a92:	4b06      	ldr	r3, [pc, #24]	; (20000aac <e15_is_critical_frame_period+0x24>)
20000a94:	6a90      	ldr	r0, [r2, #40]	; 0x28
20000a96:	681b      	ldr	r3, [r3, #0]
20000a98:	f5a0 7048 	sub.w	r0, r0, #800	; 0x320
20000a9c:	1ac0      	subs	r0, r0, r3
20000a9e:	28c6      	cmp	r0, #198	; 0xc6
20000aa0:	bf8c      	ite	hi
20000aa2:	2000      	movhi	r0, #0
20000aa4:	2001      	movls	r0, #1
20000aa6:	bd08      	pop	{r3, pc}
20000aa8:	400b0000 	.word	0x400b0000
20000aac:	20001a4c 	.word	0x20001a4c

20000ab0 <hw_endpoint_reset_transfer>:
20000ab0:	2300      	movs	r3, #0
20000ab2:	e9c0 3304 	strd	r3, r3, [r0, #16]
20000ab6:	7683      	strb	r3, [r0, #26]
20000ab8:	4770      	bx	lr
20000aba:	bf00      	nop

20000abc <_hw_endpoint_buffer_control_update32>:
20000abc:	b510      	push	{r4, lr}
20000abe:	6883      	ldr	r3, [r0, #8]
20000ac0:	b109      	cbz	r1, 20000ac6 <_hw_endpoint_buffer_control_update32+0xa>
20000ac2:	681c      	ldr	r4, [r3, #0]
20000ac4:	4021      	ands	r1, r4
20000ac6:	b182      	cbz	r2, 20000aea <_hw_endpoint_buffer_control_update32+0x2e>
20000ac8:	4311      	orrs	r1, r2
20000aca:	0552      	lsls	r2, r2, #21
20000acc:	d50d      	bpl.n	20000aea <_hw_endpoint_buffer_control_update32+0x2e>
20000ace:	681a      	ldr	r2, [r3, #0]
20000ad0:	0554      	lsls	r4, r2, #21
20000ad2:	d40c      	bmi.n	20000aee <_hw_endpoint_buffer_control_update32+0x32>
20000ad4:	4a08      	ldr	r2, [pc, #32]	; (20000af8 <_hw_endpoint_buffer_control_update32+0x3c>)
20000ad6:	f421 6480 	bic.w	r4, r1, #1024	; 0x400
20000ada:	601c      	str	r4, [r3, #0]
20000adc:	6c12      	ldr	r2, [r2, #64]	; 0x40
20000ade:	0792      	lsls	r2, r2, #30
20000ae0:	d403      	bmi.n	20000aea <_hw_endpoint_buffer_control_update32+0x2e>
20000ae2:	230c      	movs	r3, #12
20000ae4:	3b03      	subs	r3, #3
20000ae6:	d2fd      	bcs.n	20000ae4 <_hw_endpoint_buffer_control_update32+0x28>
20000ae8:	6883      	ldr	r3, [r0, #8]
20000aea:	6019      	str	r1, [r3, #0]
20000aec:	bd10      	pop	{r4, pc}
20000aee:	7881      	ldrb	r1, [r0, #2]
20000af0:	4802      	ldr	r0, [pc, #8]	; (20000afc <_hw_endpoint_buffer_control_update32+0x40>)
20000af2:	f000 fb2d 	bl	20001150 <__panic_veneer>
20000af6:	bf00      	nop
20000af8:	50110000 	.word	0x50110000
20000afc:	10006d68 	.word	0x10006d68

20000b00 <hw_endpoint_start_next_buffer>:
20000b00:	b530      	push	{r4, r5, lr}
20000b02:	6843      	ldr	r3, [r0, #4]
20000b04:	2100      	movs	r1, #0
20000b06:	b083      	sub	sp, #12
20000b08:	4604      	mov	r4, r0
20000b0a:	681d      	ldr	r5, [r3, #0]
20000b0c:	f7ff fed2 	bl	200008b4 <prepare_ep_buffer>
20000b10:	4b13      	ldr	r3, [pc, #76]	; (20000b60 <hw_endpoint_start_next_buffer+0x60>)
20000b12:	f440 5280 	orr.w	r2, r0, #4096	; 0x1000
20000b16:	6c1b      	ldr	r3, [r3, #64]	; 0x40
20000b18:	f013 0f02 	tst.w	r3, #2
20000b1c:	78a3      	ldrb	r3, [r4, #2]
20000b1e:	d00e      	beq.n	20000b3e <hw_endpoint_start_next_buffer+0x3e>
20000b20:	065b      	lsls	r3, r3, #25
20000b22:	d00e      	beq.n	20000b42 <hw_endpoint_start_next_buffer+0x42>
20000b24:	f025 45a0 	bic.w	r5, r5, #1342177280	; 0x50000000
20000b28:	f045 5500 	orr.w	r5, r5, #536870912	; 0x20000000
20000b2c:	2100      	movs	r1, #0
20000b2e:	4620      	mov	r0, r4
20000b30:	6863      	ldr	r3, [r4, #4]
20000b32:	601d      	str	r5, [r3, #0]
20000b34:	b003      	add	sp, #12
20000b36:	e8bd 4030 	ldmia.w	sp!, {r4, r5, lr}
20000b3a:	f7ff bfbf 	b.w	20000abc <_hw_endpoint_buffer_control_update32>
20000b3e:	09db      	lsrs	r3, r3, #7
20000b40:	d0f0      	beq.n	20000b24 <hw_endpoint_start_next_buffer+0x24>
20000b42:	8aa3      	ldrh	r3, [r4, #20]
20000b44:	2b00      	cmp	r3, #0
20000b46:	d0ed      	beq.n	20000b24 <hw_endpoint_start_next_buffer+0x24>
20000b48:	2101      	movs	r1, #1
20000b4a:	4620      	mov	r0, r4
20000b4c:	9201      	str	r2, [sp, #4]
20000b4e:	f7ff feb1 	bl	200008b4 <prepare_ep_buffer>
20000b52:	9a01      	ldr	r2, [sp, #4]
20000b54:	f025 5500 	bic.w	r5, r5, #536870912	; 0x20000000
20000b58:	f045 45a0 	orr.w	r5, r5, #1342177280	; 0x50000000
20000b5c:	4302      	orrs	r2, r0
20000b5e:	e7e5      	b.n	20000b2c <hw_endpoint_start_next_buffer+0x2c>
20000b60:	50110000 	.word	0x50110000

20000b64 <hw_endpoint_xfer_continue>:
20000b64:	b538      	push	{r3, r4, r5, lr}
20000b66:	7e85      	ldrb	r5, [r0, #26]
20000b68:	4604      	mov	r4, r0
20000b6a:	b1a5      	cbz	r5, 20000b96 <hw_endpoint_xfer_continue+0x32>
20000b6c:	f7ff ff62 	bl	20000a34 <_hw_endpoint_xfer_sync>
20000b70:	8aa3      	ldrh	r3, [r4, #20]
20000b72:	b90b      	cbnz	r3, 20000b78 <hw_endpoint_xfer_continue+0x14>
20000b74:	4628      	mov	r0, r5
20000b76:	bd38      	pop	{r3, r4, r5, pc}
20000b78:	4620      	mov	r0, r4
20000b7a:	f7ff ff85 	bl	20000a88 <e15_is_critical_frame_period>
20000b7e:	4605      	mov	r5, r0
20000b80:	b120      	cbz	r0, 20000b8c <hw_endpoint_xfer_continue+0x28>
20000b82:	2301      	movs	r3, #1
20000b84:	2500      	movs	r5, #0
20000b86:	7723      	strb	r3, [r4, #28]
20000b88:	4628      	mov	r0, r5
20000b8a:	bd38      	pop	{r3, r4, r5, pc}
20000b8c:	4620      	mov	r0, r4
20000b8e:	f7ff ffb7 	bl	20000b00 <hw_endpoint_start_next_buffer>
20000b92:	4628      	mov	r0, r5
20000b94:	bd38      	pop	{r3, r4, r5, pc}
20000b96:	7881      	ldrb	r1, [r0, #2]
20000b98:	4801      	ldr	r0, [pc, #4]	; (20000ba0 <hw_endpoint_xfer_continue+0x3c>)
20000b9a:	f000 fad9 	bl	20001150 <__panic_veneer>
20000b9e:	bf00      	nop
20000ba0:	10006d88 	.word	0x10006d88

20000ba4 <dcd_event_handler>:
20000ba4:	e92d 43f0 	stmdb	sp!, {r4, r5, r6, r7, r8, r9, lr}
20000ba8:	7843      	ldrb	r3, [r0, #1]
20000baa:	4680      	mov	r8, r0
20000bac:	3b02      	subs	r3, #2
20000bae:	460d      	mov	r5, r1
20000bb0:	b085      	sub	sp, #20
20000bb2:	2b04      	cmp	r3, #4
20000bb4:	d813      	bhi.n	20000bde <dcd_event_handler+0x3a>
20000bb6:	e8df f003 	tbb	[pc, r3]
20000bba:	4a03      	.short	0x4a03
20000bbc:	756c      	.short	0x756c
20000bbe:	44          	.byte	0x44
20000bbf:	00          	.byte	0x00
20000bc0:	2100      	movs	r1, #0
20000bc2:	4b78      	ldr	r3, [pc, #480]	; (20000da4 <dcd_event_handler+0x200>)
20000bc4:	781a      	ldrb	r2, [r3, #0]
20000bc6:	f36f 0200 	bfc	r2, #0, #1
20000bca:	701a      	strb	r2, [r3, #0]
20000bcc:	781a      	ldrb	r2, [r3, #0]
20000bce:	f36f 0241 	bfc	r2, #1, #1
20000bd2:	701a      	strb	r2, [r3, #0]
20000bd4:	7059      	strb	r1, [r3, #1]
20000bd6:	781a      	ldrb	r2, [r3, #0]
20000bd8:	f361 0282 	bfi	r2, r1, #2, #1
20000bdc:	701a      	strb	r2, [r3, #0]
20000bde:	4b72      	ldr	r3, [pc, #456]	; (20000da8 <dcd_event_handler+0x204>)
20000be0:	681c      	ldr	r4, [r3, #0]
20000be2:	6963      	ldr	r3, [r4, #20]
20000be4:	f3ef 8210 	mrs	r2, PRIMASK
20000be8:	b672      	cpsid	i
20000bea:	e8d3 0fcf 	ldaexb	r0, [r3]
20000bee:	2101      	movs	r1, #1
20000bf0:	2800      	cmp	r0, #0
20000bf2:	d1fa      	bne.n	20000bea <dcd_event_handler+0x46>
20000bf4:	e8c3 1f40 	strexb	r0, r1, [r3]
20000bf8:	2800      	cmp	r0, #0
20000bfa:	d1f6      	bne.n	20000bea <dcd_event_handler+0x46>
20000bfc:	f3bf 8f5f 	dmb	sy
20000c00:	61a2      	str	r2, [r4, #24]
20000c02:	4641      	mov	r1, r8
20000c04:	4620      	mov	r0, r4
20000c06:	f000 fad3 	bl	200011b0 <__tu_fifo_write_veneer>
20000c0a:	2300      	movs	r3, #0
20000c0c:	6962      	ldr	r2, [r4, #20]
20000c0e:	e8c2 3f8f 	stlb	r3, [r2]
20000c12:	69a3      	ldr	r3, [r4, #24]
20000c14:	f383 8810 	msr	PRIMASK, r3
20000c18:	b948      	cbnz	r0, 20000c2e <dcd_event_handler+0x8a>
20000c1a:	f04f 23e0 	mov.w	r3, #3758153728	; 0xe000e000
20000c1e:	f8d3 3df0 	ldr.w	r3, [r3, #3568]	; 0xdf0
20000c22:	07db      	lsls	r3, r3, #31
20000c24:	d50a      	bpl.n	20000c3c <dcd_event_handler+0x98>
20000c26:	be00      	bkpt	0x0000
20000c28:	b005      	add	sp, #20
20000c2a:	e8bd 83f0 	ldmia.w	sp!, {r4, r5, r6, r7, r8, r9, pc}
20000c2e:	462a      	mov	r2, r5
20000c30:	f898 1001 	ldrb.w	r1, [r8, #1]
20000c34:	f898 0000 	ldrb.w	r0, [r8]
20000c38:	f000 faa2 	bl	20001180 <__tud_event_hook_cb_veneer>
20000c3c:	b005      	add	sp, #20
20000c3e:	e8bd 83f0 	ldmia.w	sp!, {r4, r5, r6, r7, r8, r9, pc}
20000c42:	4a5a      	ldr	r2, [pc, #360]	; (20000dac <dcd_event_handler+0x208>)
20000c44:	7813      	ldrb	r3, [r2, #0]
20000c46:	3301      	adds	r3, #1
20000c48:	b2db      	uxtb	r3, r3
20000c4a:	7013      	strb	r3, [r2, #0]
20000c4c:	e7c7      	b.n	20000bde <dcd_event_handler+0x3a>
20000c4e:	2400      	movs	r4, #0
20000c50:	4e57      	ldr	r6, [pc, #348]	; (20000db0 <dcd_event_handler+0x20c>)
20000c52:	4623      	mov	r3, r4
20000c54:	7831      	ldrb	r1, [r6, #0]
20000c56:	4f57      	ldr	r7, [pc, #348]	; (20000db4 <dcd_event_handler+0x210>)
20000c58:	f8df 915c 	ldr.w	r9, [pc, #348]	; 20000db8 <dcd_event_handler+0x214>
20000c5c:	e00a      	b.n	20000c74 <dcd_event_handler+0xd0>
20000c5e:	f8d9 3000 	ldr.w	r3, [r9]
20000c62:	eb13 1344 	adds.w	r3, r3, r4, lsl #5
20000c66:	d10a      	bne.n	20000c7e <dcd_event_handler+0xda>
20000c68:	3401      	adds	r4, #1
20000c6a:	b2e4      	uxtb	r4, r4
20000c6c:	1c4a      	adds	r2, r1, #1
20000c6e:	42a2      	cmp	r2, r4
20000c70:	4623      	mov	r3, r4
20000c72:	db20      	blt.n	20000cb6 <dcd_event_handler+0x112>
20000c74:	42a1      	cmp	r1, r4
20000c76:	d8f2      	bhi.n	20000c5e <dcd_event_handler+0xba>
20000c78:	1a5b      	subs	r3, r3, r1
20000c7a:	eb07 1343 	add.w	r3, r7, r3, lsl #5
20000c7e:	69db      	ldr	r3, [r3, #28]
20000c80:	2b00      	cmp	r3, #0
20000c82:	d0f1      	beq.n	20000c68 <dcd_event_handler+0xc4>
20000c84:	f8d8 1004 	ldr.w	r1, [r8, #4]
20000c88:	f898 0000 	ldrb.w	r0, [r8]
20000c8c:	4798      	blx	r3
20000c8e:	7831      	ldrb	r1, [r6, #0]
20000c90:	e7ea      	b.n	20000c68 <dcd_event_handler+0xc4>
20000c92:	4b44      	ldr	r3, [pc, #272]	; (20000da4 <dcd_event_handler+0x200>)
20000c94:	781a      	ldrb	r2, [r3, #0]
20000c96:	07d6      	lsls	r6, r2, #31
20000c98:	d5d0      	bpl.n	20000c3c <dcd_event_handler+0x98>
20000c9a:	781a      	ldrb	r2, [r3, #0]
20000c9c:	f042 0204 	orr.w	r2, r2, #4
20000ca0:	701a      	strb	r2, [r3, #0]
20000ca2:	e79c      	b.n	20000bde <dcd_event_handler+0x3a>
20000ca4:	4b3f      	ldr	r3, [pc, #252]	; (20000da4 <dcd_event_handler+0x200>)
20000ca6:	781a      	ldrb	r2, [r3, #0]
20000ca8:	07d4      	lsls	r4, r2, #31
20000caa:	d5c7      	bpl.n	20000c3c <dcd_event_handler+0x98>
20000cac:	781a      	ldrb	r2, [r3, #0]
20000cae:	f36f 0282 	bfc	r2, #2, #1
20000cb2:	701a      	strb	r2, [r3, #0]
20000cb4:	e793      	b.n	20000bde <dcd_event_handler+0x3a>
20000cb6:	4c3b      	ldr	r4, [pc, #236]	; (20000da4 <dcd_event_handler+0x200>)
20000cb8:	7823      	ldrb	r3, [r4, #0]
20000cba:	0758      	lsls	r0, r3, #29
20000cbc:	d436      	bmi.n	20000d2c <dcd_event_handler+0x188>
20000cbe:	78e3      	ldrb	r3, [r4, #3]
20000cc0:	07da      	lsls	r2, r3, #31
20000cc2:	d5bb      	bpl.n	20000c3c <dcd_event_handler+0x98>
20000cc4:	2600      	movs	r6, #0
20000cc6:	2303      	movs	r3, #3
20000cc8:	4937      	ldr	r1, [pc, #220]	; (20000da8 <dcd_event_handler+0x204>)
20000cca:	f898 2000 	ldrb.w	r2, [r8]
20000cce:	680c      	ldr	r4, [r1, #0]
20000cd0:	f8d8 1004 	ldr.w	r1, [r8, #4]
20000cd4:	9603      	str	r6, [sp, #12]
20000cd6:	e9cd 6101 	strd	r6, r1, [sp, #4]
20000cda:	f88d 2004 	strb.w	r2, [sp, #4]
20000cde:	f88d 3005 	strb.w	r3, [sp, #5]
20000ce2:	6963      	ldr	r3, [r4, #20]
20000ce4:	f3ef 8210 	mrs	r2, PRIMASK
20000ce8:	b672      	cpsid	i
20000cea:	e8d3 0fcf 	ldaexb	r0, [r3]
20000cee:	2101      	movs	r1, #1
20000cf0:	2800      	cmp	r0, #0
20000cf2:	d1fa      	bne.n	20000cea <dcd_event_handler+0x146>
20000cf4:	e8c3 1f40 	strexb	r0, r1, [r3]
20000cf8:	2800      	cmp	r0, #0
20000cfa:	d1f6      	bne.n	20000cea <dcd_event_handler+0x146>
20000cfc:	f3bf 8f5f 	dmb	sy
20000d00:	4620      	mov	r0, r4
20000d02:	a901      	add	r1, sp, #4
20000d04:	61a2      	str	r2, [r4, #24]
20000d06:	f000 fa53 	bl	200011b0 <__tu_fifo_write_veneer>
20000d0a:	6963      	ldr	r3, [r4, #20]
20000d0c:	e8c3 6f8f 	stlb	r6, [r3]
20000d10:	69a3      	ldr	r3, [r4, #24]
20000d12:	f383 8810 	msr	PRIMASK, r3
20000d16:	2800      	cmp	r0, #0
20000d18:	f43f af7f 	beq.w	20000c1a <dcd_event_handler+0x76>
20000d1c:	462a      	mov	r2, r5
20000d1e:	f89d 1005 	ldrb.w	r1, [sp, #5]
20000d22:	f89d 0004 	ldrb.w	r0, [sp, #4]
20000d26:	f000 fa2b 	bl	20001180 <__tud_event_hook_cb_veneer>
20000d2a:	e787      	b.n	20000c3c <dcd_event_handler+0x98>
20000d2c:	2700      	movs	r7, #0
20000d2e:	2205      	movs	r2, #5
20000d30:	7823      	ldrb	r3, [r4, #0]
20000d32:	491d      	ldr	r1, [pc, #116]	; (20000da8 <dcd_event_handler+0x204>)
20000d34:	f36f 0382 	bfc	r3, #2, #1
20000d38:	7023      	strb	r3, [r4, #0]
20000d3a:	f898 3000 	ldrb.w	r3, [r8]
20000d3e:	680e      	ldr	r6, [r1, #0]
20000d40:	9701      	str	r7, [sp, #4]
20000d42:	f88d 2005 	strb.w	r2, [sp, #5]
20000d46:	f88d 3004 	strb.w	r3, [sp, #4]
20000d4a:	e9cd 7702 	strd	r7, r7, [sp, #8]
20000d4e:	6973      	ldr	r3, [r6, #20]
20000d50:	f3ef 8210 	mrs	r2, PRIMASK
20000d54:	b672      	cpsid	i
20000d56:	e8d3 0fcf 	ldaexb	r0, [r3]
20000d5a:	2101      	movs	r1, #1
20000d5c:	2800      	cmp	r0, #0
20000d5e:	d1fa      	bne.n	20000d56 <dcd_event_handler+0x1b2>
20000d60:	e8c3 1f40 	strexb	r0, r1, [r3]
20000d64:	2800      	cmp	r0, #0
20000d66:	d1f6      	bne.n	20000d56 <dcd_event_handler+0x1b2>
20000d68:	f3bf 8f5f 	dmb	sy
20000d6c:	4630      	mov	r0, r6
20000d6e:	61b2      	str	r2, [r6, #24]
20000d70:	a901      	add	r1, sp, #4
20000d72:	f000 fa1d 	bl	200011b0 <__tu_fifo_write_veneer>
20000d76:	6973      	ldr	r3, [r6, #20]
20000d78:	e8c3 7f8f 	stlb	r7, [r3]
20000d7c:	69b3      	ldr	r3, [r6, #24]
20000d7e:	f383 8810 	msr	PRIMASK, r3
20000d82:	b938      	cbnz	r0, 20000d94 <dcd_event_handler+0x1f0>
20000d84:	f04f 23e0 	mov.w	r3, #3758153728	; 0xe000e000
20000d88:	f8d3 3df0 	ldr.w	r3, [r3, #3568]	; 0xdf0
20000d8c:	07d9      	lsls	r1, r3, #31
20000d8e:	d596      	bpl.n	20000cbe <dcd_event_handler+0x11a>
20000d90:	be00      	bkpt	0x0000
20000d92:	e794      	b.n	20000cbe <dcd_event_handler+0x11a>
20000d94:	462a      	mov	r2, r5
20000d96:	f89d 1005 	ldrb.w	r1, [sp, #5]
20000d9a:	f89d 0004 	ldrb.w	r0, [sp, #4]
20000d9e:	f000 f9ef 	bl	20001180 <__tud_event_hook_cb_veneer>
20000da2:	e78c      	b.n	20000cbe <dcd_event_handler+0x11a>
20000da4:	200015fc 	.word	0x200015fc
20000da8:	20001654 	.word	0x20001654
20000dac:	20006022 	.word	0x20006022
20000db0:	20006020 	.word	0x20006020
20000db4:	10006db0 	.word	0x10006db0
20000db8:	2000142c 	.word	0x2000142c

20000dbc <__aeabi_ldivmod>:
20000dbc:	b97b      	cbnz	r3, 20000dde <__aeabi_ldivmod+0x22>
20000dbe:	b972      	cbnz	r2, 20000dde <__aeabi_ldivmod+0x22>
20000dc0:	2900      	cmp	r1, #0
20000dc2:	bfbe      	ittt	lt
20000dc4:	2000      	movlt	r0, #0
20000dc6:	f04f 4100 	movlt.w	r1, #2147483648	; 0x80000000
20000dca:	e006      	blt.n	20000dda <__aeabi_ldivmod+0x1e>
20000dcc:	bf08      	it	eq
20000dce:	2800      	cmpeq	r0, #0
20000dd0:	bf1c      	itt	ne
20000dd2:	f06f 4100 	mvnne.w	r1, #2147483648	; 0x80000000
20000dd6:	f04f 30ff 	movne.w	r0, #4294967295
20000dda:	f000 b9b5 	b.w	20001148 <__aeabi_idiv0>
20000dde:	f1ad 0c08 	sub.w	ip, sp, #8
20000de2:	e96d ce04 	strd	ip, lr, [sp, #-16]!
20000de6:	2900      	cmp	r1, #0
20000de8:	db09      	blt.n	20000dfe <__aeabi_ldivmod+0x42>
20000dea:	2b00      	cmp	r3, #0
20000dec:	db1a      	blt.n	20000e24 <__aeabi_ldivmod+0x68>
20000dee:	f000 f835 	bl	20000e5c <__udivmoddi4>
20000df2:	f8dd e004 	ldr.w	lr, [sp, #4]
20000df6:	e9dd 2302 	ldrd	r2, r3, [sp, #8]
20000dfa:	b004      	add	sp, #16
20000dfc:	4770      	bx	lr
20000dfe:	4240      	negs	r0, r0
20000e00:	eb61 0141 	sbc.w	r1, r1, r1, lsl #1
20000e04:	2b00      	cmp	r3, #0
20000e06:	db1b      	blt.n	20000e40 <__aeabi_ldivmod+0x84>
20000e08:	f000 f828 	bl	20000e5c <__udivmoddi4>
20000e0c:	f8dd e004 	ldr.w	lr, [sp, #4]
20000e10:	e9dd 2302 	ldrd	r2, r3, [sp, #8]
20000e14:	b004      	add	sp, #16
20000e16:	4240      	negs	r0, r0
20000e18:	eb61 0141 	sbc.w	r1, r1, r1, lsl #1
20000e1c:	4252      	negs	r2, r2
20000e1e:	eb63 0343 	sbc.w	r3, r3, r3, lsl #1
20000e22:	4770      	bx	lr
20000e24:	4252      	negs	r2, r2
20000e26:	eb63 0343 	sbc.w	r3, r3, r3, lsl #1
20000e2a:	f000 f817 	bl	20000e5c <__udivmoddi4>
20000e2e:	f8dd e004 	ldr.w	lr, [sp, #4]
20000e32:	e9dd 2302 	ldrd	r2, r3, [sp, #8]
20000e36:	b004      	add	sp, #16
20000e38:	4240      	negs	r0, r0
20000e3a:	eb61 0141 	sbc.w	r1, r1, r1, lsl #1
20000e3e:	4770      	bx	lr
20000e40:	4252      	negs	r2, r2
20000e42:	eb63 0343 	sbc.w	r3, r3, r3, lsl #1
20000e46:	f000 f809 	bl	20000e5c <__udivmoddi4>
20000e4a:	f8dd e004 	ldr.w	lr, [sp, #4]
20000e4e:	e9dd 2302 	ldrd	r2, r3, [sp, #8]
20000e52:	b004      	add	sp, #16
20000e54:	4252      	negs	r2, r2
20000e56:	eb63 0343 	sbc.w	r3, r3, r3, lsl #1
20000e5a:	4770      	bx	lr

20000e5c <__udivmoddi4>:
20000e5c:	e92d 4ff0 	stmdb	sp!, {r4, r5, r6, r7, r8, r9, sl, fp, lr}
20000e60:	9d09      	ldr	r5, [sp, #36]	; 0x24
20000e62:	4604      	mov	r4, r0
20000e64:	460f      	mov	r7, r1
20000e66:	2b00      	cmp	r3, #0
20000e68:	d148      	bne.n	20000efc <__udivmoddi4+0xa0>
20000e6a:	428a      	cmp	r2, r1
20000e6c:	4694      	mov	ip, r2
20000e6e:	d961      	bls.n	20000f34 <__udivmoddi4+0xd8>
20000e70:	fab2 f382 	clz	r3, r2
20000e74:	b143      	cbz	r3, 20000e88 <__udivmoddi4+0x2c>
20000e76:	f1c3 0120 	rsb	r1, r3, #32
20000e7a:	409f      	lsls	r7, r3
20000e7c:	fa02 fc03 	lsl.w	ip, r2, r3
20000e80:	409c      	lsls	r4, r3
20000e82:	fa20 f101 	lsr.w	r1, r0, r1
20000e86:	430f      	orrs	r7, r1
20000e88:	ea4f 411c 	mov.w	r1, ip, lsr #16
20000e8c:	fa1f fe8c 	uxth.w	lr, ip
20000e90:	0c22      	lsrs	r2, r4, #16
20000e92:	fbb7 f6f1 	udiv	r6, r7, r1
20000e96:	fb01 7716 	mls	r7, r1, r6, r7
20000e9a:	fb06 f00e 	mul.w	r0, r6, lr
20000e9e:	ea42 4207 	orr.w	r2, r2, r7, lsl #16
20000ea2:	4290      	cmp	r0, r2
20000ea4:	d908      	bls.n	20000eb8 <__udivmoddi4+0x5c>
20000ea6:	eb1c 0202 	adds.w	r2, ip, r2
20000eaa:	f106 37ff 	add.w	r7, r6, #4294967295
20000eae:	d202      	bcs.n	20000eb6 <__udivmoddi4+0x5a>
20000eb0:	4290      	cmp	r0, r2
20000eb2:	f200 8137 	bhi.w	20001124 <__udivmoddi4+0x2c8>
20000eb6:	463e      	mov	r6, r7
20000eb8:	1a12      	subs	r2, r2, r0
20000eba:	b2a4      	uxth	r4, r4
20000ebc:	fbb2 f0f1 	udiv	r0, r2, r1
20000ec0:	fb01 2210 	mls	r2, r1, r0, r2
20000ec4:	fb00 fe0e 	mul.w	lr, r0, lr
20000ec8:	ea44 4402 	orr.w	r4, r4, r2, lsl #16
20000ecc:	45a6      	cmp	lr, r4
20000ece:	d908      	bls.n	20000ee2 <__udivmoddi4+0x86>
20000ed0:	eb1c 0404 	adds.w	r4, ip, r4
20000ed4:	f100 32ff 	add.w	r2, r0, #4294967295
20000ed8:	d202      	bcs.n	20000ee0 <__udivmoddi4+0x84>
20000eda:	45a6      	cmp	lr, r4
20000edc:	f200 811c 	bhi.w	20001118 <__udivmoddi4+0x2bc>
20000ee0:	4610      	mov	r0, r2
20000ee2:	ea40 4006 	orr.w	r0, r0, r6, lsl #16
20000ee6:	eba4 040e 	sub.w	r4, r4, lr
20000eea:	2600      	movs	r6, #0
20000eec:	b11d      	cbz	r5, 20000ef6 <__udivmoddi4+0x9a>
20000eee:	40dc      	lsrs	r4, r3
20000ef0:	2300      	movs	r3, #0
20000ef2:	e9c5 4300 	strd	r4, r3, [r5]
20000ef6:	4631      	mov	r1, r6
20000ef8:	e8bd 8ff0 	ldmia.w	sp!, {r4, r5, r6, r7, r8, r9, sl, fp, pc}
20000efc:	428b      	cmp	r3, r1
20000efe:	d909      	bls.n	20000f14 <__udivmoddi4+0xb8>
20000f00:	2d00      	cmp	r5, #0
20000f02:	f000 80fd 	beq.w	20001100 <__udivmoddi4+0x2a4>
20000f06:	2600      	movs	r6, #0
20000f08:	e9c5 0100 	strd	r0, r1, [r5]
20000f0c:	4630      	mov	r0, r6
20000f0e:	4631      	mov	r1, r6
20000f10:	e8bd 8ff0 	ldmia.w	sp!, {r4, r5, r6, r7, r8, r9, sl, fp, pc}
20000f14:	fab3 f683 	clz	r6, r3
20000f18:	2e00      	cmp	r6, #0
20000f1a:	d14b      	bne.n	20000fb4 <__udivmoddi4+0x158>
20000f1c:	428b      	cmp	r3, r1
20000f1e:	f0c0 80f2 	bcc.w	20001106 <__udivmoddi4+0x2aa>
20000f22:	4282      	cmp	r2, r0
20000f24:	f240 80ef 	bls.w	20001106 <__udivmoddi4+0x2aa>
20000f28:	4630      	mov	r0, r6
20000f2a:	2d00      	cmp	r5, #0
20000f2c:	d0e3      	beq.n	20000ef6 <__udivmoddi4+0x9a>
20000f2e:	e9c5 4700 	strd	r4, r7, [r5]
20000f32:	e7e0      	b.n	20000ef6 <__udivmoddi4+0x9a>
20000f34:	b902      	cbnz	r2, 20000f38 <__udivmoddi4+0xdc>
20000f36:	deff      	udf	#255	; 0xff
20000f38:	fab2 f382 	clz	r3, r2
20000f3c:	2b00      	cmp	r3, #0
20000f3e:	f040 809d 	bne.w	2000107c <__udivmoddi4+0x220>
20000f42:	1a89      	subs	r1, r1, r2
20000f44:	ea4f 4e12 	mov.w	lr, r2, lsr #16
20000f48:	b297      	uxth	r7, r2
20000f4a:	2601      	movs	r6, #1
20000f4c:	0c20      	lsrs	r0, r4, #16
20000f4e:	fbb1 f2fe 	udiv	r2, r1, lr
20000f52:	fb0e 1112 	mls	r1, lr, r2, r1
20000f56:	ea40 4101 	orr.w	r1, r0, r1, lsl #16
20000f5a:	fb07 f002 	mul.w	r0, r7, r2
20000f5e:	4288      	cmp	r0, r1
20000f60:	d90f      	bls.n	20000f82 <__udivmoddi4+0x126>
20000f62:	eb1c 0101 	adds.w	r1, ip, r1
20000f66:	f102 38ff 	add.w	r8, r2, #4294967295
20000f6a:	bf2c      	ite	cs
20000f6c:	f04f 0901 	movcs.w	r9, #1
20000f70:	f04f 0900 	movcc.w	r9, #0
20000f74:	4288      	cmp	r0, r1
20000f76:	d903      	bls.n	20000f80 <__udivmoddi4+0x124>
20000f78:	f1b9 0f00 	cmp.w	r9, #0
20000f7c:	f000 80cf 	beq.w	2000111e <__udivmoddi4+0x2c2>
20000f80:	4642      	mov	r2, r8
20000f82:	1a09      	subs	r1, r1, r0
20000f84:	b2a4      	uxth	r4, r4
20000f86:	fbb1 f0fe 	udiv	r0, r1, lr
20000f8a:	fb0e 1110 	mls	r1, lr, r0, r1
20000f8e:	fb00 f707 	mul.w	r7, r0, r7
20000f92:	ea44 4401 	orr.w	r4, r4, r1, lsl #16
20000f96:	42a7      	cmp	r7, r4
20000f98:	d908      	bls.n	20000fac <__udivmoddi4+0x150>
20000f9a:	eb1c 0404 	adds.w	r4, ip, r4
20000f9e:	f100 31ff 	add.w	r1, r0, #4294967295
20000fa2:	d202      	bcs.n	20000faa <__udivmoddi4+0x14e>
20000fa4:	42a7      	cmp	r7, r4
20000fa6:	f200 80b4 	bhi.w	20001112 <__udivmoddi4+0x2b6>
20000faa:	4608      	mov	r0, r1
20000fac:	1be4      	subs	r4, r4, r7
20000fae:	ea40 4002 	orr.w	r0, r0, r2, lsl #16
20000fb2:	e79b      	b.n	20000eec <__udivmoddi4+0x90>
20000fb4:	f1c6 0720 	rsb	r7, r6, #32
20000fb8:	40b3      	lsls	r3, r6
20000fba:	fa01 f406 	lsl.w	r4, r1, r6
20000fbe:	fa22 fc07 	lsr.w	ip, r2, r7
20000fc2:	40f9      	lsrs	r1, r7
20000fc4:	40b2      	lsls	r2, r6
20000fc6:	ea4c 0c03 	orr.w	ip, ip, r3
20000fca:	fa20 f307 	lsr.w	r3, r0, r7
20000fce:	ea4f 491c 	mov.w	r9, ip, lsr #16
20000fd2:	431c      	orrs	r4, r3
20000fd4:	fa1f fe8c 	uxth.w	lr, ip
20000fd8:	fa00 f306 	lsl.w	r3, r0, r6
20000fdc:	0c20      	lsrs	r0, r4, #16
20000fde:	fbb1 f8f9 	udiv	r8, r1, r9
20000fe2:	fb09 1118 	mls	r1, r9, r8, r1
20000fe6:	ea40 4101 	orr.w	r1, r0, r1, lsl #16
20000fea:	fb08 f00e 	mul.w	r0, r8, lr
20000fee:	4288      	cmp	r0, r1
20000ff0:	d90f      	bls.n	20001012 <__udivmoddi4+0x1b6>
20000ff2:	eb1c 0101 	adds.w	r1, ip, r1
20000ff6:	f108 3aff 	add.w	sl, r8, #4294967295
20000ffa:	bf2c      	ite	cs
20000ffc:	f04f 0b01 	movcs.w	fp, #1
20001000:	f04f 0b00 	movcc.w	fp, #0
20001004:	4288      	cmp	r0, r1
20001006:	d903      	bls.n	20001010 <__udivmoddi4+0x1b4>
20001008:	f1bb 0f00 	cmp.w	fp, #0
2000100c:	f000 808d 	beq.w	2000112a <__udivmoddi4+0x2ce>
20001010:	46d0      	mov	r8, sl
20001012:	1a09      	subs	r1, r1, r0
20001014:	b2a4      	uxth	r4, r4
20001016:	fbb1 f0f9 	udiv	r0, r1, r9
2000101a:	fb09 1110 	mls	r1, r9, r0, r1
2000101e:	fb00 fe0e 	mul.w	lr, r0, lr
20001022:	ea44 4101 	orr.w	r1, r4, r1, lsl #16
20001026:	458e      	cmp	lr, r1
20001028:	d907      	bls.n	2000103a <__udivmoddi4+0x1de>
2000102a:	eb1c 0101 	adds.w	r1, ip, r1
2000102e:	f100 34ff 	add.w	r4, r0, #4294967295
20001032:	d201      	bcs.n	20001038 <__udivmoddi4+0x1dc>
20001034:	458e      	cmp	lr, r1
20001036:	d87f      	bhi.n	20001138 <__udivmoddi4+0x2dc>
20001038:	4620      	mov	r0, r4
2000103a:	ea40 4008 	orr.w	r0, r0, r8, lsl #16
2000103e:	eba1 010e 	sub.w	r1, r1, lr
20001042:	fba0 9802 	umull	r9, r8, r0, r2
20001046:	4541      	cmp	r1, r8
20001048:	464c      	mov	r4, r9
2000104a:	46c6      	mov	lr, r8
2000104c:	d302      	bcc.n	20001054 <__udivmoddi4+0x1f8>
2000104e:	d106      	bne.n	2000105e <__udivmoddi4+0x202>
20001050:	454b      	cmp	r3, r9
20001052:	d204      	bcs.n	2000105e <__udivmoddi4+0x202>
20001054:	3801      	subs	r0, #1
20001056:	ebb9 0402 	subs.w	r4, r9, r2
2000105a:	eb68 0e0c 	sbc.w	lr, r8, ip
2000105e:	2d00      	cmp	r5, #0
20001060:	d070      	beq.n	20001144 <__udivmoddi4+0x2e8>
20001062:	1b1a      	subs	r2, r3, r4
20001064:	eb61 010e 	sbc.w	r1, r1, lr
20001068:	fa22 f306 	lsr.w	r3, r2, r6
2000106c:	fa01 f707 	lsl.w	r7, r1, r7
20001070:	40f1      	lsrs	r1, r6
20001072:	2600      	movs	r6, #0
20001074:	431f      	orrs	r7, r3
20001076:	e9c5 7100 	strd	r7, r1, [r5]
2000107a:	e73c      	b.n	20000ef6 <__udivmoddi4+0x9a>
2000107c:	fa02 fc03 	lsl.w	ip, r2, r3
20001080:	f1c3 0020 	rsb	r0, r3, #32
20001084:	fa01 f203 	lsl.w	r2, r1, r3
20001088:	fa21 f600 	lsr.w	r6, r1, r0
2000108c:	ea4f 4e1c 	mov.w	lr, ip, lsr #16
20001090:	fa24 f100 	lsr.w	r1, r4, r0
20001094:	fa1f f78c 	uxth.w	r7, ip
20001098:	409c      	lsls	r4, r3
2000109a:	4311      	orrs	r1, r2
2000109c:	fbb6 f0fe 	udiv	r0, r6, lr
200010a0:	0c0a      	lsrs	r2, r1, #16
200010a2:	fb0e 6610 	mls	r6, lr, r0, r6
200010a6:	ea42 4206 	orr.w	r2, r2, r6, lsl #16
200010aa:	fb00 f607 	mul.w	r6, r0, r7
200010ae:	4296      	cmp	r6, r2
200010b0:	d90e      	bls.n	200010d0 <__udivmoddi4+0x274>
200010b2:	eb1c 0202 	adds.w	r2, ip, r2
200010b6:	f100 38ff 	add.w	r8, r0, #4294967295
200010ba:	bf2c      	ite	cs
200010bc:	f04f 0901 	movcs.w	r9, #1
200010c0:	f04f 0900 	movcc.w	r9, #0
200010c4:	4296      	cmp	r6, r2
200010c6:	d902      	bls.n	200010ce <__udivmoddi4+0x272>
200010c8:	f1b9 0f00 	cmp.w	r9, #0
200010cc:	d031      	beq.n	20001132 <__udivmoddi4+0x2d6>
200010ce:	4640      	mov	r0, r8
200010d0:	1b92      	subs	r2, r2, r6
200010d2:	b289      	uxth	r1, r1
200010d4:	fbb2 f6fe 	udiv	r6, r2, lr
200010d8:	fb0e 2216 	mls	r2, lr, r6, r2
200010dc:	ea41 4102 	orr.w	r1, r1, r2, lsl #16
200010e0:	fb06 f207 	mul.w	r2, r6, r7
200010e4:	428a      	cmp	r2, r1
200010e6:	d907      	bls.n	200010f8 <__udivmoddi4+0x29c>
200010e8:	eb1c 0101 	adds.w	r1, ip, r1
200010ec:	f106 38ff 	add.w	r8, r6, #4294967295
200010f0:	d201      	bcs.n	200010f6 <__udivmoddi4+0x29a>
200010f2:	428a      	cmp	r2, r1
200010f4:	d823      	bhi.n	2000113e <__udivmoddi4+0x2e2>
200010f6:	4646      	mov	r6, r8
200010f8:	1a89      	subs	r1, r1, r2
200010fa:	ea46 4600 	orr.w	r6, r6, r0, lsl #16
200010fe:	e725      	b.n	20000f4c <__udivmoddi4+0xf0>
20001100:	462e      	mov	r6, r5
20001102:	4628      	mov	r0, r5
20001104:	e6f7      	b.n	20000ef6 <__udivmoddi4+0x9a>
20001106:	1a84      	subs	r4, r0, r2
20001108:	eb61 0303 	sbc.w	r3, r1, r3
2000110c:	2001      	movs	r0, #1
2000110e:	461f      	mov	r7, r3
20001110:	e70b      	b.n	20000f2a <__udivmoddi4+0xce>
20001112:	4464      	add	r4, ip
20001114:	3802      	subs	r0, #2
20001116:	e749      	b.n	20000fac <__udivmoddi4+0x150>
20001118:	4464      	add	r4, ip
2000111a:	3802      	subs	r0, #2
2000111c:	e6e1      	b.n	20000ee2 <__udivmoddi4+0x86>
2000111e:	3a02      	subs	r2, #2
20001120:	4461      	add	r1, ip
20001122:	e72e      	b.n	20000f82 <__udivmoddi4+0x126>
20001124:	3e02      	subs	r6, #2
20001126:	4462      	add	r2, ip
20001128:	e6c6      	b.n	20000eb8 <__udivmoddi4+0x5c>
2000112a:	f1a8 0802 	sub.w	r8, r8, #2
2000112e:	4461      	add	r1, ip
20001130:	e76f      	b.n	20001012 <__udivmoddi4+0x1b6>
20001132:	3802      	subs	r0, #2
20001134:	4462      	add	r2, ip
20001136:	e7cb      	b.n	200010d0 <__udivmoddi4+0x274>
20001138:	3802      	subs	r0, #2
2000113a:	4461      	add	r1, ip
2000113c:	e77d      	b.n	2000103a <__udivmoddi4+0x1de>
2000113e:	3e02      	subs	r6, #2
20001140:	4461      	add	r1, ip
20001142:	e7d9      	b.n	200010f8 <__udivmoddi4+0x29c>
20001144:	462e      	mov	r6, r5
20001146:	e6d6      	b.n	20000ef6 <__udivmoddi4+0x9a>

20001148 <__aeabi_idiv0>:
20001148:	4770      	bx	lr
2000114a:	bf00      	nop
2000114c:	0000      	movs	r0, r0
	...

20001150 <__panic_veneer>:
20001150:	b401      	push	{r0}
20001152:	4802      	ldr	r0, [pc, #8]	; (2000115c <__panic_veneer+0xc>)
20001154:	4684      	mov	ip, r0
20001156:	bc01      	pop	{r0}
20001158:	4760      	bx	ip
2000115a:	bf00      	nop
2000115c:	1000034d 	.word	0x1000034d

20001160 <__vPortLockInternalSpinUnlockWithNotify_veneer>:
20001160:	b401      	push	{r0}
20001162:	4802      	ldr	r0, [pc, #8]	; (2000116c <__vPortLockInternalSpinUnlockWithNotify_veneer+0xc>)
20001164:	4684      	mov	ip, r0
20001166:	bc01      	pop	{r0}
20001168:	4760      	bx	ip
2000116a:	bf00      	nop
2000116c:	100044c5 	.word	0x100044c5

20001170 <__ulPortLockGetCurrentOwnerId_veneer>:
20001170:	b401      	push	{r0}
20001172:	4802      	ldr	r0, [pc, #8]	; (2000117c <__ulPortLockGetCurrentOwnerId_veneer+0xc>)
20001174:	4684      	mov	ip, r0
20001176:	bc01      	pop	{r0}
20001178:	4760      	bx	ip
2000117a:	bf00      	nop
2000117c:	1000449d 	.word	0x1000449d

20001180 <__tud_event_hook_cb_veneer>:
20001180:	b401      	push	{r0}
20001182:	4802      	ldr	r0, [pc, #8]	; (2000118c <__tud_event_hook_cb_veneer+0xc>)
20001184:	4684      	mov	ip, r0
20001186:	bc01      	pop	{r0}
20001188:	4760      	bx	ip
2000118a:	bf00      	nop
2000118c:	10002471 	.word	0x10002471

20001190 <__memset_veneer>:
20001190:	b401      	push	{r0}
20001192:	4802      	ldr	r0, [pc, #8]	; (2000119c <__memset_veneer+0xc>)
20001194:	4684      	mov	ip, r0
20001196:	bc01      	pop	{r0}
20001198:	4760      	bx	ip
2000119a:	bf00      	nop
2000119c:	10006859 	.word	0x10006859

200011a0 <__xPortLockInternalSpinUnlockWithBestEffortWaitOrTimeout_veneer>:
200011a0:	b401      	push	{r0}
200011a2:	4802      	ldr	r0, [pc, #8]	; (200011ac <__xPortLockInternalSpinUnlockWithBestEffortWaitOrTimeout_veneer+0xc>)
200011a4:	4684      	mov	ip, r0
200011a6:	bc01      	pop	{r0}
200011a8:	4760      	bx	ip
200011aa:	bf00      	nop
200011ac:	100045c5 	.word	0x100045c5

200011b0 <__tu_fifo_write_veneer>:
200011b0:	b401      	push	{r0}
200011b2:	4802      	ldr	r0, [pc, #8]	; (200011bc <__tu_fifo_write_veneer+0xc>)
200011b4:	4684      	mov	ip, r0
200011b6:	bc01      	pop	{r0}
200011b8:	4760      	bx	ip
200011ba:	bf00      	nop
200011bc:	10003ef1 	.word	0x10003ef1

200011c0 <__time_us_64_veneer>:
200011c0:	b401      	push	{r0}
200011c2:	4802      	ldr	r0, [pc, #8]	; (200011cc <__time_us_64_veneer+0xc>)
200011c4:	4684      	mov	ip, r0
200011c6:	bc01      	pop	{r0}
200011c8:	4760      	bx	ip
200011ca:	bf00      	nop
200011cc:	10001151 	.word	0x10001151

200011d0 <striped_spin_lock_num>:
200011d0:	00000010                                ....

200011d4 <irq_handler_chain_slots>:
200011d4:	00000000 	.word	0x00000000
200011d8:	00010000 	.word	0x00010000
	...
200011e4:	00020000 	.word	0x00020000
	...
200011f0:	00030000 	.word	0x00030000
	...
200011fc:	00ff0000 	.word	0x00ff0000
20001200:	00000000 	.word	0x00000000

20001204 <irq_handler_chain_first_slot>:
20001204:	b501      	push	{r0, lr}
20001206:	6848      	ldr	r0, [r1, #4]
20001208:	3101      	adds	r1, #1
2000120a:	468e      	mov	lr, r1
2000120c:	4700      	bx	r0

2000120e <irq_handler_chain_remove_tail>:
2000120e:	4670      	mov	r0, lr
20001210:	3809      	subs	r0, #9
20001212:	4901      	ldr	r1, [pc, #4]	; (20001218 <irq_handler_chain_remove_tail+0xa>)
20001214:	4788      	blx	r1
20001216:	bd01      	pop	{r0, pc}
20001218:	10000845 	.word	0x10000845

2000121c <default_alarm_pool>:
	...
20001230:	20001288                                ... 

20001234 <stdio_usb>:
20001234:	10001c11 10001bc5 10001b41 10001ab1     ........A.......
20001244:	00000000 00000100                       ........

2000124c <_usbd_qdef>:
2000124c:	20001658 000c0010 00000000 00000000     X.. ............
	...

20001268 <_usbd_rhport>:
20001268:	                                         .

20001269 <cDoorbellNum>:
20001269:	                                         .

2000126a <ucPrimaryCoreNum>:
2000126a:	                                         ..

2000126c <ulCriticalNesting>:
2000126c:	aaaaaaaa                                ....

20001270 <uxTopUsedPriority>:
20001270:	00000004                                ....

20001274 <malloc_mutex>:
	...

2000127c <print_mutex>:
	...
